ARM GAS  /var/folders/1p/hl98tgf51p19ck4ldyh6xb6c0000gn/T//cc56AY3v.s 			page 1


   1              		.cpu cortex-m7
   2              		.arch armv7e-m
   3              		.fpu fpv5-d16
   4              		.eabi_attribute 28, 1
   5              		.eabi_attribute 20, 1
   6              		.eabi_attribute 21, 1
   7              		.eabi_attribute 23, 3
   8              		.eabi_attribute 24, 1
   9              		.eabi_attribute 25, 1
  10              		.eabi_attribute 26, 1
  11              		.eabi_attribute 30, 2
  12              		.eabi_attribute 34, 1
  13              		.eabi_attribute 18, 4
  14              		.file	"source.cpp"
  15              		.text
  16              	.Ltext0:
  17              		.cfi_sections	.debug_frame
  18              		.section	.text._ZN5daisy9DaisySeedD2Ev,"axG",%progbits,_ZN5daisy9DaisySeedD5Ev,comdat
  19              		.align	1
  20              		.p2align 2,,3
  21              		.weak	_ZN5daisy9DaisySeedD2Ev
  22              		.syntax unified
  23              		.thumb
  24              		.thumb_func
  26              	_ZN5daisy9DaisySeedD2Ev:
  27              	.LVL0:
  28              	.LFB2529:
  29              		.file 1 "../DaisyExamples/libDaisy//src/daisy_seed.h"
   1:../DaisyExamples/libDaisy//src/daisy_seed.h **** #pragma once
   2:../DaisyExamples/libDaisy//src/daisy_seed.h **** #ifndef DSY_SEED_H
   3:../DaisyExamples/libDaisy//src/daisy_seed.h **** #define DSY_SEED_H
   4:../DaisyExamples/libDaisy//src/daisy_seed.h **** 
   5:../DaisyExamples/libDaisy//src/daisy_seed.h **** #include "daisy.h"
   6:../DaisyExamples/libDaisy//src/daisy_seed.h **** 
   7:../DaisyExamples/libDaisy//src/daisy_seed.h **** //Uncomment this out if you're still using the rev2 hardware
   8:../DaisyExamples/libDaisy//src/daisy_seed.h **** //#define SEED_REV2
   9:../DaisyExamples/libDaisy//src/daisy_seed.h **** 
  10:../DaisyExamples/libDaisy//src/daisy_seed.h **** namespace daisy
  11:../DaisyExamples/libDaisy//src/daisy_seed.h **** {
  12:../DaisyExamples/libDaisy//src/daisy_seed.h **** /**
  13:../DaisyExamples/libDaisy//src/daisy_seed.h ****    @brief This is the higher-level interface for the Daisy board. \n 
  14:../DaisyExamples/libDaisy//src/daisy_seed.h ****     All basic peripheral configuration/initialization is setup here. \n
  15:../DaisyExamples/libDaisy//src/daisy_seed.h **** 
  16:../DaisyExamples/libDaisy//src/daisy_seed.h ****    @ingroup boards
  17:../DaisyExamples/libDaisy//src/daisy_seed.h **** */
  18:../DaisyExamples/libDaisy//src/daisy_seed.h **** class DaisySeed
  19:../DaisyExamples/libDaisy//src/daisy_seed.h **** {
  20:../DaisyExamples/libDaisy//src/daisy_seed.h ****   public:
  21:../DaisyExamples/libDaisy//src/daisy_seed.h ****     DaisySeed() {}
  22:../DaisyExamples/libDaisy//src/daisy_seed.h ****     ~DaisySeed() {}
  30              		.loc 1 22 5 view -0
  31              		.cfi_startproc
  32              		@ args = 0, pretend = 0, frame = 0
  33              		@ frame_needed = 0, uses_anonymous_args = 0
  34              		@ link register save eliminated.
  35              	.LBB368:
  36              	.LBI368:
ARM GAS  /var/folders/1p/hl98tgf51p19ck4ldyh6xb6c0000gn/T//cc56AY3v.s 			page 2


  37              		.file 2 "../DaisyExamples/libDaisy//src/sys/system.h"
   1:../DaisyExamples/libDaisy//src/sys/system.h **** #ifndef DSY_SYSTEM_H
   2:../DaisyExamples/libDaisy//src/sys/system.h **** #define DSY_SYSTEM_H
   3:../DaisyExamples/libDaisy//src/sys/system.h **** 
   4:../DaisyExamples/libDaisy//src/sys/system.h **** #ifndef UNIT_TEST // for unit tests, a dummy implementation is provided below
   5:../DaisyExamples/libDaisy//src/sys/system.h **** 
   6:../DaisyExamples/libDaisy//src/sys/system.h **** #include <cstdint>
   7:../DaisyExamples/libDaisy//src/sys/system.h **** #include "per/tim.h"
   8:../DaisyExamples/libDaisy//src/sys/system.h **** 
   9:../DaisyExamples/libDaisy//src/sys/system.h **** namespace daisy
  10:../DaisyExamples/libDaisy//src/sys/system.h **** {
  11:../DaisyExamples/libDaisy//src/sys/system.h **** /** A handle for interacting with the Core System. 
  12:../DaisyExamples/libDaisy//src/sys/system.h ****  ** This includes the Clock tree, MPU, global DMA initialization,
  13:../DaisyExamples/libDaisy//src/sys/system.h ****  ** cache handling, and any other necessary global initiailzation
  14:../DaisyExamples/libDaisy//src/sys/system.h ****  **
  15:../DaisyExamples/libDaisy//src/sys/system.h ****  ** @author shensley
  16:../DaisyExamples/libDaisy//src/sys/system.h ****  ** @ingroup system
  17:../DaisyExamples/libDaisy//src/sys/system.h ****  */
  18:../DaisyExamples/libDaisy//src/sys/system.h **** class System
  19:../DaisyExamples/libDaisy//src/sys/system.h **** {
  20:../DaisyExamples/libDaisy//src/sys/system.h ****   public:
  21:../DaisyExamples/libDaisy//src/sys/system.h ****     /** Contains settings for initializing the System */
  22:../DaisyExamples/libDaisy//src/sys/system.h ****     struct Config
  23:../DaisyExamples/libDaisy//src/sys/system.h ****     {
  24:../DaisyExamples/libDaisy//src/sys/system.h ****         /** Specifies the system clock frequency that feeds APB/AHB clocks, etc. */
  25:../DaisyExamples/libDaisy//src/sys/system.h ****         enum class SysClkFreq
  26:../DaisyExamples/libDaisy//src/sys/system.h ****         {
  27:../DaisyExamples/libDaisy//src/sys/system.h ****             FREQ_400MHZ,
  28:../DaisyExamples/libDaisy//src/sys/system.h ****             FREQ_480MHZ,
  29:../DaisyExamples/libDaisy//src/sys/system.h ****         };
  30:../DaisyExamples/libDaisy//src/sys/system.h **** 
  31:../DaisyExamples/libDaisy//src/sys/system.h ****         /** Method to call on the struct to set to defaults
  32:../DaisyExamples/libDaisy//src/sys/system.h ****          ** CPU Freq set to 400MHz
  33:../DaisyExamples/libDaisy//src/sys/system.h ****          ** Cache Enabled 
  34:../DaisyExamples/libDaisy//src/sys/system.h ****          ** */
  35:../DaisyExamples/libDaisy//src/sys/system.h ****         void Defaults()
  36:../DaisyExamples/libDaisy//src/sys/system.h ****         {
  37:../DaisyExamples/libDaisy//src/sys/system.h ****             cpu_freq    = SysClkFreq::FREQ_400MHZ;
  38:../DaisyExamples/libDaisy//src/sys/system.h ****             use_dcache  = true;
  39:../DaisyExamples/libDaisy//src/sys/system.h ****             use_icache  = true;
  40:../DaisyExamples/libDaisy//src/sys/system.h ****             skip_clocks = false;
  41:../DaisyExamples/libDaisy//src/sys/system.h ****         }
  42:../DaisyExamples/libDaisy//src/sys/system.h **** 
  43:../DaisyExamples/libDaisy//src/sys/system.h ****         /** Method to call on the struct to set to boost mode:
  44:../DaisyExamples/libDaisy//src/sys/system.h ****          ** CPU Freq set to 480MHz
  45:../DaisyExamples/libDaisy//src/sys/system.h ****          ** Cache Enabled 
  46:../DaisyExamples/libDaisy//src/sys/system.h ****          ** */
  47:../DaisyExamples/libDaisy//src/sys/system.h ****         void Boost()
  48:../DaisyExamples/libDaisy//src/sys/system.h ****         {
  49:../DaisyExamples/libDaisy//src/sys/system.h ****             cpu_freq    = SysClkFreq::FREQ_480MHZ;
  50:../DaisyExamples/libDaisy//src/sys/system.h ****             use_dcache  = true;
  51:../DaisyExamples/libDaisy//src/sys/system.h ****             use_icache  = true;
  52:../DaisyExamples/libDaisy//src/sys/system.h ****             skip_clocks = false;
  53:../DaisyExamples/libDaisy//src/sys/system.h ****         }
  54:../DaisyExamples/libDaisy//src/sys/system.h **** 
  55:../DaisyExamples/libDaisy//src/sys/system.h ****         SysClkFreq cpu_freq;
  56:../DaisyExamples/libDaisy//src/sys/system.h ****         bool       use_dcache;
ARM GAS  /var/folders/1p/hl98tgf51p19ck4ldyh6xb6c0000gn/T//cc56AY3v.s 			page 3


  57:../DaisyExamples/libDaisy//src/sys/system.h ****         bool       use_icache;
  58:../DaisyExamples/libDaisy//src/sys/system.h ****         bool       skip_clocks;
  59:../DaisyExamples/libDaisy//src/sys/system.h ****     };
  60:../DaisyExamples/libDaisy//src/sys/system.h **** 
  61:../DaisyExamples/libDaisy//src/sys/system.h ****     /** Describes the different regions of memory available to the Daisy
  62:../DaisyExamples/libDaisy//src/sys/system.h ****      * 
  63:../DaisyExamples/libDaisy//src/sys/system.h ****      */
  64:../DaisyExamples/libDaisy//src/sys/system.h ****     enum MemoryRegion
  65:../DaisyExamples/libDaisy//src/sys/system.h ****     {
  66:../DaisyExamples/libDaisy//src/sys/system.h ****         INTERNAL_FLASH = 0,
  67:../DaisyExamples/libDaisy//src/sys/system.h ****         ITCMRAM,
  68:../DaisyExamples/libDaisy//src/sys/system.h ****         DTCMRAM,
  69:../DaisyExamples/libDaisy//src/sys/system.h ****         SRAM_D1,
  70:../DaisyExamples/libDaisy//src/sys/system.h ****         SRAM_D2,
  71:../DaisyExamples/libDaisy//src/sys/system.h ****         SRAM_D3,
  72:../DaisyExamples/libDaisy//src/sys/system.h ****         SDRAM,
  73:../DaisyExamples/libDaisy//src/sys/system.h ****         QSPI,
  74:../DaisyExamples/libDaisy//src/sys/system.h ****         INVALID_ADDRESS,
  75:../DaisyExamples/libDaisy//src/sys/system.h ****     };
  76:../DaisyExamples/libDaisy//src/sys/system.h **** 
  77:../DaisyExamples/libDaisy//src/sys/system.h ****     System() {}
  78:../DaisyExamples/libDaisy//src/sys/system.h ****     ~System() {}
  38              		.loc 2 78 5 view .LVU1
  39              		.loc 2 78 5 is_stmt 0 view .LVU2
  40              	.LBE368:
  41              	.LBB369:
  42              	.LBI369:
  43              		.file 3 "../DaisyExamples/libDaisy//src/hid/usb.h"
   1:../DaisyExamples/libDaisy//src/hid/usb.h **** #pragma once
   2:../DaisyExamples/libDaisy//src/hid/usb.h **** #ifndef DSY_HID_USB_H
   3:../DaisyExamples/libDaisy//src/hid/usb.h **** #define DSY_HID_USB_H
   4:../DaisyExamples/libDaisy//src/hid/usb.h **** #include <stdint.h>
   5:../DaisyExamples/libDaisy//src/hid/usb.h **** #include <stdlib.h>
   6:../DaisyExamples/libDaisy//src/hid/usb.h **** 
   7:../DaisyExamples/libDaisy//src/hid/usb.h **** namespace daisy
   8:../DaisyExamples/libDaisy//src/hid/usb.h **** /** @addtogroup human_interface
   9:../DaisyExamples/libDaisy//src/hid/usb.h ****     @{
  10:../DaisyExamples/libDaisy//src/hid/usb.h **** */
  11:../DaisyExamples/libDaisy//src/hid/usb.h **** 
  12:../DaisyExamples/libDaisy//src/hid/usb.h **** {
  13:../DaisyExamples/libDaisy//src/hid/usb.h **** /** 
  14:../DaisyExamples/libDaisy//src/hid/usb.h ****     @brief Interface for initializing and using the USB Peripherals on the daisy
  15:../DaisyExamples/libDaisy//src/hid/usb.h ****     @author Stephen Hensley
  16:../DaisyExamples/libDaisy//src/hid/usb.h ****     @date December 2019
  17:../DaisyExamples/libDaisy//src/hid/usb.h **** */
  18:../DaisyExamples/libDaisy//src/hid/usb.h **** class UsbHandle
  19:../DaisyExamples/libDaisy//src/hid/usb.h **** {
  20:../DaisyExamples/libDaisy//src/hid/usb.h ****   public:
  21:../DaisyExamples/libDaisy//src/hid/usb.h ****     /** Return values for USBHandle Functions */
  22:../DaisyExamples/libDaisy//src/hid/usb.h ****     enum class Result
  23:../DaisyExamples/libDaisy//src/hid/usb.h ****     {
  24:../DaisyExamples/libDaisy//src/hid/usb.h ****         OK,
  25:../DaisyExamples/libDaisy//src/hid/usb.h ****         ERR,
  26:../DaisyExamples/libDaisy//src/hid/usb.h ****     };
  27:../DaisyExamples/libDaisy//src/hid/usb.h **** 
  28:../DaisyExamples/libDaisy//src/hid/usb.h ****     /** Specified which of the two USB Peripherals to initialize. */
  29:../DaisyExamples/libDaisy//src/hid/usb.h ****     enum UsbPeriph
ARM GAS  /var/folders/1p/hl98tgf51p19ck4ldyh6xb6c0000gn/T//cc56AY3v.s 			page 4


  30:../DaisyExamples/libDaisy//src/hid/usb.h ****     {
  31:../DaisyExamples/libDaisy//src/hid/usb.h ****         FS_INTERNAL, /**< Internal pin */
  32:../DaisyExamples/libDaisy//src/hid/usb.h ****         FS_EXTERNAL, /**< FS External D+ pin is Pin 38 (GPIO32). FS External D- pin is Pin 37 (GPIO
  33:../DaisyExamples/libDaisy//src/hid/usb.h ****         FS_BOTH,     /**< Both */
  34:../DaisyExamples/libDaisy//src/hid/usb.h ****     };
  35:../DaisyExamples/libDaisy//src/hid/usb.h **** 
  36:../DaisyExamples/libDaisy//src/hid/usb.h **** 
  37:../DaisyExamples/libDaisy//src/hid/usb.h ****     /** Function called upon reception of a buffer */
  38:../DaisyExamples/libDaisy//src/hid/usb.h ****     typedef void (*ReceiveCallback)(uint8_t* buff, uint32_t* len);
  39:../DaisyExamples/libDaisy//src/hid/usb.h **** 
  40:../DaisyExamples/libDaisy//src/hid/usb.h ****     UsbHandle() {}
  41:../DaisyExamples/libDaisy//src/hid/usb.h **** 
  42:../DaisyExamples/libDaisy//src/hid/usb.h ****     ~UsbHandle() {}
  44              		.loc 3 42 5 is_stmt 1 view .LVU3
  45              		.loc 3 42 5 is_stmt 0 view .LVU4
  46              	.LBE369:
  47              	.LBB370:
  48              	.LBI370:
  49              		.file 4 "../DaisyExamples/libDaisy//src/per/adc.h"
   1:../DaisyExamples/libDaisy//src/per/adc.h **** #pragma once
   2:../DaisyExamples/libDaisy//src/per/adc.h **** #ifndef DSY_ADC_H
   3:../DaisyExamples/libDaisy//src/per/adc.h **** #define DSY_ADC_H /**< Macro */
   4:../DaisyExamples/libDaisy//src/per/adc.h **** #include <stdint.h>
   5:../DaisyExamples/libDaisy//src/per/adc.h **** #include <stdlib.h>
   6:../DaisyExamples/libDaisy//src/per/adc.h **** #include "daisy_core.h"
   7:../DaisyExamples/libDaisy//src/per/adc.h **** #include "per/gpio.h"
   8:../DaisyExamples/libDaisy//src/per/adc.h **** 
   9:../DaisyExamples/libDaisy//src/per/adc.h **** #define DSY_ADC_MAX_CHANNELS 16 /**< Maximum number of ADC channels */
  10:../DaisyExamples/libDaisy//src/per/adc.h **** 
  11:../DaisyExamples/libDaisy//src/per/adc.h **** namespace daisy
  12:../DaisyExamples/libDaisy//src/per/adc.h **** {
  13:../DaisyExamples/libDaisy//src/per/adc.h **** /** @addtogroup per_analog
  14:../DaisyExamples/libDaisy//src/per/adc.h ****     @{
  15:../DaisyExamples/libDaisy//src/per/adc.h **** */
  16:../DaisyExamples/libDaisy//src/per/adc.h **** 
  17:../DaisyExamples/libDaisy//src/per/adc.h **** /* While there may not be many configuration options here,
  18:../DaisyExamples/libDaisy//src/per/adc.h **** using a struct like this allows us to add more configuration
  19:../DaisyExamples/libDaisy//src/per/adc.h **** later without breaking existing functionality.
  20:../DaisyExamples/libDaisy//src/per/adc.h **** */
  21:../DaisyExamples/libDaisy//src/per/adc.h **** 
  22:../DaisyExamples/libDaisy//src/per/adc.h **** /** @brief   Configuration Structure for an ADC Channel 
  23:../DaisyExamples/libDaisy//src/per/adc.h ****  *  @details This can be used to configure a a single input, 
  24:../DaisyExamples/libDaisy//src/per/adc.h ****  *           or a multiplexed input, allowing up to 8 inputs on 
  25:../DaisyExamples/libDaisy//src/per/adc.h ****  *           one channel.
  26:../DaisyExamples/libDaisy//src/per/adc.h ****  *  @note    Sharing data lines to multiple muxes _is_ possible, but
  27:../DaisyExamples/libDaisy//src/per/adc.h ****  *           each channel sharing data lines must be set to the maximum
  28:../DaisyExamples/libDaisy//src/per/adc.h ****  *           number of channels, even if some multiplexers have fewer
  29:../DaisyExamples/libDaisy//src/per/adc.h ****  *           inputs connected.
  30:../DaisyExamples/libDaisy//src/per/adc.h **** */
  31:../DaisyExamples/libDaisy//src/per/adc.h **** struct AdcChannelConfig
  32:../DaisyExamples/libDaisy//src/per/adc.h **** {
  33:../DaisyExamples/libDaisy//src/per/adc.h ****     /** Which pin to use for multiplexing */
  34:../DaisyExamples/libDaisy//src/per/adc.h ****     enum MuxPin
  35:../DaisyExamples/libDaisy//src/per/adc.h ****     {
  36:../DaisyExamples/libDaisy//src/per/adc.h ****         MUX_SEL_0,    /**< & */
  37:../DaisyExamples/libDaisy//src/per/adc.h ****         MUX_SEL_1,    /**< & */
  38:../DaisyExamples/libDaisy//src/per/adc.h ****         MUX_SEL_2,    /**< & */
ARM GAS  /var/folders/1p/hl98tgf51p19ck4ldyh6xb6c0000gn/T//cc56AY3v.s 			page 5


  39:../DaisyExamples/libDaisy//src/per/adc.h ****         MUX_SEL_LAST, /**< & */
  40:../DaisyExamples/libDaisy//src/per/adc.h ****     };
  41:../DaisyExamples/libDaisy//src/per/adc.h **** 
  42:../DaisyExamples/libDaisy//src/per/adc.h ****     /** Initializes a single ADC pin as an ADC. 
  43:../DaisyExamples/libDaisy//src/per/adc.h ****     \param pin Pin to init.
  44:../DaisyExamples/libDaisy//src/per/adc.h ****      */
  45:../DaisyExamples/libDaisy//src/per/adc.h ****     void InitSingle(dsy_gpio_pin pin);
  46:../DaisyExamples/libDaisy//src/per/adc.h **** 
  47:../DaisyExamples/libDaisy//src/per/adc.h ****     /** 
  48:../DaisyExamples/libDaisy//src/per/adc.h ****     Initializes a single ADC pin as a Multiplexed ADC.
  49:../DaisyExamples/libDaisy//src/per/adc.h ****     Requires a CD405X Multiplexer connected to the pin.
  50:../DaisyExamples/libDaisy//src/per/adc.h ****     You only need to supply the mux pins that are required,
  51:../DaisyExamples/libDaisy//src/per/adc.h ****     e.g. a 4052 mux would only require mux_0 and mux_1.
  52:../DaisyExamples/libDaisy//src/per/adc.h ****     Internal Callbacks handle the pin addressing.
  53:../DaisyExamples/libDaisy//src/per/adc.h ****     \param mux_channels must be 1-8
  54:../DaisyExamples/libDaisy//src/per/adc.h ****     \param mux_0 First mux pin
  55:../DaisyExamples/libDaisy//src/per/adc.h ****     \param mux_1 Second mux pin
  56:../DaisyExamples/libDaisy//src/per/adc.h ****     \param mux_2 Third mux pin
  57:../DaisyExamples/libDaisy//src/per/adc.h ****     \param adc_pin &
  58:../DaisyExamples/libDaisy//src/per/adc.h ****     */
  59:../DaisyExamples/libDaisy//src/per/adc.h ****     void InitMux(dsy_gpio_pin adc_pin,
  60:../DaisyExamples/libDaisy//src/per/adc.h ****                  size_t       mux_channels,
  61:../DaisyExamples/libDaisy//src/per/adc.h ****                  dsy_gpio_pin mux_0,
  62:../DaisyExamples/libDaisy//src/per/adc.h ****                  dsy_gpio_pin mux_1 = {DSY_GPIOX, 0},
  63:../DaisyExamples/libDaisy//src/per/adc.h ****                  dsy_gpio_pin mux_2 = {DSY_GPIOX, 0});
  64:../DaisyExamples/libDaisy//src/per/adc.h **** 
  65:../DaisyExamples/libDaisy//src/per/adc.h ****     dsy_gpio pin_;                   /**< & */
  66:../DaisyExamples/libDaisy//src/per/adc.h ****     dsy_gpio mux_pin_[MUX_SEL_LAST]; /**< & */
  67:../DaisyExamples/libDaisy//src/per/adc.h ****     uint8_t  mux_channels_;          /**< & */
  68:../DaisyExamples/libDaisy//src/per/adc.h **** };
  69:../DaisyExamples/libDaisy//src/per/adc.h **** 
  70:../DaisyExamples/libDaisy//src/per/adc.h **** /**
  71:../DaisyExamples/libDaisy//src/per/adc.h ****    @brief Handler for analog to digital conversion
  72:../DaisyExamples/libDaisy//src/per/adc.h **** */
  73:../DaisyExamples/libDaisy//src/per/adc.h **** class AdcHandle
  74:../DaisyExamples/libDaisy//src/per/adc.h **** {
  75:../DaisyExamples/libDaisy//src/per/adc.h ****   public:
  76:../DaisyExamples/libDaisy//src/per/adc.h ****     /** Supported oversampling amounts */
  77:../DaisyExamples/libDaisy//src/per/adc.h ****     enum OverSampling
  78:../DaisyExamples/libDaisy//src/per/adc.h ****     {
  79:../DaisyExamples/libDaisy//src/per/adc.h ****         OVS_NONE, /**< & */
  80:../DaisyExamples/libDaisy//src/per/adc.h ****         OVS_4,    /**< & */
  81:../DaisyExamples/libDaisy//src/per/adc.h ****         OVS_8,    /**< & */
  82:../DaisyExamples/libDaisy//src/per/adc.h ****         OVS_16,   /**< & */
  83:../DaisyExamples/libDaisy//src/per/adc.h ****         OVS_32,   /**< & */
  84:../DaisyExamples/libDaisy//src/per/adc.h ****         OVS_64,   /**< & */
  85:../DaisyExamples/libDaisy//src/per/adc.h ****         OVS_128,  /**< & */
  86:../DaisyExamples/libDaisy//src/per/adc.h ****         OVS_256,  /**< & */
  87:../DaisyExamples/libDaisy//src/per/adc.h ****         OVS_512,  /**< & */
  88:../DaisyExamples/libDaisy//src/per/adc.h ****         OVS_1024, /**< & */
  89:../DaisyExamples/libDaisy//src/per/adc.h ****         OVS_LAST, /**< & */
  90:../DaisyExamples/libDaisy//src/per/adc.h ****     };
  91:../DaisyExamples/libDaisy//src/per/adc.h **** 
  92:../DaisyExamples/libDaisy//src/per/adc.h ****     AdcHandle() {}
  93:../DaisyExamples/libDaisy//src/per/adc.h ****     ~AdcHandle() {}
  50              		.loc 4 93 5 is_stmt 1 view .LVU5
  51              		.loc 4 93 5 is_stmt 0 view .LVU6
ARM GAS  /var/folders/1p/hl98tgf51p19ck4ldyh6xb6c0000gn/T//cc56AY3v.s 			page 6


  52              	.LBE370:
  53              	.LBB371:
  54              	.LBI371:
  55              		.file 5 "../DaisyExamples/libDaisy//src/hid/audio.h"
   1:../DaisyExamples/libDaisy//src/hid/audio.h **** #ifndef DSY_AUDIO_H
   2:../DaisyExamples/libDaisy//src/hid/audio.h **** #define DSY_AUDIO_H /**< & */
   3:../DaisyExamples/libDaisy//src/hid/audio.h **** 
   4:../DaisyExamples/libDaisy//src/hid/audio.h **** #include "per/sai.h"
   5:../DaisyExamples/libDaisy//src/hid/audio.h **** 
   6:../DaisyExamples/libDaisy//src/hid/audio.h **** namespace daisy
   7:../DaisyExamples/libDaisy//src/hid/audio.h **** {
   8:../DaisyExamples/libDaisy//src/hid/audio.h **** /** @brief Audio Engine Handle
   9:../DaisyExamples/libDaisy//src/hid/audio.h ****  *  @ingroup audio 
  10:../DaisyExamples/libDaisy//src/hid/audio.h ****  *  @details This class allows for higher level access to an audio engine.
  11:../DaisyExamples/libDaisy//src/hid/audio.h ****  *           If you're using a SOM like the DaisySeed or DaisyPatchSM (or any 
  12:../DaisyExamples/libDaisy//src/hid/audio.h ****  *            board that includes one of those objects) then the intialization
  13:../DaisyExamples/libDaisy//src/hid/audio.h ****  *            is already taken  care of.
  14:../DaisyExamples/libDaisy//src/hid/audio.h ****  *           If you're setting up your own custom hardware, or need to make changes
  15:../DaisyExamples/libDaisy//src/hid/audio.h ****  *           you will have to take the following steps:
  16:../DaisyExamples/libDaisy//src/hid/audio.h ****  *             1. Create and Initialize an SaiHandle or two depending on your requirements
  17:../DaisyExamples/libDaisy//src/hid/audio.h ****  *             2. Initialize the Audio Handle with the desired settings and the Initialized SaiHand
  18:../DaisyExamples/libDaisy//src/hid/audio.h ****  *             3. If the connected codec requires special configuration or initialization, do so
  19:../DaisyExamples/libDaisy//src/hid/audio.h ****  *             4. Write a callback method using either the AudioCallback or the InterleavingAudioCa
  20:../DaisyExamples/libDaisy//src/hid/audio.h ****  *             5. Start the Audio using one of the StartAudio function
  21:../DaisyExamples/libDaisy//src/hid/audio.h ****  */
  22:../DaisyExamples/libDaisy//src/hid/audio.h **** class AudioHandle
  23:../DaisyExamples/libDaisy//src/hid/audio.h **** {
  24:../DaisyExamples/libDaisy//src/hid/audio.h ****   public:
  25:../DaisyExamples/libDaisy//src/hid/audio.h ****     /** Manually configurable details about the Audio Engine */
  26:../DaisyExamples/libDaisy//src/hid/audio.h ****     /** TODO: Figure out how to get samplerate in here. */
  27:../DaisyExamples/libDaisy//src/hid/audio.h ****     struct Config
  28:../DaisyExamples/libDaisy//src/hid/audio.h ****     {
  29:../DaisyExamples/libDaisy//src/hid/audio.h ****         /** number of samples to process per callback */
  30:../DaisyExamples/libDaisy//src/hid/audio.h ****         size_t blocksize;
  31:../DaisyExamples/libDaisy//src/hid/audio.h **** 
  32:../DaisyExamples/libDaisy//src/hid/audio.h ****         /**< Sample rate of audio */
  33:../DaisyExamples/libDaisy//src/hid/audio.h ****         SaiHandle::Config::SampleRate samplerate;
  34:../DaisyExamples/libDaisy//src/hid/audio.h **** 
  35:../DaisyExamples/libDaisy//src/hid/audio.h ****         /** factor for adjustment before and after callback for hardware that may have extra headro
  36:../DaisyExamples/libDaisy//src/hid/audio.h ****         float postgain;
  37:../DaisyExamples/libDaisy//src/hid/audio.h **** 
  38:../DaisyExamples/libDaisy//src/hid/audio.h ****         /** factor for additional one-sided compensation to audio path for hardware that may
  39:../DaisyExamples/libDaisy//src/hid/audio.h ****          *  have unequal input/output ranges
  40:../DaisyExamples/libDaisy//src/hid/audio.h ****          */
  41:../DaisyExamples/libDaisy//src/hid/audio.h ****         float output_compensation;
  42:../DaisyExamples/libDaisy//src/hid/audio.h **** 
  43:../DaisyExamples/libDaisy//src/hid/audio.h ****         /** Sets default values for config struct */
  44:../DaisyExamples/libDaisy//src/hid/audio.h ****         Config()
  45:../DaisyExamples/libDaisy//src/hid/audio.h ****         : blocksize(48),
  46:../DaisyExamples/libDaisy//src/hid/audio.h ****           samplerate(SaiHandle::Config::SampleRate::SAI_48KHZ),
  47:../DaisyExamples/libDaisy//src/hid/audio.h ****           postgain(1.f),
  48:../DaisyExamples/libDaisy//src/hid/audio.h ****           output_compensation(1.f)
  49:../DaisyExamples/libDaisy//src/hid/audio.h ****         {
  50:../DaisyExamples/libDaisy//src/hid/audio.h ****         }
  51:../DaisyExamples/libDaisy//src/hid/audio.h ****     };
  52:../DaisyExamples/libDaisy//src/hid/audio.h **** 
  53:../DaisyExamples/libDaisy//src/hid/audio.h ****     enum class Result
ARM GAS  /var/folders/1p/hl98tgf51p19ck4ldyh6xb6c0000gn/T//cc56AY3v.s 			page 7


  54:../DaisyExamples/libDaisy//src/hid/audio.h ****     {
  55:../DaisyExamples/libDaisy//src/hid/audio.h ****         OK,
  56:../DaisyExamples/libDaisy//src/hid/audio.h ****         ERR,
  57:../DaisyExamples/libDaisy//src/hid/audio.h ****     };
  58:../DaisyExamples/libDaisy//src/hid/audio.h **** 
  59:../DaisyExamples/libDaisy//src/hid/audio.h ****     /** Non-Interleaving input buffer
  60:../DaisyExamples/libDaisy//src/hid/audio.h ****      * Buffer arranged by float[chn][sample] 
  61:../DaisyExamples/libDaisy//src/hid/audio.h ****      * const so that the user can't modify the input
  62:../DaisyExamples/libDaisy//src/hid/audio.h ****      */
  63:../DaisyExamples/libDaisy//src/hid/audio.h ****     typedef const float* const* InputBuffer;
  64:../DaisyExamples/libDaisy//src/hid/audio.h **** 
  65:../DaisyExamples/libDaisy//src/hid/audio.h ****     /** Non-Interleaving output buffer
  66:../DaisyExamples/libDaisy//src/hid/audio.h ****      * Arranged by float[chn][sample] 
  67:../DaisyExamples/libDaisy//src/hid/audio.h ****      */
  68:../DaisyExamples/libDaisy//src/hid/audio.h ****     typedef float** OutputBuffer;
  69:../DaisyExamples/libDaisy//src/hid/audio.h **** 
  70:../DaisyExamples/libDaisy//src/hid/audio.h ****     /** Type for a Non-Interleaving audio callback 
  71:../DaisyExamples/libDaisy//src/hid/audio.h ****      * Non-Interleaving audio callbacks in daisy will be of this type
  72:../DaisyExamples/libDaisy//src/hid/audio.h ****      */
  73:../DaisyExamples/libDaisy//src/hid/audio.h ****     typedef void (*AudioCallback)(InputBuffer  in,
  74:../DaisyExamples/libDaisy//src/hid/audio.h ****                                   OutputBuffer out,
  75:../DaisyExamples/libDaisy//src/hid/audio.h ****                                   size_t       size);
  76:../DaisyExamples/libDaisy//src/hid/audio.h **** 
  77:../DaisyExamples/libDaisy//src/hid/audio.h ****     /** Interleaving Input buffer
  78:../DaisyExamples/libDaisy//src/hid/audio.h ****      ** audio is prepared as { L0, R0, L1, R1, . . . LN, RN }]
  79:../DaisyExamples/libDaisy//src/hid/audio.h ****      ** this is const, as the user shouldn't modify it
  80:../DaisyExamples/libDaisy//src/hid/audio.h ****     */
  81:../DaisyExamples/libDaisy//src/hid/audio.h ****     typedef const float* InterleavingInputBuffer;
  82:../DaisyExamples/libDaisy//src/hid/audio.h **** 
  83:../DaisyExamples/libDaisy//src/hid/audio.h ****     /** Interleaving Output buffer 
  84:../DaisyExamples/libDaisy//src/hid/audio.h ****      ** audio is prepared as { L0, R0, L1, R1, . . . LN, RN }
  85:../DaisyExamples/libDaisy//src/hid/audio.h ****     */
  86:../DaisyExamples/libDaisy//src/hid/audio.h ****     typedef float* InterleavingOutputBuffer;
  87:../DaisyExamples/libDaisy//src/hid/audio.h **** 
  88:../DaisyExamples/libDaisy//src/hid/audio.h ****     /** Interleaving Audio Callback 
  89:../DaisyExamples/libDaisy//src/hid/audio.h ****      * Interleaving audio callbacks in daisy must be of this type
  90:../DaisyExamples/libDaisy//src/hid/audio.h ****      */
  91:../DaisyExamples/libDaisy//src/hid/audio.h ****     typedef void (*InterleavingAudioCallback)(InterleavingInputBuffer  in,
  92:../DaisyExamples/libDaisy//src/hid/audio.h ****                                               InterleavingOutputBuffer out,
  93:../DaisyExamples/libDaisy//src/hid/audio.h ****                                               size_t                   size);
  94:../DaisyExamples/libDaisy//src/hid/audio.h **** 
  95:../DaisyExamples/libDaisy//src/hid/audio.h ****     AudioHandle() : pimpl_(nullptr) {}
  96:../DaisyExamples/libDaisy//src/hid/audio.h ****     ~AudioHandle() {}
  56              		.loc 5 96 5 is_stmt 1 view .LVU7
  57              		.loc 5 96 5 is_stmt 0 view .LVU8
  58              	.LBE371:
  59              		.loc 1 22 19 view .LVU9
  60 0000 7047     		bx	lr
  61              		.cfi_endproc
  62              	.LFE2529:
  64              		.weak	_ZN5daisy9DaisySeedD1Ev
  65              		.thumb_set _ZN5daisy9DaisySeedD1Ev,_ZN5daisy9DaisySeedD2Ev
  66 0002 00BF     		.section	.text._ZN7daisysp4LineD2Ev,"axG",%progbits,_ZN7daisysp4LineD5Ev,comdat
  67              		.align	1
  68              		.p2align 2,,3
  69              		.weak	_ZN7daisysp4LineD2Ev
  70              		.syntax unified
ARM GAS  /var/folders/1p/hl98tgf51p19ck4ldyh6xb6c0000gn/T//cc56AY3v.s 			page 8


  71              		.thumb
  72              		.thumb_func
  74              	_ZN7daisysp4LineD2Ev:
  75              	.LVL1:
  76              	.LFB2561:
  77              		.file 6 "../DaisyExamples/DaisySP//Source/Control/line.h"
   1:../DaisyExamples/DaisySP//Source/Control/line.h **** #pragma once
   2:../DaisyExamples/DaisySP//Source/Control/line.h **** #ifndef LINE_H
   3:../DaisyExamples/DaisySP//Source/Control/line.h **** #define LINE_H
   4:../DaisyExamples/DaisySP//Source/Control/line.h **** #include <stdint.h>
   5:../DaisyExamples/DaisySP//Source/Control/line.h **** #ifdef __cplusplus
   6:../DaisyExamples/DaisySP//Source/Control/line.h **** 
   7:../DaisyExamples/DaisySP//Source/Control/line.h **** namespace daisysp
   8:../DaisyExamples/DaisySP//Source/Control/line.h **** {
   9:../DaisyExamples/DaisySP//Source/Control/line.h **** /** creates a Line segment signal
  10:../DaisyExamples/DaisySP//Source/Control/line.h ****     */
  11:../DaisyExamples/DaisySP//Source/Control/line.h **** class Line
  12:../DaisyExamples/DaisySP//Source/Control/line.h **** {
  13:../DaisyExamples/DaisySP//Source/Control/line.h ****   public:
  14:../DaisyExamples/DaisySP//Source/Control/line.h ****     Line() {}
  15:../DaisyExamples/DaisySP//Source/Control/line.h ****     ~Line() {}
  78              		.loc 6 15 5 is_stmt 1 view -0
  79              		.cfi_startproc
  80              		@ args = 0, pretend = 0, frame = 0
  81              		@ frame_needed = 0, uses_anonymous_args = 0
  82              		@ link register save eliminated.
  83              		.loc 6 15 14 is_stmt 0 view .LVU11
  84 0000 7047     		bx	lr
  85              		.cfi_endproc
  86              	.LFE2561:
  88              		.weak	_ZN7daisysp4LineD1Ev
  89              		.thumb_set _ZN7daisysp4LineD1Ev,_ZN7daisysp4LineD2Ev
  90 0002 00BF     		.section	.text._ZN7daisysp10OscillatorD2Ev,"axG",%progbits,_ZN7daisysp10OscillatorD5Ev,comdat
  91              		.align	1
  92              		.p2align 2,,3
  93              		.weak	_ZN7daisysp10OscillatorD2Ev
  94              		.syntax unified
  95              		.thumb
  96              		.thumb_func
  98              	_ZN7daisysp10OscillatorD2Ev:
  99              	.LVL2:
 100              	.LFB4219:
 101              		.file 7 "../DaisyExamples/DaisySP//Source/Synthesis/oscillator.h"
   1:../DaisyExamples/DaisySP//Source/Synthesis/oscillator.h **** #pragma once
   2:../DaisyExamples/DaisySP//Source/Synthesis/oscillator.h **** #ifndef DSY_OSCILLATOR_H
   3:../DaisyExamples/DaisySP//Source/Synthesis/oscillator.h **** #define DSY_OSCILLATOR_H
   4:../DaisyExamples/DaisySP//Source/Synthesis/oscillator.h **** #include <stdint.h>
   5:../DaisyExamples/DaisySP//Source/Synthesis/oscillator.h **** #include "Utility/dsp.h"
   6:../DaisyExamples/DaisySP//Source/Synthesis/oscillator.h **** #ifdef __cplusplus
   7:../DaisyExamples/DaisySP//Source/Synthesis/oscillator.h **** 
   8:../DaisyExamples/DaisySP//Source/Synthesis/oscillator.h **** namespace daisysp
   9:../DaisyExamples/DaisySP//Source/Synthesis/oscillator.h **** {
  10:../DaisyExamples/DaisySP//Source/Synthesis/oscillator.h **** /** Synthesis of several waveforms, including polyBLEP bandlimited waveforms.
  11:../DaisyExamples/DaisySP//Source/Synthesis/oscillator.h **** */
  12:../DaisyExamples/DaisySP//Source/Synthesis/oscillator.h **** class Oscillator
  13:../DaisyExamples/DaisySP//Source/Synthesis/oscillator.h **** {
  14:../DaisyExamples/DaisySP//Source/Synthesis/oscillator.h ****   public:
ARM GAS  /var/folders/1p/hl98tgf51p19ck4ldyh6xb6c0000gn/T//cc56AY3v.s 			page 9


  15:../DaisyExamples/DaisySP//Source/Synthesis/oscillator.h ****     Oscillator() {}
  16:../DaisyExamples/DaisySP//Source/Synthesis/oscillator.h ****     ~Oscillator() {}
 102              		.loc 7 16 5 is_stmt 1 view -0
 103              		.cfi_startproc
 104              		@ args = 0, pretend = 0, frame = 0
 105              		@ frame_needed = 0, uses_anonymous_args = 0
 106              		@ link register save eliminated.
 107              		.loc 7 16 20 is_stmt 0 view .LVU13
 108 0000 7047     		bx	lr
 109              		.cfi_endproc
 110              	.LFE4219:
 112              		.weak	_ZN7daisysp10OscillatorD1Ev
 113              		.thumb_set _ZN7daisysp10OscillatorD1Ev,_ZN7daisysp10OscillatorD2Ev
 114 0002 00BF     		.section	.text._ZN7daisysp3SvfD2Ev,"axG",%progbits,_ZN7daisysp3SvfD5Ev,comdat
 115              		.align	1
 116              		.p2align 2,,3
 117              		.weak	_ZN7daisysp3SvfD2Ev
 118              		.syntax unified
 119              		.thumb
 120              		.thumb_func
 122              	_ZN7daisysp3SvfD2Ev:
 123              	.LVL3:
 124              	.LFB4236:
 125              		.file 8 "../DaisyExamples/DaisySP//Source/Filters/svf.h"
   1:../DaisyExamples/DaisySP//Source/Filters/svf.h **** #pragma once
   2:../DaisyExamples/DaisySP//Source/Filters/svf.h **** #ifndef DSY_SVF_H
   3:../DaisyExamples/DaisySP//Source/Filters/svf.h **** #define DSY_SVF_H
   4:../DaisyExamples/DaisySP//Source/Filters/svf.h **** 
   5:../DaisyExamples/DaisySP//Source/Filters/svf.h **** namespace daisysp
   6:../DaisyExamples/DaisySP//Source/Filters/svf.h **** {
   7:../DaisyExamples/DaisySP//Source/Filters/svf.h **** /**      Double Sampled, Stable State Variable Filter
   8:../DaisyExamples/DaisySP//Source/Filters/svf.h **** 
   9:../DaisyExamples/DaisySP//Source/Filters/svf.h **** Credit to Andrew Simper from musicdsp.org
  10:../DaisyExamples/DaisySP//Source/Filters/svf.h **** 
  11:../DaisyExamples/DaisySP//Source/Filters/svf.h **** This is his "State Variable Filter (Double Sampled, Stable)"
  12:../DaisyExamples/DaisySP//Source/Filters/svf.h **** 
  13:../DaisyExamples/DaisySP//Source/Filters/svf.h **** Additional thanks to Laurent de Soras for stability limit, and 
  14:../DaisyExamples/DaisySP//Source/Filters/svf.h **** Stefan Diedrichsen for the correct notch output
  15:../DaisyExamples/DaisySP//Source/Filters/svf.h **** 
  16:../DaisyExamples/DaisySP//Source/Filters/svf.h **** Ported by: Stephen Hensley
  17:../DaisyExamples/DaisySP//Source/Filters/svf.h **** */
  18:../DaisyExamples/DaisySP//Source/Filters/svf.h **** class Svf
  19:../DaisyExamples/DaisySP//Source/Filters/svf.h **** {
  20:../DaisyExamples/DaisySP//Source/Filters/svf.h ****   public:
  21:../DaisyExamples/DaisySP//Source/Filters/svf.h ****     Svf() {}
  22:../DaisyExamples/DaisySP//Source/Filters/svf.h ****     ~Svf() {}
 126              		.loc 8 22 5 is_stmt 1 view -0
 127              		.cfi_startproc
 128              		@ args = 0, pretend = 0, frame = 0
 129              		@ frame_needed = 0, uses_anonymous_args = 0
 130              		@ link register save eliminated.
 131              		.loc 8 22 13 is_stmt 0 view .LVU15
 132 0000 7047     		bx	lr
 133              		.cfi_endproc
 134              	.LFE4236:
 136              		.weak	_ZN7daisysp3SvfD1Ev
 137              		.thumb_set _ZN7daisysp3SvfD1Ev,_ZN7daisysp3SvfD2Ev
ARM GAS  /var/folders/1p/hl98tgf51p19ck4ldyh6xb6c0000gn/T//cc56AY3v.s 			page 10


 138 0002 00BF     		.section	.text._ZN7daisysp10WhiteNoiseD2Ev,"axG",%progbits,_ZN7daisysp10WhiteNoiseD5Ev,comdat
 139              		.align	1
 140              		.p2align 2,,3
 141              		.weak	_ZN7daisysp10WhiteNoiseD2Ev
 142              		.syntax unified
 143              		.thumb
 144              		.thumb_func
 146              	_ZN7daisysp10WhiteNoiseD2Ev:
 147              	.LVL4:
 148              	.LFB4594:
 149              		.file 9 "../DaisyExamples/DaisySP//Source/Noise/whitenoise.h"
   1:../DaisyExamples/DaisySP//Source/Noise/whitenoise.h **** #pragma once
   2:../DaisyExamples/DaisySP//Source/Noise/whitenoise.h **** #ifndef DSY_WHITENOISE_H
   3:../DaisyExamples/DaisySP//Source/Noise/whitenoise.h **** #define DSY_WHITENOISE_H
   4:../DaisyExamples/DaisySP//Source/Noise/whitenoise.h **** #include <stdint.h>
   5:../DaisyExamples/DaisySP//Source/Noise/whitenoise.h **** #ifdef __cplusplus
   6:../DaisyExamples/DaisySP//Source/Noise/whitenoise.h **** namespace daisysp
   7:../DaisyExamples/DaisySP//Source/Noise/whitenoise.h **** {
   8:../DaisyExamples/DaisySP//Source/Noise/whitenoise.h **** /** fast white noise generator
   9:../DaisyExamples/DaisySP//Source/Noise/whitenoise.h **** 
  10:../DaisyExamples/DaisySP//Source/Noise/whitenoise.h ****     I think this came from musicdsp.org at some point
  11:../DaisyExamples/DaisySP//Source/Noise/whitenoise.h **** */
  12:../DaisyExamples/DaisySP//Source/Noise/whitenoise.h **** class WhiteNoise
  13:../DaisyExamples/DaisySP//Source/Noise/whitenoise.h **** {
  14:../DaisyExamples/DaisySP//Source/Noise/whitenoise.h ****   public:
  15:../DaisyExamples/DaisySP//Source/Noise/whitenoise.h ****     WhiteNoise() {}
  16:../DaisyExamples/DaisySP//Source/Noise/whitenoise.h ****     ~WhiteNoise() {}
 150              		.loc 9 16 5 is_stmt 1 view -0
 151              		.cfi_startproc
 152              		@ args = 0, pretend = 0, frame = 0
 153              		@ frame_needed = 0, uses_anonymous_args = 0
 154              		@ link register save eliminated.
 155              		.loc 9 16 20 is_stmt 0 view .LVU17
 156 0000 7047     		bx	lr
 157              		.cfi_endproc
 158              	.LFE4594:
 160              		.weak	_ZN7daisysp10WhiteNoiseD1Ev
 161              		.thumb_set _ZN7daisysp10WhiteNoiseD1Ev,_ZN7daisysp10WhiteNoiseD2Ev
 162 0002 00BF     		.section	.text._ZN7daisysp4PortD2Ev,"axG",%progbits,_ZN7daisysp4PortD5Ev,comdat
 163              		.align	1
 164              		.p2align 2,,3
 165              		.weak	_ZN7daisysp4PortD2Ev
 166              		.syntax unified
 167              		.thumb
 168              		.thumb_func
 170              	_ZN7daisysp4PortD2Ev:
 171              	.LVL5:
 172              	.LFB4768:
 173              		.file 10 "../DaisyExamples/DaisySP//Source/Utility/port.h"
   1:../DaisyExamples/DaisySP//Source/Utility/port.h **** 
   2:../DaisyExamples/DaisySP//Source/Utility/port.h **** #pragma once
   3:../DaisyExamples/DaisySP//Source/Utility/port.h **** #ifndef DSY_PORT_H
   4:../DaisyExamples/DaisySP//Source/Utility/port.h **** #define DSY_PORT_H
   5:../DaisyExamples/DaisySP//Source/Utility/port.h **** #ifdef __cplusplus
   6:../DaisyExamples/DaisySP//Source/Utility/port.h **** 
   7:../DaisyExamples/DaisySP//Source/Utility/port.h **** namespace daisysp
   8:../DaisyExamples/DaisySP//Source/Utility/port.h **** {
ARM GAS  /var/folders/1p/hl98tgf51p19ck4ldyh6xb6c0000gn/T//cc56AY3v.s 			page 11


   9:../DaisyExamples/DaisySP//Source/Utility/port.h **** /** Applies portamento to an input signal. 
  10:../DaisyExamples/DaisySP//Source/Utility/port.h **** 
  11:../DaisyExamples/DaisySP//Source/Utility/port.h **** At each new step value, the input is low-pass filtered to 
  12:../DaisyExamples/DaisySP//Source/Utility/port.h **** move towards that value at a rate determined by ihtim. ihtim is the half-time of the 
  13:../DaisyExamples/DaisySP//Source/Utility/port.h **** function (in seconds), during which the curve will traverse half the distance towards the new value
  14:../DaisyExamples/DaisySP//Source/Utility/port.h **** then half as much again, etc., theoretically never reaching its asymptote.
  15:../DaisyExamples/DaisySP//Source/Utility/port.h **** 
  16:../DaisyExamples/DaisySP//Source/Utility/port.h **** This code has been ported from Soundpipe to DaisySP by Paul Batchelor. 
  17:../DaisyExamples/DaisySP//Source/Utility/port.h **** 
  18:../DaisyExamples/DaisySP//Source/Utility/port.h **** The Soundpipe module was extracted from the Csound opcode "portk".
  19:../DaisyExamples/DaisySP//Source/Utility/port.h **** 
  20:../DaisyExamples/DaisySP//Source/Utility/port.h **** Original Author(s): Robbin Whittle, John ffitch
  21:../DaisyExamples/DaisySP//Source/Utility/port.h **** 
  22:../DaisyExamples/DaisySP//Source/Utility/port.h **** Year: 1995, 1998
  23:../DaisyExamples/DaisySP//Source/Utility/port.h **** 
  24:../DaisyExamples/DaisySP//Source/Utility/port.h **** Location: Opcodes/biquad.c
  25:../DaisyExamples/DaisySP//Source/Utility/port.h **** */
  26:../DaisyExamples/DaisySP//Source/Utility/port.h **** class Port
  27:../DaisyExamples/DaisySP//Source/Utility/port.h **** {
  28:../DaisyExamples/DaisySP//Source/Utility/port.h ****   public:
  29:../DaisyExamples/DaisySP//Source/Utility/port.h ****     Port() {}
  30:../DaisyExamples/DaisySP//Source/Utility/port.h ****     ~Port() {}
 174              		.loc 10 30 5 is_stmt 1 view -0
 175              		.cfi_startproc
 176              		@ args = 0, pretend = 0, frame = 0
 177              		@ frame_needed = 0, uses_anonymous_args = 0
 178              		@ link register save eliminated.
 179              		.loc 10 30 14 is_stmt 0 view .LVU19
 180 0000 7047     		bx	lr
 181              		.cfi_endproc
 182              	.LFE4768:
 184              		.weak	_ZN7daisysp4PortD1Ev
 185              		.thumb_set _ZN7daisysp4PortD1Ev,_ZN7daisysp4PortD2Ev
 186 0002 00BF     		.section	.text.__tcf_0,"ax",%progbits
 187              		.align	1
 188              		.p2align 2,,3
 189              		.syntax unified
 190              		.thumb
 191              		.thumb_func
 193              	__tcf_0:
 194              	.LFB5419:
 195              		.file 11 "source.cpp"
   1:source.cpp    **** #include "daisy_seed.h"
   2:source.cpp    **** #include "daisysp.h"
   3:source.cpp    **** #include "magictape_lib.h"
   4:source.cpp    **** #include "BowBox.h"
   5:source.cpp    **** 
   6:source.cpp    **** constexpr u_int8_t NUM_BOWLS = 6;
   7:source.cpp    **** 
   8:source.cpp    **** 
   9:source.cpp    **** using namespace daisy;
  10:source.cpp    **** using namespace daisysp;
  11:source.cpp    **** 
  12:source.cpp    **** DaisySeed hw;
  13:source.cpp    **** BowedString Bowls[NUM_BOWLS];
 196              		.loc 11 13 13 is_stmt 1 view -0
 197              		.cfi_startproc
ARM GAS  /var/folders/1p/hl98tgf51p19ck4ldyh6xb6c0000gn/T//cc56AY3v.s 			page 12


 198              		@ args = 0, pretend = 0, frame = 0
 199              		@ frame_needed = 0, uses_anonymous_args = 0
 200              		@ link register save eliminated.
 201              		.loc 11 13 13 is_stmt 0 view .LVU21
 202 0000 7047     		bx	lr
 203              		.cfi_endproc
 204              	.LFE5419:
 206 0002 00BF     		.section	.text._ZN5daisy6Mpr121INS_18Mpr121I2CTransportEED2Ev,"axG",%progbits,_ZN5daisy6Mpr121INS_
 207              		.align	1
 208              		.p2align 2,,3
 209              		.weak	_ZN5daisy6Mpr121INS_18Mpr121I2CTransportEED2Ev
 210              		.syntax unified
 211              		.thumb
 212              		.thumb_func
 214              	_ZN5daisy6Mpr121INS_18Mpr121I2CTransportEED2Ev:
 215              	.LVL6:
 216              	.LFB5424:
 217              		.file 12 "../DaisyExamples/libDaisy//src/dev/mpr121.h"
   1:../DaisyExamples/libDaisy//src/dev/mpr121.h **** #pragma once
   2:../DaisyExamples/libDaisy//src/dev/mpr121.h **** #ifndef DSY_MPR121_H
   3:../DaisyExamples/libDaisy//src/dev/mpr121.h **** #define DSY_MPR121_H
   4:../DaisyExamples/libDaisy//src/dev/mpr121.h **** 
   5:../DaisyExamples/libDaisy//src/dev/mpr121.h **** // The default I2C address
   6:../DaisyExamples/libDaisy//src/dev/mpr121.h **** #define MPR121_I2CADDR_DEFAULT 0x5A        ///< default I2C address
   7:../DaisyExamples/libDaisy//src/dev/mpr121.h **** #define MPR121_TOUCH_THRESHOLD_DEFAULT 12  ///< default touch threshold value
   8:../DaisyExamples/libDaisy//src/dev/mpr121.h **** #define MPR121_RELEASE_THRESHOLD_DEFAULT 6 ///< default relese threshold value
   9:../DaisyExamples/libDaisy//src/dev/mpr121.h **** 
  10:../DaisyExamples/libDaisy//src/dev/mpr121.h **** namespace daisy
  11:../DaisyExamples/libDaisy//src/dev/mpr121.h **** {
  12:../DaisyExamples/libDaisy//src/dev/mpr121.h **** /** @addtogroup external 
  13:../DaisyExamples/libDaisy//src/dev/mpr121.h ****     @{ 
  14:../DaisyExamples/libDaisy//src/dev/mpr121.h **** */
  15:../DaisyExamples/libDaisy//src/dev/mpr121.h **** 
  16:../DaisyExamples/libDaisy//src/dev/mpr121.h **** /** I2C Transport for MPR121 */
  17:../DaisyExamples/libDaisy//src/dev/mpr121.h **** class Mpr121I2CTransport
  18:../DaisyExamples/libDaisy//src/dev/mpr121.h **** {
  19:../DaisyExamples/libDaisy//src/dev/mpr121.h ****   public:
  20:../DaisyExamples/libDaisy//src/dev/mpr121.h ****     Mpr121I2CTransport() {}
  21:../DaisyExamples/libDaisy//src/dev/mpr121.h ****     ~Mpr121I2CTransport() {}
  22:../DaisyExamples/libDaisy//src/dev/mpr121.h **** 
  23:../DaisyExamples/libDaisy//src/dev/mpr121.h ****     struct Config
  24:../DaisyExamples/libDaisy//src/dev/mpr121.h ****     {
  25:../DaisyExamples/libDaisy//src/dev/mpr121.h ****         I2CHandle::Config::Peripheral periph;
  26:../DaisyExamples/libDaisy//src/dev/mpr121.h ****         I2CHandle::Config::Speed      speed;
  27:../DaisyExamples/libDaisy//src/dev/mpr121.h ****         Pin                           scl;
  28:../DaisyExamples/libDaisy//src/dev/mpr121.h ****         Pin                           sda;
  29:../DaisyExamples/libDaisy//src/dev/mpr121.h **** 
  30:../DaisyExamples/libDaisy//src/dev/mpr121.h ****         I2CHandle::Config::Mode mode;
  31:../DaisyExamples/libDaisy//src/dev/mpr121.h **** 
  32:../DaisyExamples/libDaisy//src/dev/mpr121.h ****         uint8_t dev_addr;
  33:../DaisyExamples/libDaisy//src/dev/mpr121.h **** 
  34:../DaisyExamples/libDaisy//src/dev/mpr121.h ****         Config()
  35:../DaisyExamples/libDaisy//src/dev/mpr121.h ****         {
  36:../DaisyExamples/libDaisy//src/dev/mpr121.h ****             periph = I2CHandle::Config::Peripheral::I2C_1;
  37:../DaisyExamples/libDaisy//src/dev/mpr121.h ****             speed  = I2CHandle::Config::Speed::I2C_400KHZ;
  38:../DaisyExamples/libDaisy//src/dev/mpr121.h **** 
  39:../DaisyExamples/libDaisy//src/dev/mpr121.h ****             scl = Pin(PORTB, 8);
ARM GAS  /var/folders/1p/hl98tgf51p19ck4ldyh6xb6c0000gn/T//cc56AY3v.s 			page 13


  40:../DaisyExamples/libDaisy//src/dev/mpr121.h ****             sda = Pin(PORTB, 9);
  41:../DaisyExamples/libDaisy//src/dev/mpr121.h **** 
  42:../DaisyExamples/libDaisy//src/dev/mpr121.h ****             dev_addr = MPR121_I2CADDR_DEFAULT;
  43:../DaisyExamples/libDaisy//src/dev/mpr121.h ****         }
  44:../DaisyExamples/libDaisy//src/dev/mpr121.h ****     };
  45:../DaisyExamples/libDaisy//src/dev/mpr121.h **** 
  46:../DaisyExamples/libDaisy//src/dev/mpr121.h ****     /** \return Did the transaction error? i.e. Return true if error, false if ok */
  47:../DaisyExamples/libDaisy//src/dev/mpr121.h ****     inline bool Init(Config config)
  48:../DaisyExamples/libDaisy//src/dev/mpr121.h ****     {
  49:../DaisyExamples/libDaisy//src/dev/mpr121.h ****         config_ = config;
  50:../DaisyExamples/libDaisy//src/dev/mpr121.h **** 
  51:../DaisyExamples/libDaisy//src/dev/mpr121.h ****         I2CHandle::Config i2c_conf;
  52:../DaisyExamples/libDaisy//src/dev/mpr121.h ****         i2c_conf.mode   = I2CHandle::Config::Mode::I2C_MASTER;
  53:../DaisyExamples/libDaisy//src/dev/mpr121.h ****         i2c_conf.periph = config.periph;
  54:../DaisyExamples/libDaisy//src/dev/mpr121.h ****         i2c_conf.speed  = config.speed;
  55:../DaisyExamples/libDaisy//src/dev/mpr121.h **** 
  56:../DaisyExamples/libDaisy//src/dev/mpr121.h ****         i2c_conf.pin_config.scl = config.scl;
  57:../DaisyExamples/libDaisy//src/dev/mpr121.h ****         i2c_conf.pin_config.sda = config.sda;
  58:../DaisyExamples/libDaisy//src/dev/mpr121.h **** 
  59:../DaisyExamples/libDaisy//src/dev/mpr121.h ****         return I2CHandle::Result::OK != i2c_.Init(i2c_conf);
  60:../DaisyExamples/libDaisy//src/dev/mpr121.h ****     }
  61:../DaisyExamples/libDaisy//src/dev/mpr121.h **** 
  62:../DaisyExamples/libDaisy//src/dev/mpr121.h ****     /** \return Did the transaction error? i.e. Return true if error, false if ok */
  63:../DaisyExamples/libDaisy//src/dev/mpr121.h ****     bool Write(uint8_t *data, uint16_t size)
  64:../DaisyExamples/libDaisy//src/dev/mpr121.h ****     {
  65:../DaisyExamples/libDaisy//src/dev/mpr121.h ****         return I2CHandle::Result::OK
  66:../DaisyExamples/libDaisy//src/dev/mpr121.h ****                != i2c_.TransmitBlocking(config_.dev_addr, data, size, 10);
  67:../DaisyExamples/libDaisy//src/dev/mpr121.h ****     }
  68:../DaisyExamples/libDaisy//src/dev/mpr121.h **** 
  69:../DaisyExamples/libDaisy//src/dev/mpr121.h ****     /** \return Did the transaction error? i.e. Return true if error, false if ok */
  70:../DaisyExamples/libDaisy//src/dev/mpr121.h ****     bool Read(uint8_t *data, uint16_t size)
  71:../DaisyExamples/libDaisy//src/dev/mpr121.h ****     {
  72:../DaisyExamples/libDaisy//src/dev/mpr121.h ****         return I2CHandle::Result::OK
  73:../DaisyExamples/libDaisy//src/dev/mpr121.h ****                != i2c_.ReceiveBlocking(config_.dev_addr, data, size, 10);
  74:../DaisyExamples/libDaisy//src/dev/mpr121.h ****     }
  75:../DaisyExamples/libDaisy//src/dev/mpr121.h **** 
  76:../DaisyExamples/libDaisy//src/dev/mpr121.h ****   private:
  77:../DaisyExamples/libDaisy//src/dev/mpr121.h ****     I2CHandle i2c_;
  78:../DaisyExamples/libDaisy//src/dev/mpr121.h ****     Config    config_;
  79:../DaisyExamples/libDaisy//src/dev/mpr121.h **** };
  80:../DaisyExamples/libDaisy//src/dev/mpr121.h **** 
  81:../DaisyExamples/libDaisy//src/dev/mpr121.h **** 
  82:../DaisyExamples/libDaisy//src/dev/mpr121.h **** /** @brief Device support for MPR121 12x Capacitive Touch Sensor
  83:../DaisyExamples/libDaisy//src/dev/mpr121.h ****     @author beserge
  84:../DaisyExamples/libDaisy//src/dev/mpr121.h ****     @date December 2021
  85:../DaisyExamples/libDaisy//src/dev/mpr121.h **** */
  86:../DaisyExamples/libDaisy//src/dev/mpr121.h **** template <typename Transport>
  87:../DaisyExamples/libDaisy//src/dev/mpr121.h **** class Mpr121
  88:../DaisyExamples/libDaisy//src/dev/mpr121.h **** {
  89:../DaisyExamples/libDaisy//src/dev/mpr121.h ****   public:
  90:../DaisyExamples/libDaisy//src/dev/mpr121.h ****     Mpr121() {}
  91:../DaisyExamples/libDaisy//src/dev/mpr121.h ****     ~Mpr121() {}
 218              		.loc 12 91 5 is_stmt 1 view -0
 219              		.cfi_startproc
 220              		@ args = 0, pretend = 0, frame = 0
 221              		@ frame_needed = 0, uses_anonymous_args = 0
 222              		@ link register save eliminated.
ARM GAS  /var/folders/1p/hl98tgf51p19ck4ldyh6xb6c0000gn/T//cc56AY3v.s 			page 14


 223              	.LBB372:
 224              	.LBI372:
  21:../DaisyExamples/libDaisy//src/dev/mpr121.h **** 
 225              		.loc 12 21 5 view .LVU23
  21:../DaisyExamples/libDaisy//src/dev/mpr121.h **** 
 226              		.loc 12 21 5 is_stmt 0 view .LVU24
 227              	.LBE372:
 228              		.loc 12 91 16 view .LVU25
 229 0000 7047     		bx	lr
 230              		.cfi_endproc
 231              	.LFE5424:
 233              		.weak	_ZN5daisy6Mpr121INS_18Mpr121I2CTransportEED1Ev
 234              		.thumb_set _ZN5daisy6Mpr121INS_18Mpr121I2CTransportEED1Ev,_ZN5daisy6Mpr121INS_18Mpr121I2CTransport
 235 0002 00BF     		.section	.text.__tcf_2,"ax",%progbits
 236              		.align	1
 237              		.p2align 2,,3
 238              		.syntax unified
 239              		.thumb
 240              		.thumb_func
 242              	__tcf_2:
 243              	.LFB5431:
 244              		.cfi_startproc
 245              		@ args = 0, pretend = 0, frame = 0
 246              		@ frame_needed = 0, uses_anonymous_args = 0
 247              		@ link register save eliminated.
 248 0000 7047     		bx	lr
 249              		.cfi_endproc
 250              	.LFE5431:
 252 0002 00BF     		.section	.text.__tcf_3,"ax",%progbits
 253              		.align	1
 254              		.p2align 2,,3
 255              		.syntax unified
 256              		.thumb
 257              		.thumb_func
 259              	__tcf_3:
 260              	.LFB5433:
 261              		.cfi_startproc
 262              		@ args = 0, pretend = 0, frame = 0
 263              		@ frame_needed = 0, uses_anonymous_args = 0
 264              		@ link register save eliminated.
 265 0000 7047     		bx	lr
 266              		.cfi_endproc
 267              	.LFE5433:
 269 0002 00BF     		.section	.text.__tcf_1,"ax",%progbits
 270              		.align	1
 271              		.p2align 2,,3
 272              		.syntax unified
 273              		.thumb
 274              		.thumb_func
 276              	__tcf_1:
 277              	.LFB5429:
 278              		.cfi_startproc
 279              		@ args = 0, pretend = 0, frame = 0
 280              		@ frame_needed = 0, uses_anonymous_args = 0
 281              		@ link register save eliminated.
 282 0000 7047     		bx	lr
 283              		.cfi_endproc
ARM GAS  /var/folders/1p/hl98tgf51p19ck4ldyh6xb6c0000gn/T//cc56AY3v.s 			page 15


 284              	.LFE5429:
 286 0002 00BF     		.section	.text._Z13AudioCallbackPKPKfPPfj,"ax",%progbits
 287              		.align	1
 288              		.p2align 2,,3
 289              		.global	_Z13AudioCallbackPKPKfPPfj
 290              		.syntax unified
 291              		.thumb
 292              		.thumb_func
 294              	_Z13AudioCallbackPKPKfPPfj:
 295              	.LVL7:
 296              	.LFB4830:
  14:source.cpp    **** Mpr121I2C TouchPads;
  15:source.cpp    **** uint16_t touchState;
  16:source.cpp    **** uint16_t touchOutL, touchOutR, lastTL, lastTR;
  17:source.cpp    **** CanonicalFirstOrderFilters allpassTest;
  18:source.cpp    **** WhiteNoise NoiseSource;
  19:source.cpp    **** Svf LowPassTable[NUM_BOWLS], LowpassOut;
  20:source.cpp    **** FilterType fType = Allpass;
  21:source.cpp    **** Oscillator SineWave;
  22:source.cpp    **** BowTable ExciterTable;
  23:source.cpp    **** Adsr simpleEnv[NUM_BOWLS];
  24:source.cpp    **** Line simpleLineL, simpleLineR;
  25:source.cpp    **** Port lPort, rPort;
  26:source.cpp    **** float lAmp, rAmp;
  27:source.cpp    **** 
  28:source.cpp    **** 
  29:source.cpp    **** float bowlFreqs[] = {110.f, 117.3f, 176, 330.f, 350.6, 392.f};
  30:source.cpp    **** Switch buttons[NUM_BOWLS];
  31:source.cpp    **** 
  32:source.cpp    **** // Easier to debounce them like this. I'd rather not use a for loop for simple logic like this
  33:source.cpp    **** void debounceButtons() {
  34:source.cpp    ****     buttons[0].Debounce();
  35:source.cpp    ****     buttons[1].Debounce();
  36:source.cpp    ****     buttons[2].Debounce();
  37:source.cpp    ****     buttons[3].Debounce();
  38:source.cpp    ****     buttons[4].Debounce();
  39:source.cpp    ****     buttons[5].Debounce();
  40:source.cpp    **** }
  41:source.cpp    **** 
  42:source.cpp    **** // Init ADSR Use for loop since it is only being used once
  43:source.cpp    **** void setADSR(float SR) {
  44:source.cpp    ****     for (auto &i: simpleEnv) {
  45:source.cpp    ****         i.Init(SR, 1);
  46:source.cpp    ****         i.SetAttackTime(0.125f);
  47:source.cpp    ****         i.SetDecayTime(0.1255f);
  48:source.cpp    ****         i.SetSustainLevel(1.f);
  49:source.cpp    ****         i.SetReleaseTime(1.f);
  50:source.cpp    ****     }
  51:source.cpp    **** }
  52:source.cpp    **** 
  53:source.cpp    **** void setSustain(u_int16_t sus) {
  54:source.cpp    ****     for (auto &i: simpleEnv) {
  55:source.cpp    ****         i.SetSustainLevel(sus);
  56:source.cpp    ****     }
  57:source.cpp    **** }
  58:source.cpp    **** 
  59:source.cpp    **** 
ARM GAS  /var/folders/1p/hl98tgf51p19ck4ldyh6xb6c0000gn/T//cc56AY3v.s 			page 16


  60:source.cpp    **** void AudioCallback(AudioHandle::InputBuffer in, AudioHandle::OutputBuffer out, size_t size) {
 297              		.loc 11 60 93 is_stmt 1 view -0
 298              		.cfi_startproc
 299              		@ args = 0, pretend = 0, frame = 16
 300              		@ frame_needed = 0, uses_anonymous_args = 0
  61:source.cpp    ****     //Debounce the buttons
  62:source.cpp    ****     debounceButtons();
 301              		.loc 11 62 5 view .LVU27
 302              	.LBB755:
 303              	.LBI755:
  33:source.cpp    ****     buttons[0].Debounce();
 304              		.loc 11 33 6 view .LVU28
 305              	.LBB756:
  34:source.cpp    ****     buttons[1].Debounce();
 306              		.loc 11 34 5 view .LVU29
 307              	.LBE756:
 308              	.LBE755:
  60:source.cpp    ****     //Debounce the buttons
 309              		.loc 11 60 93 is_stmt 0 view .LVU30
 310 0000 2DE9F04F 		push	{r4, r5, r6, r7, r8, r9, r10, fp, lr}
 311              		.cfi_def_cfa_offset 36
 312              		.cfi_offset 4, -36
 313              		.cfi_offset 5, -32
 314              		.cfi_offset 6, -28
 315              		.cfi_offset 7, -24
 316              		.cfi_offset 8, -20
 317              		.cfi_offset 9, -16
 318              		.cfi_offset 10, -12
 319              		.cfi_offset 11, -8
 320              		.cfi_offset 14, -4
 321 0004 2DED088B 		vpush.64	{d8, d9, d10, d11}
 322              		.cfi_def_cfa_offset 68
 323              		.cfi_offset 80, -68
 324              		.cfi_offset 81, -64
 325              		.cfi_offset 82, -60
 326              		.cfi_offset 83, -56
 327              		.cfi_offset 84, -52
 328              		.cfi_offset 85, -48
 329              		.cfi_offset 86, -44
 330              		.cfi_offset 87, -40
 331 0008 85B0     		sub	sp, sp, #20
 332              		.cfi_def_cfa_offset 88
 333              	.LBB759:
 334              	.LBB757:
  34:source.cpp    ****     buttons[1].Debounce();
 335              		.loc 11 34 24 view .LVU31
 336 000a 1F48     		ldr	r0, .L70
 337              	.LVL8:
  34:source.cpp    ****     buttons[1].Debounce();
 338              		.loc 11 34 24 view .LVU32
 339              	.LBE757:
 340              	.LBE759:
  60:source.cpp    ****     //Debounce the buttons
 341              		.loc 11 60 93 view .LVU33
 342 000c 1446     		mov	r4, r2
 343 000e 0392     		str	r2, [sp, #12]
 344 0010 0291     		str	r1, [sp, #8]
ARM GAS  /var/folders/1p/hl98tgf51p19ck4ldyh6xb6c0000gn/T//cc56AY3v.s 			page 17


 345              	.LBB760:
 346              	.LBB758:
  34:source.cpp    ****     buttons[1].Debounce();
 347              		.loc 11 34 24 view .LVU34
 348 0012 FFF7FEFF 		bl	_ZN5daisy6Switch8DebounceEv
 349              	.LVL9:
  35:source.cpp    ****     buttons[2].Debounce();
 350              		.loc 11 35 5 is_stmt 1 view .LVU35
  35:source.cpp    ****     buttons[2].Debounce();
 351              		.loc 11 35 24 is_stmt 0 view .LVU36
 352 0016 1D48     		ldr	r0, .L70+4
 353 0018 FFF7FEFF 		bl	_ZN5daisy6Switch8DebounceEv
 354              	.LVL10:
  36:source.cpp    ****     buttons[3].Debounce();
 355              		.loc 11 36 5 is_stmt 1 view .LVU37
  36:source.cpp    ****     buttons[3].Debounce();
 356              		.loc 11 36 24 is_stmt 0 view .LVU38
 357 001c 1C48     		ldr	r0, .L70+8
 358 001e FFF7FEFF 		bl	_ZN5daisy6Switch8DebounceEv
 359              	.LVL11:
  37:source.cpp    ****     buttons[4].Debounce();
 360              		.loc 11 37 5 is_stmt 1 view .LVU39
  37:source.cpp    ****     buttons[4].Debounce();
 361              		.loc 11 37 24 is_stmt 0 view .LVU40
 362 0022 1C48     		ldr	r0, .L70+12
 363 0024 FFF7FEFF 		bl	_ZN5daisy6Switch8DebounceEv
 364              	.LVL12:
  38:source.cpp    ****     buttons[5].Debounce();
 365              		.loc 11 38 5 is_stmt 1 view .LVU41
  38:source.cpp    ****     buttons[5].Debounce();
 366              		.loc 11 38 24 is_stmt 0 view .LVU42
 367 0028 1B48     		ldr	r0, .L70+16
 368 002a FFF7FEFF 		bl	_ZN5daisy6Switch8DebounceEv
 369              	.LVL13:
  39:source.cpp    **** }
 370              		.loc 11 39 5 is_stmt 1 view .LVU43
  39:source.cpp    **** }
 371              		.loc 11 39 24 is_stmt 0 view .LVU44
 372 002e 1B48     		ldr	r0, .L70+20
 373 0030 FFF7FEFF 		bl	_ZN5daisy6Switch8DebounceEv
 374              	.LVL14:
 375              	.LBE758:
 376              	.LBE760:
  63:source.cpp    **** 
  64:source.cpp    **** 
  65:source.cpp    ****     lAmp = float(touchOutL) * .25f;
 377              		.loc 11 65 5 is_stmt 1 view .LVU45
 378              		.loc 11 65 12 is_stmt 0 view .LVU46
 379 0034 1A4A     		ldr	r2, .L70+24
  66:source.cpp    ****     rAmp = float(touchOutR) * .25f;
 380              		.loc 11 66 12 view .LVU47
 381 0036 1B4B     		ldr	r3, .L70+28
  65:source.cpp    ****     rAmp = float(touchOutR) * .25f;
 382              		.loc 11 65 29 view .LVU48
 383 0038 F5EE006A 		vmov.f32	s13, #2.5e-1
  65:source.cpp    ****     rAmp = float(touchOutR) * .25f;
 384              		.loc 11 65 12 view .LVU49
ARM GAS  /var/folders/1p/hl98tgf51p19ck4ldyh6xb6c0000gn/T//cc56AY3v.s 			page 18


 385 003c 1288     		ldrh	r2, [r2]
 386              		.loc 11 66 12 view .LVU50
 387 003e 1B88     		ldrh	r3, [r3]
  65:source.cpp    ****     rAmp = float(touchOutR) * .25f;
 388              		.loc 11 65 12 view .LVU51
 389 0040 07EE102A 		vmov	s14, r2	@ int
 390              		.loc 11 66 12 view .LVU52
 391 0044 07EE903A 		vmov	s15, r3	@ int
  65:source.cpp    ****     rAmp = float(touchOutR) * .25f;
 392              		.loc 11 65 10 view .LVU53
 393 0048 174B     		ldr	r3, .L70+32
  65:source.cpp    ****     rAmp = float(touchOutR) * .25f;
 394              		.loc 11 65 12 view .LVU54
 395 004a B8EE477A 		vcvt.f32.u32	s14, s14
 396              		.loc 11 66 12 view .LVU55
 397 004e F8EE677A 		vcvt.f32.u32	s15, s15
  65:source.cpp    ****     rAmp = float(touchOutR) * .25f;
 398              		.loc 11 65 29 view .LVU56
 399 0052 27EE267A 		vmul.f32	s14, s14, s13
 400              		.loc 11 66 29 view .LVU57
 401 0056 67EEA67A 		vmul.f32	s15, s15, s13
  65:source.cpp    ****     rAmp = float(touchOutR) * .25f;
 402              		.loc 11 65 10 view .LVU58
 403 005a 83ED007A 		vstr.32	s14, [r3]
 404              		.loc 11 66 5 is_stmt 1 view .LVU59
 405              		.loc 11 66 10 is_stmt 0 view .LVU60
 406 005e 134B     		ldr	r3, .L70+36
 407 0060 C3ED007A 		vstr.32	s15, [r3]
  67:source.cpp    **** 
  68:source.cpp    **** 
  69:source.cpp    **** 
  70:source.cpp    ****     for (size_t i = 0; i < size; i++) {
 408              		.loc 11 70 5 is_stmt 1 view .LVU61
 409              	.LVL15:
 410              	.LBB761:
 411              		.loc 11 70 26 view .LVU62
 412 0064 002C     		cmp	r4, #0
 413 0066 01F0B987 		beq	.L13
 414 006a 114E     		ldr	r6, .L70+40
 415              		.loc 11 70 17 is_stmt 0 view .LVU63
 416 006c 0023     		movs	r3, #0
 417 006e 06F51049 		add	r9, r6, #36864
 418 0072 06F57048 		add	r8, r6, #61440
 419 0076 06F5A837 		add	r7, r6, #86016
 420 007a 06F57835 		add	r5, r6, #253952
 421 007e 06F58824 		add	r4, r6, #278528
 422              	.LVL16:
 423              		.loc 11 70 17 view .LVU64
 424 0082 0093     		str	r3, [sp]
 425 0084 01F04DBE 		b	.L39
 426              	.L71:
 427              		.align	2
 428              	.L70:
 429 0088 00000000 		.word	.LANCHOR0
 430 008c 10000000 		.word	.LANCHOR0+16
 431 0090 20000000 		.word	.LANCHOR0+32
 432 0094 30000000 		.word	.LANCHOR0+48
ARM GAS  /var/folders/1p/hl98tgf51p19ck4ldyh6xb6c0000gn/T//cc56AY3v.s 			page 19


 433 0098 40000000 		.word	.LANCHOR0+64
 434 009c 50000000 		.word	.LANCHOR0+80
 435 00a0 00000000 		.word	.LANCHOR2
 436 00a4 00000000 		.word	.LANCHOR4
 437 00a8 00000000 		.word	.LANCHOR1
 438 00ac 00000000 		.word	.LANCHOR3
 439 00b0 00000000 		.word	Bowls
 440 00b4 90C2753D 		.word	1031127696
 441 00b8 6666663F 		.word	1063675494
 442              	.LVL17:
 443              	.L69:
 444              	.LBB762:
 445              	.LBB763:
 446              	.LBB764:
 447              	.LBB765:
 448              	.LBB766:
 449              	.LBB767:
 450              	.LBB768:
 451              		.file 13 "BowBox.h"
   1:BowBox.h      **** //
   2:BowBox.h      **** // Created by Holland Sersen on 12/30/23.
   3:BowBox.h      **** //
   4:BowBox.h      **** 
   5:BowBox.h      **** #pragma once
   6:BowBox.h      **** #include "daisysp.h"
   7:BowBox.h      **** #include <cmath>
   8:BowBox.h      **** #include "CanonicalFirstOrderFilters.h"
   9:BowBox.h      **** 
  10:BowBox.h      **** using namespace daisy;
  11:BowBox.h      **** using namespace daisysp;
  12:BowBox.h      **** 
  13:BowBox.h      **** float friction_curve(float staticFriction, float dynamicFriction, float initialVelocity, float rela
  14:BowBox.h      ****     float totalVelocity = (initialVelocity + relativeVelocity);
  15:BowBox.h      ****     if (totalVelocity == 0)
  16:BowBox.h      ****         return 0;
  17:BowBox.h      ****     else
  18:BowBox.h      ****         return (dynamicFriction + ((staticFriction - dynamicFriction) * initialVelocity) / totalVel
 452              		.loc 13 18 9 is_stmt 1 view .LVU65
 453              		.loc 13 18 71 is_stmt 0 view .LVU66
 454 00bc 5FED037A 		vldr.32	s15, .L70+44
 455              		.loc 13 18 105 view .LVU67
 456 00c0 1FED036A 		vldr.32	s12, .L70+48
 457              	.LVL18:
 458              		.loc 13 18 71 view .LVU68
 459 00c4 66EEA76A 		vmul.f32	s13, s13, s15
 460              	.LVL19:
 461              		.loc 13 18 90 view .LVU69
 462 00c8 C6EE857A 		vdiv.f32	s15, s13, s10
 463              		.loc 13 18 105 view .LVU70
 464 00cc 77EE867A 		vadd.f32	s15, s15, s12
 465              	.L15:
 466              	.LVL20:
 467              		.loc 13 18 105 view .LVU71
 468              	.LBE768:
 469              	.LBE767:
 470              	.LBE766:
 471              	.LBE765:
ARM GAS  /var/folders/1p/hl98tgf51p19ck4ldyh6xb6c0000gn/T//cc56AY3v.s 			page 20


 472              	.LBB852:
 473              	.LBB853:
 474              	.LBB854:
 475              	.LBB855:
 476              		.file 14 "../DaisyExamples/DaisySP//Source/Utility/delayline.h"
   1:../DaisyExamples/DaisySP//Source/Utility/delayline.h **** #pragma once
   2:../DaisyExamples/DaisySP//Source/Utility/delayline.h **** #ifndef DSY_DELAY_H
   3:../DaisyExamples/DaisySP//Source/Utility/delayline.h **** #define DSY_DELAY_H
   4:../DaisyExamples/DaisySP//Source/Utility/delayline.h **** #include <stdlib.h>
   5:../DaisyExamples/DaisySP//Source/Utility/delayline.h **** #include <stdint.h>
   6:../DaisyExamples/DaisySP//Source/Utility/delayline.h **** namespace daisysp
   7:../DaisyExamples/DaisySP//Source/Utility/delayline.h **** {
   8:../DaisyExamples/DaisySP//Source/Utility/delayline.h **** /** Simple Delay line.
   9:../DaisyExamples/DaisySP//Source/Utility/delayline.h **** November 2019
  10:../DaisyExamples/DaisySP//Source/Utility/delayline.h **** 
  11:../DaisyExamples/DaisySP//Source/Utility/delayline.h **** Converted to Template December 2019
  12:../DaisyExamples/DaisySP//Source/Utility/delayline.h **** 
  13:../DaisyExamples/DaisySP//Source/Utility/delayline.h **** declaration example: (1 second of floats)
  14:../DaisyExamples/DaisySP//Source/Utility/delayline.h **** 
  15:../DaisyExamples/DaisySP//Source/Utility/delayline.h **** DelayLine<float, SAMPLE_RATE> del;
  16:../DaisyExamples/DaisySP//Source/Utility/delayline.h **** 
  17:../DaisyExamples/DaisySP//Source/Utility/delayline.h **** By: shensley
  18:../DaisyExamples/DaisySP//Source/Utility/delayline.h **** */
  19:../DaisyExamples/DaisySP//Source/Utility/delayline.h **** template <typename T, size_t max_size>
  20:../DaisyExamples/DaisySP//Source/Utility/delayline.h **** class DelayLine
  21:../DaisyExamples/DaisySP//Source/Utility/delayline.h **** {
  22:../DaisyExamples/DaisySP//Source/Utility/delayline.h ****   public:
  23:../DaisyExamples/DaisySP//Source/Utility/delayline.h ****     DelayLine() {}
  24:../DaisyExamples/DaisySP//Source/Utility/delayline.h ****     ~DelayLine() {}
  25:../DaisyExamples/DaisySP//Source/Utility/delayline.h ****     /** initializes the delay line by clearing the values within, and setting delay to 1 sample.
  26:../DaisyExamples/DaisySP//Source/Utility/delayline.h ****     */
  27:../DaisyExamples/DaisySP//Source/Utility/delayline.h ****     void Init() { Reset(); }
  28:../DaisyExamples/DaisySP//Source/Utility/delayline.h ****     /** clears buffer, sets write ptr to 0, and delay to 1 sample.
  29:../DaisyExamples/DaisySP//Source/Utility/delayline.h ****     */
  30:../DaisyExamples/DaisySP//Source/Utility/delayline.h ****     void Reset()
  31:../DaisyExamples/DaisySP//Source/Utility/delayline.h ****     {
  32:../DaisyExamples/DaisySP//Source/Utility/delayline.h ****         for(size_t i = 0; i < max_size; i++)
  33:../DaisyExamples/DaisySP//Source/Utility/delayline.h ****         {
  34:../DaisyExamples/DaisySP//Source/Utility/delayline.h ****             line_[i] = T(0);
  35:../DaisyExamples/DaisySP//Source/Utility/delayline.h ****         }
  36:../DaisyExamples/DaisySP//Source/Utility/delayline.h ****         write_ptr_ = 0;
  37:../DaisyExamples/DaisySP//Source/Utility/delayline.h ****         delay_     = 1;
  38:../DaisyExamples/DaisySP//Source/Utility/delayline.h ****     }
  39:../DaisyExamples/DaisySP//Source/Utility/delayline.h **** 
  40:../DaisyExamples/DaisySP//Source/Utility/delayline.h ****     /** sets the delay time in samples
  41:../DaisyExamples/DaisySP//Source/Utility/delayline.h ****         If a float is passed in, a fractional component will be calculated for interpolating the de
  42:../DaisyExamples/DaisySP//Source/Utility/delayline.h ****     */
  43:../DaisyExamples/DaisySP//Source/Utility/delayline.h ****     inline void SetDelay(size_t delay)
  44:../DaisyExamples/DaisySP//Source/Utility/delayline.h ****     {
  45:../DaisyExamples/DaisySP//Source/Utility/delayline.h ****         frac_  = 0.0f;
  46:../DaisyExamples/DaisySP//Source/Utility/delayline.h ****         delay_ = delay < max_size ? delay : max_size - 1;
  47:../DaisyExamples/DaisySP//Source/Utility/delayline.h ****     }
  48:../DaisyExamples/DaisySP//Source/Utility/delayline.h **** 
  49:../DaisyExamples/DaisySP//Source/Utility/delayline.h ****     /** sets the delay time in samples
  50:../DaisyExamples/DaisySP//Source/Utility/delayline.h ****         If a float is passed in, a fractional component will be calculated for interpolating the de
  51:../DaisyExamples/DaisySP//Source/Utility/delayline.h ****     */
  52:../DaisyExamples/DaisySP//Source/Utility/delayline.h ****     inline void SetDelay(float delay)
ARM GAS  /var/folders/1p/hl98tgf51p19ck4ldyh6xb6c0000gn/T//cc56AY3v.s 			page 21


  53:../DaisyExamples/DaisySP//Source/Utility/delayline.h ****     {
  54:../DaisyExamples/DaisySP//Source/Utility/delayline.h ****         int32_t int_delay = static_cast<int32_t>(delay);
  55:../DaisyExamples/DaisySP//Source/Utility/delayline.h ****         frac_             = delay - static_cast<float>(int_delay);
  56:../DaisyExamples/DaisySP//Source/Utility/delayline.h ****         delay_ = static_cast<size_t>(int_delay) < max_size ? int_delay
  57:../DaisyExamples/DaisySP//Source/Utility/delayline.h ****                                                            : max_size - 1;
  58:../DaisyExamples/DaisySP//Source/Utility/delayline.h ****     }
  59:../DaisyExamples/DaisySP//Source/Utility/delayline.h **** 
  60:../DaisyExamples/DaisySP//Source/Utility/delayline.h ****     /** writes the sample of type T to the delay line, and advances the write ptr
  61:../DaisyExamples/DaisySP//Source/Utility/delayline.h ****     */
  62:../DaisyExamples/DaisySP//Source/Utility/delayline.h ****     inline void Write(const T sample)
  63:../DaisyExamples/DaisySP//Source/Utility/delayline.h ****     {
  64:../DaisyExamples/DaisySP//Source/Utility/delayline.h ****         line_[write_ptr_] = sample;
 477              		.loc 14 64 15 view .LVU72
 478 00d0 F24B     		ldr	r3, .L72
 479              	.LBE855:
 480              	.LBE854:
 481              	.LBE853:
 482              	.LBE852:
 483              	.LBB961:
 484              	.LBB847:
  19:BowBox.h      **** }
  20:BowBox.h      **** 
  21:BowBox.h      **** template <typename T, size_t max_size>
  22:BowBox.h      **** class FractionalDelay  {
  23:BowBox.h      ****     float delayLength = 0.0f;
  24:BowBox.h      ****     float M = 0.0f;
  25:BowBox.h      ****     float frac = 0.0f;
  26:BowBox.h      **** 
  27:BowBox.h      **** public:
  28:BowBox.h      ****     void Init(){
  29:BowBox.h      **** 
  30:BowBox.h      ****     }
  31:BowBox.h      **** };
  32:BowBox.h      **** 
  33:BowBox.h      **** class ResonantBandpass{
  34:BowBox.h      ****     float sampleRate;
  35:BowBox.h      ****     float frequency;
  36:BowBox.h      ****     float bandWidth;
  37:BowBox.h      **** 
  38:BowBox.h      ****     //Coefficeints
  39:BowBox.h      ****     float b_ = 0.f;
  40:BowBox.h      ****     float a1_ = 0.f;
  41:BowBox.h      ****     float a2_ = 0.f;
  42:BowBox.h      **** 
  43:BowBox.h      ****     // Last Inputs and Outputs
  44:BowBox.h      ****     float x1_ = 0.f;
  45:BowBox.h      ****     float x2_ = 0.f;
  46:BowBox.h      ****     float y1_ = 0.f;
  47:BowBox.h      ****     float y2_= 0.f;
  48:BowBox.h      **** 
  49:BowBox.h      ****     //Calculate Filter Coefficients Here
  50:BowBox.h      ****     void CalculateCoefficients() {
  51:BowBox.h      ****         const float R = 1.0f - (bandWidth / 2);
  52:BowBox.h      ****         const float omega = std::cos(frequency);
  53:BowBox.h      ****         //const float w = 2 * PI_F * frequency;
  54:BowBox.h      ****         const float theta = ((2 * R) / (1 + R * R)) * omega;
  55:BowBox.h      **** 
ARM GAS  /var/folders/1p/hl98tgf51p19ck4ldyh6xb6c0000gn/T//cc56AY3v.s 			page 22


  56:BowBox.h      ****         //Set Direct Form Filter Values
  57:BowBox.h      ****         b_ = 2 * R * theta;
  58:BowBox.h      ****         a1_ = R * R;
  59:BowBox.h      ****         a2_ = R;
  60:BowBox.h      ****     }
  61:BowBox.h      **** 
  62:BowBox.h      **** public:
  63:BowBox.h      ****     void Init(float Fs, float Freq, float Bandwidth){
  64:BowBox.h      ****         this->sampleRate = Fs;
  65:BowBox.h      ****         this->frequency = Freq;
  66:BowBox.h      ****         this->bandWidth = Bandwidth;
  67:BowBox.h      ****     }
  68:BowBox.h      **** 
  69:BowBox.h      ****     //Set Feq of Filter
  70:BowBox.h      ****     void SetFreq(float Freq){this->frequency = Freq;  CalculateCoefficients();}
  71:BowBox.h      **** 
  72:BowBox.h      ****     // Set Badnwdith of Filter
  73:BowBox.h      ****     void SetBandwidth(float BandWidth){this->bandWidth = BandWidth; CalculateCoefficients();}
  74:BowBox.h      **** 
  75:BowBox.h      ****     // Second Order Resonant Bandpass Filter
  76:BowBox.h      ****     float Process(float input){
  77:BowBox.h      ****         float output = b_ * y1_ - a1_ * y2_ - a2_ * x2_ + input;
  78:BowBox.h      **** 
  79:BowBox.h      ****         //Set Last Input Values
  80:BowBox.h      ****         x2_ = x1_;
  81:BowBox.h      ****         x1_ = input;
  82:BowBox.h      **** 
  83:BowBox.h      ****         //Set Feedback Values
  84:BowBox.h      ****         y2_ = y1_;
  85:BowBox.h      ****         y1_ = output;
  86:BowBox.h      **** 
  87:BowBox.h      ****         return output;
  88:BowBox.h      ****     }
  89:BowBox.h      **** };
  90:BowBox.h      **** 
  91:BowBox.h      **** 
  92:BowBox.h      **** class TunedWaveGuide {
  93:BowBox.h      ****     float sampleRate;
  94:BowBox.h      ****     float frequency;
  95:BowBox.h      ****     float couplingValue = 0.98f;
  96:BowBox.h      ****     float feedback = 0.0f;
  97:BowBox.h      ****     float waveSpeed = 0.0f;
  98:BowBox.h      **** 
  99:BowBox.h      ****     //Delay Line for Feedback
 100:BowBox.h      ****     //It shouldn't go over 1500 unless you go lower than 30hz
 101:BowBox.h      ****     daisysp::DelayLine<float, 1500> delayLine;
 102:BowBox.h      **** 
 103:BowBox.h      ****     //Band pass filter
 104:BowBox.h      ****     ResonantBandpass resFilt;
 105:BowBox.h      **** 
 106:BowBox.h      ****     CanonicalFirstOrderFilters allpass;
 107:BowBox.h      **** 
 108:BowBox.h      ****     Svf lowpass;
 109:BowBox.h      **** public:
 110:BowBox.h      **** 
 111:BowBox.h      ****     void setFreq(float Freq){this->frequency = Freq;
 112:BowBox.h      ****         resFilt.SetFreq(frequency);
ARM GAS  /var/folders/1p/hl98tgf51p19ck4ldyh6xb6c0000gn/T//cc56AY3v.s 			page 23


 113:BowBox.h      ****         delayLine.SetDelay(sampleRate / frequency);
 114:BowBox.h      ****         lowpass.SetFreq(Freq);
 115:BowBox.h      ****     }
 116:BowBox.h      **** 
 117:BowBox.h      ****     void setCoupling(float Couple){this->couplingValue = Couple;}
 118:BowBox.h      **** 
 119:BowBox.h      **** 
 120:BowBox.h      ****     void Init(float Fs, float Freq){
 121:BowBox.h      ****         this->sampleRate = Fs;
 122:BowBox.h      ****         this->frequency = Freq;
 123:BowBox.h      ****         this->waveSpeed = 343000.0f / this->sampleRate;
 124:BowBox.h      **** 
 125:BowBox.h      ****         FilterType tempType = Allpass;
 126:BowBox.h      **** 
 127:BowBox.h      ****         //Init Objects
 128:BowBox.h      ****         resFilt.Init(Fs, Freq, 2);
 129:BowBox.h      ****         lowpass.Init(Fs);
 130:BowBox.h      ****         lowpass.SetFreq(Freq);
 131:BowBox.h      ****         allpass.Init(Fs, tempType, frequency, 2);
 132:BowBox.h      ****         delayLine.Init();
 133:BowBox.h      ****         delayLine.SetDelay(sampleRate / frequency);
 134:BowBox.h      ****     }
 135:BowBox.h      **** 
 136:BowBox.h      ****     float Process(float input){
 137:BowBox.h      ****         // Mix Source with Feedback
 138:BowBox.h      **** //        lowpass.Process(input);
 139:BowBox.h      **** //        const float newInput = lowpass.Low();
 140:BowBox.h      **** 
 141:BowBox.h      ****         const float source = input + feedback;
 142:BowBox.h      **** 
 143:BowBox.h      ****         // Get the Allpass output from Input
 144:BowBox.h      ****         //const float allpassOut = allpass.Process(source);
 145:BowBox.h      **** 
 146:BowBox.h      ****         // Calculate BandPass Out
 147:BowBox.h      ****         float bandpassOut = resFilt.Process(source);
 148:BowBox.h      **** 
 149:BowBox.h      ****         // Write Bandpass to Delay Line
 150:BowBox.h      ****         delayLine.Write(bandpassOut);
 151:BowBox.h      **** 
 152:BowBox.h      ****         //Get Output from delay line
 153:BowBox.h      ****         float output = delayLine.Read();
 154:BowBox.h      **** 
 155:BowBox.h      ****         // TODO: Fix this. Currently the friction properties sound like a bow on a bowl and is stil
 156:BowBox.h      ****         couplingValue = friction_curve(0.96f, 0.9f, abs(input) * waveSpeed, abs(input + output) * w
 157:BowBox.h      **** 
 158:BowBox.h      ****         // Calculate feedback output
 159:BowBox.h      ****         feedback = output * couplingValue;
 485              		.loc 13 159 27 view .LVU73
 486 00d2 67EE876A 		vmul.f32	s13, s15, s14
 156:BowBox.h      **** 
 487              		.loc 13 156 23 view .LVU74
 488 00d6 C6ED057A 		vstr.32	s15, [r6, #20]
 489              		.loc 13 159 9 is_stmt 1 view .LVU75
 490              	.LBE847:
 491              	.LBE961:
 492              	.LBB962:
 493              	.LBB952:
ARM GAS  /var/folders/1p/hl98tgf51p19ck4ldyh6xb6c0000gn/T//cc56AY3v.s 			page 24


 494              	.LBB870:
 495              	.LBB871:
 496              		.file 15 "/Applications/ARM/arm-none-eabi/include/c++/10.3.1/bits/std_abs.h"
   1:/Applications/ARM/arm-none-eabi/include/c++/10.3.1/bits/std_abs.h **** // -*- C++ -*- C library enhancements header.
   2:/Applications/ARM/arm-none-eabi/include/c++/10.3.1/bits/std_abs.h **** 
   3:/Applications/ARM/arm-none-eabi/include/c++/10.3.1/bits/std_abs.h **** // Copyright (C) 2016-2020 Free Software Foundation, Inc.
   4:/Applications/ARM/arm-none-eabi/include/c++/10.3.1/bits/std_abs.h **** //
   5:/Applications/ARM/arm-none-eabi/include/c++/10.3.1/bits/std_abs.h **** // This file is part of the GNU ISO C++ Library.  This library is free
   6:/Applications/ARM/arm-none-eabi/include/c++/10.3.1/bits/std_abs.h **** // software; you can redistribute it and/or modify it under the
   7:/Applications/ARM/arm-none-eabi/include/c++/10.3.1/bits/std_abs.h **** // terms of the GNU General Public License as published by the
   8:/Applications/ARM/arm-none-eabi/include/c++/10.3.1/bits/std_abs.h **** // Free Software Foundation; either version 3, or (at your option)
   9:/Applications/ARM/arm-none-eabi/include/c++/10.3.1/bits/std_abs.h **** // any later version.
  10:/Applications/ARM/arm-none-eabi/include/c++/10.3.1/bits/std_abs.h **** 
  11:/Applications/ARM/arm-none-eabi/include/c++/10.3.1/bits/std_abs.h **** // This library is distributed in the hope that it will be useful,
  12:/Applications/ARM/arm-none-eabi/include/c++/10.3.1/bits/std_abs.h **** // but WITHOUT ANY WARRANTY; without even the implied warranty of
  13:/Applications/ARM/arm-none-eabi/include/c++/10.3.1/bits/std_abs.h **** // MERCHANTABILITY or FITNESS FOR A PARTICULAR PURPOSE.  See the
  14:/Applications/ARM/arm-none-eabi/include/c++/10.3.1/bits/std_abs.h **** // GNU General Public License for more details.
  15:/Applications/ARM/arm-none-eabi/include/c++/10.3.1/bits/std_abs.h **** 
  16:/Applications/ARM/arm-none-eabi/include/c++/10.3.1/bits/std_abs.h **** // Under Section 7 of GPL version 3, you are granted additional
  17:/Applications/ARM/arm-none-eabi/include/c++/10.3.1/bits/std_abs.h **** // permissions described in the GCC Runtime Library Exception, version
  18:/Applications/ARM/arm-none-eabi/include/c++/10.3.1/bits/std_abs.h **** // 3.1, as published by the Free Software Foundation.
  19:/Applications/ARM/arm-none-eabi/include/c++/10.3.1/bits/std_abs.h **** 
  20:/Applications/ARM/arm-none-eabi/include/c++/10.3.1/bits/std_abs.h **** // You should have received a copy of the GNU General Public License and
  21:/Applications/ARM/arm-none-eabi/include/c++/10.3.1/bits/std_abs.h **** // a copy of the GCC Runtime Library Exception along with this program;
  22:/Applications/ARM/arm-none-eabi/include/c++/10.3.1/bits/std_abs.h **** // see the files COPYING3 and COPYING.RUNTIME respectively.  If not, see
  23:/Applications/ARM/arm-none-eabi/include/c++/10.3.1/bits/std_abs.h **** // <http://www.gnu.org/licenses/>.
  24:/Applications/ARM/arm-none-eabi/include/c++/10.3.1/bits/std_abs.h **** 
  25:/Applications/ARM/arm-none-eabi/include/c++/10.3.1/bits/std_abs.h **** /** @file include/bits/std_abs.h
  26:/Applications/ARM/arm-none-eabi/include/c++/10.3.1/bits/std_abs.h ****  *  This is an internal header file, included by other library headers.
  27:/Applications/ARM/arm-none-eabi/include/c++/10.3.1/bits/std_abs.h ****  *  Do not attempt to use it directly. @headername{cmath, cstdlib}
  28:/Applications/ARM/arm-none-eabi/include/c++/10.3.1/bits/std_abs.h ****  */
  29:/Applications/ARM/arm-none-eabi/include/c++/10.3.1/bits/std_abs.h **** 
  30:/Applications/ARM/arm-none-eabi/include/c++/10.3.1/bits/std_abs.h **** #ifndef _GLIBCXX_BITS_STD_ABS_H
  31:/Applications/ARM/arm-none-eabi/include/c++/10.3.1/bits/std_abs.h **** #define _GLIBCXX_BITS_STD_ABS_H
  32:/Applications/ARM/arm-none-eabi/include/c++/10.3.1/bits/std_abs.h **** 
  33:/Applications/ARM/arm-none-eabi/include/c++/10.3.1/bits/std_abs.h **** #pragma GCC system_header
  34:/Applications/ARM/arm-none-eabi/include/c++/10.3.1/bits/std_abs.h **** 
  35:/Applications/ARM/arm-none-eabi/include/c++/10.3.1/bits/std_abs.h **** #include <bits/c++config.h>
  36:/Applications/ARM/arm-none-eabi/include/c++/10.3.1/bits/std_abs.h **** 
  37:/Applications/ARM/arm-none-eabi/include/c++/10.3.1/bits/std_abs.h **** #define _GLIBCXX_INCLUDE_NEXT_C_HEADERS
  38:/Applications/ARM/arm-none-eabi/include/c++/10.3.1/bits/std_abs.h **** #include_next <stdlib.h>
  39:/Applications/ARM/arm-none-eabi/include/c++/10.3.1/bits/std_abs.h **** #ifdef __CORRECT_ISO_CPP_MATH_H_PROTO
  40:/Applications/ARM/arm-none-eabi/include/c++/10.3.1/bits/std_abs.h **** # include_next <math.h>
  41:/Applications/ARM/arm-none-eabi/include/c++/10.3.1/bits/std_abs.h **** #endif
  42:/Applications/ARM/arm-none-eabi/include/c++/10.3.1/bits/std_abs.h **** #undef _GLIBCXX_INCLUDE_NEXT_C_HEADERS
  43:/Applications/ARM/arm-none-eabi/include/c++/10.3.1/bits/std_abs.h **** 
  44:/Applications/ARM/arm-none-eabi/include/c++/10.3.1/bits/std_abs.h **** #undef abs
  45:/Applications/ARM/arm-none-eabi/include/c++/10.3.1/bits/std_abs.h **** 
  46:/Applications/ARM/arm-none-eabi/include/c++/10.3.1/bits/std_abs.h **** extern "C++"
  47:/Applications/ARM/arm-none-eabi/include/c++/10.3.1/bits/std_abs.h **** {
  48:/Applications/ARM/arm-none-eabi/include/c++/10.3.1/bits/std_abs.h **** namespace std _GLIBCXX_VISIBILITY(default)
  49:/Applications/ARM/arm-none-eabi/include/c++/10.3.1/bits/std_abs.h **** {
  50:/Applications/ARM/arm-none-eabi/include/c++/10.3.1/bits/std_abs.h **** _GLIBCXX_BEGIN_NAMESPACE_VERSION
  51:/Applications/ARM/arm-none-eabi/include/c++/10.3.1/bits/std_abs.h **** 
  52:/Applications/ARM/arm-none-eabi/include/c++/10.3.1/bits/std_abs.h ****   using ::abs;
  53:/Applications/ARM/arm-none-eabi/include/c++/10.3.1/bits/std_abs.h **** 
  54:/Applications/ARM/arm-none-eabi/include/c++/10.3.1/bits/std_abs.h **** #ifndef __CORRECT_ISO_CPP_STDLIB_H_PROTO
ARM GAS  /var/folders/1p/hl98tgf51p19ck4ldyh6xb6c0000gn/T//cc56AY3v.s 			page 25


  55:/Applications/ARM/arm-none-eabi/include/c++/10.3.1/bits/std_abs.h ****   inline long
  56:/Applications/ARM/arm-none-eabi/include/c++/10.3.1/bits/std_abs.h ****   abs(long __i) { return __builtin_labs(__i); }
  57:/Applications/ARM/arm-none-eabi/include/c++/10.3.1/bits/std_abs.h **** #endif
  58:/Applications/ARM/arm-none-eabi/include/c++/10.3.1/bits/std_abs.h **** 
  59:/Applications/ARM/arm-none-eabi/include/c++/10.3.1/bits/std_abs.h **** #ifdef _GLIBCXX_USE_LONG_LONG
  60:/Applications/ARM/arm-none-eabi/include/c++/10.3.1/bits/std_abs.h ****   inline long long
  61:/Applications/ARM/arm-none-eabi/include/c++/10.3.1/bits/std_abs.h ****   abs(long long __x) { return __builtin_llabs (__x); }
  62:/Applications/ARM/arm-none-eabi/include/c++/10.3.1/bits/std_abs.h **** #endif
  63:/Applications/ARM/arm-none-eabi/include/c++/10.3.1/bits/std_abs.h **** 
  64:/Applications/ARM/arm-none-eabi/include/c++/10.3.1/bits/std_abs.h **** // _GLIBCXX_RESOLVE_LIB_DEFECTS
  65:/Applications/ARM/arm-none-eabi/include/c++/10.3.1/bits/std_abs.h **** // 2192. Validity and return type of std::abs(0u) is unclear
  66:/Applications/ARM/arm-none-eabi/include/c++/10.3.1/bits/std_abs.h **** // 2294. <cstdlib> should declare abs(double)
  67:/Applications/ARM/arm-none-eabi/include/c++/10.3.1/bits/std_abs.h **** // 2735. std::abs(short), std::abs(signed char) and others should return int
  68:/Applications/ARM/arm-none-eabi/include/c++/10.3.1/bits/std_abs.h **** 
  69:/Applications/ARM/arm-none-eabi/include/c++/10.3.1/bits/std_abs.h **** #ifndef __CORRECT_ISO_CPP_MATH_H_PROTO
  70:/Applications/ARM/arm-none-eabi/include/c++/10.3.1/bits/std_abs.h ****   inline _GLIBCXX_CONSTEXPR double
  71:/Applications/ARM/arm-none-eabi/include/c++/10.3.1/bits/std_abs.h ****   abs(double __x)
  72:/Applications/ARM/arm-none-eabi/include/c++/10.3.1/bits/std_abs.h ****   { return __builtin_fabs(__x); }
  73:/Applications/ARM/arm-none-eabi/include/c++/10.3.1/bits/std_abs.h **** 
  74:/Applications/ARM/arm-none-eabi/include/c++/10.3.1/bits/std_abs.h ****   inline _GLIBCXX_CONSTEXPR float
  75:/Applications/ARM/arm-none-eabi/include/c++/10.3.1/bits/std_abs.h ****   abs(float __x)
  76:/Applications/ARM/arm-none-eabi/include/c++/10.3.1/bits/std_abs.h ****   { return __builtin_fabsf(__x); }
 497              		.loc 15 76 31 is_stmt 0 view .LVU76
 498 00da B0EEC76A 		vabs.f32	s12, s14
 499              	.LBE871:
 500              	.LBE870:
 501              	.LBB873:
 502              	.LBB874:
  77:BowBox.h      **** 
 503              		.loc 13 77 41 view .LVU77
 504 00de 03F58050 		add	r0, r3, #4096
 505              	.LBE874:
 506              	.LBE873:
 507              	.LBB890:
 508              	.LBB856:
 509              		.loc 14 64 15 view .LVU78
 510 00e2 D3F85C18 		ldr	r1, [r3, #2140]
 511              	.LBE856:
 512              	.LBE890:
 513              	.LBE952:
 514              	.LBE962:
 515              	.LBB963:
 516              	.LBB848:
 517              		.loc 13 159 18 view .LVU79
 518 00e6 C6ED066A 		vstr.32	s13, [r6, #24]
 160:BowBox.h      **** 
 161:BowBox.h      ****         return output;
 519              		.loc 13 161 9 is_stmt 1 view .LVU80
 520              	.LVL21:
 521              		.loc 13 161 9 is_stmt 0 view .LVU81
 522              	.LBE848:
 523              	.LBE963:
 162:BowBox.h      ****     }
 163:BowBox.h      **** };
 164:BowBox.h      **** 
 165:BowBox.h      **** class BowedString {
 166:BowBox.h      **** // Init Values
ARM GAS  /var/folders/1p/hl98tgf51p19ck4ldyh6xb6c0000gn/T//cc56AY3v.s 			page 26


 167:BowBox.h      ****     float sampleRate = 0.0f;
 168:BowBox.h      ****     float frequency = 0.0f;
 169:BowBox.h      ****     float beats = 0.0f;
 170:BowBox.h      **** 
 171:BowBox.h      ****     // Init the tuned waveguides
 172:BowBox.h      ****     TunedWaveGuide under_modals[4], over_modals[4];
 173:BowBox.h      **** 
 174:BowBox.h      **** public:
 175:BowBox.h      ****     void inline Init(float Fs, float Freq, float Beats){
 176:BowBox.h      ****         this->sampleRate = Fs;
 177:BowBox.h      ****         this->frequency = Freq;
 178:BowBox.h      ****         this->beats = Beats;
 179:BowBox.h      **** 
 180:BowBox.h      ****         // Init Modals
 181:BowBox.h      ****         for (int i = 0; i < 3; i++) {
 182:BowBox.h      ****             under_modals[i].Init(this->sampleRate, Freq + Beats);
 183:BowBox.h      ****             over_modals[i].Init(this->sampleRate, Freq - Beats);
 184:BowBox.h      ****         }
 185:BowBox.h      ****     }
 186:BowBox.h      **** 
 187:BowBox.h      ****     void inline setFreqs(float Freq, float Beats){
 188:BowBox.h      ****         this->frequency = Freq;
 189:BowBox.h      ****         this->beats = Beats;
 190:BowBox.h      **** 
 191:BowBox.h      ****         for (int i = 0; i < 3; i++) {
 192:BowBox.h      ****             under_modals[i].setFreq(frequency + beats);
 193:BowBox.h      ****             over_modals[i].setFreq(frequency - beats);
 194:BowBox.h      ****         }
 195:BowBox.h      ****     }
 196:BowBox.h      **** 
 197:BowBox.h      ****     inline float getFrequency() const{return this->frequency;}
 198:BowBox.h      **** 
 199:BowBox.h      ****     inline float getBeats() const{return this->beats;}
 200:BowBox.h      **** 
 201:BowBox.h      ****     inline float Process(float input){
 202:BowBox.h      ****         // Process first delay line with input
 203:BowBox.h      ****         float under_output = under_modals[0].Process(input);
 204:BowBox.h      ****         under_output += under_modals[1].Process(under_output) * -1.0f;
 524              		.loc 13 204 9 is_stmt 1 view .LVU82
 525              	.LBB964:
 526              	.LBI852:
 136:BowBox.h      ****         // Mix Source with Feedback
 527              		.loc 13 136 11 view .LVU83
 528              	.LBB953:
 141:BowBox.h      **** 
 529              		.loc 13 141 9 view .LVU84
 530              	.LBB891:
 531              	.LBB875:
  77:BowBox.h      **** 
 532              		.loc 13 77 41 is_stmt 0 view .LVU85
 533 00ea 00F6F873 		addw	r3, r0, #4088
  77:BowBox.h      **** 
 534              		.loc 13 77 35 view .LVU86
 535 00ee 00F6E472 		addw	r2, r0, #4068
  77:BowBox.h      **** 
 536              		.loc 13 77 29 view .LVU87
 537 00f2 00F6F47A 		addw	r10, r0, #4084
ARM GAS  /var/folders/1p/hl98tgf51p19ck4ldyh6xb6c0000gn/T//cc56AY3v.s 			page 27


 538              	.LBE875:
 539              	.LBE891:
 540              	.LBB892:
 541              	.LBB857:
  65:../DaisyExamples/DaisySP//Source/Utility/delayline.h ****         write_ptr_        = (write_ptr_ - 1 + max_size) % max_size;
 542              		.loc 14 65 45 view .LVU88
 543 00f6 01F2DB5E 		addw	lr, r1, #1499
 544              	.LBE857:
 545              	.LBE892:
 546              	.LBB893:
 547              	.LBB876:
  77:BowBox.h      **** 
 548              		.loc 13 77 39 view .LVU89
 549 00fa D2ED006A 		vldr.32	s13, [r2]
 550 00fe D3ED007A 		vldr.32	s15, [r3]
 551              	.LBE876:
 552              	.LBE893:
 553              	.LBB894:
 554              	.LBB858:
 555              		.loc 14 65 57 view .LVU90
 556 0102 E74A     		ldr	r2, .L72+4
 557              	.LBE858:
 558              	.LBE894:
 559              	.LBB895:
 560              	.LBB877:
  77:BowBox.h      **** 
 561              		.loc 13 77 33 view .LVU91
 562 0104 67EEE67A 		vnmul.f32	s15, s15, s13
  77:BowBox.h      **** 
 563              		.loc 13 77 29 view .LVU92
 564 0108 DAED006A 		vldr.32	s13, [r10]
 565              	.LBE877:
 566              	.LBE895:
 567              	.LBB896:
 568              	.LBB859:
 569              		.loc 14 65 45 view .LVU93
 570 010c 0191     		str	r1, [sp, #4]
 571              	.LBE859:
 572              	.LBE896:
 573              	.LBB897:
 574              	.LBB878:
  84:BowBox.h      ****         y1_ = output;
 575              		.loc 13 84 13 view .LVU94
 576 010e C3ED006A 		vstr.32	s13, [r3]
  77:BowBox.h      **** 
 577              		.loc 13 77 24 view .LVU95
 578 0112 00F57E63 		add	r3, r0, #4064
 579              	.LBE878:
 580              	.LBE897:
 581              	.LBB898:
 582              	.LBB860:
 583              		.loc 14 65 57 view .LVU96
 584 0116 40F2DC50 		movw	r0, #1500
 585              		.loc 14 65 27 view .LVU97
 586 011a E049     		ldr	r1, .L72
 587              	.LBE860:
 588              	.LBE898:
ARM GAS  /var/folders/1p/hl98tgf51p19ck4ldyh6xb6c0000gn/T//cc56AY3v.s 			page 28


 589              	.LBB899:
 590              	.LBB879:
  77:BowBox.h      **** 
 591              		.loc 13 77 33 view .LVU98
 592 011c 93ED005A 		vldr.32	s10, [r3]
 593              	.LBE879:
 594              	.LBE899:
 595              	.LBB900:
 596              	.LBB861:
 597              		.loc 14 65 57 view .LVU99
 598 0120 A2FB0EC3 		umull	ip, r3, r2, lr
 599              	.LBE861:
 600              	.LBE900:
 601              	.LBB901:
 602              	.LBB880:
  77:BowBox.h      **** 
 603              		.loc 13 77 53 view .LVU100
 604 0124 AAF1040C 		sub	ip, r10, #4
 605              	.LBE880:
 606              	.LBE901:
 607              	.LBB902:
 608              	.LBB862:
 609              		.loc 14 65 57 view .LVU101
 610 0128 5B09     		lsrs	r3, r3, #5
 611              	.LBE862:
 612              	.LBE902:
 613              	.LBB903:
 614              	.LBB881:
  77:BowBox.h      **** 
 615              		.loc 13 77 33 view .LVU102
 616 012a E5EE267A 		vfma.f32	s15, s10, s13
  77:BowBox.h      **** 
 617              		.loc 13 77 45 view .LVU103
 618 012e DCED006A 		vldr.32	s13, [ip]
 619              	.LBE881:
 620              	.LBE903:
 621              	.LBB904:
 622              	.LBB863:
 623              		.loc 14 65 57 view .LVU104
 624 0132 00FB13E3 		mls	r3, r0, r3, lr
 625              	.LBE863:
 626              	.LBE904:
 627              	.LBB905:
 628              	.LBB882:
  77:BowBox.h      **** 
 629              		.loc 13 77 47 view .LVU105
 630 0136 AAF10C0E 		sub	lr, r10, #12
 631              	.LBE882:
 632              	.LBE905:
 633              	.LBB906:
 634              	.LBB864:
 635              		.loc 14 65 27 view .LVU106
 636 013a C1F85C38 		str	r3, [r1, #2140]
 637              	.LBE864:
 638              	.LBE906:
 639              	.LBB907:
 640              	.LBB908:
ARM GAS  /var/folders/1p/hl98tgf51p19ck4ldyh6xb6c0000gn/T//cc56AY3v.s 			page 29


  66:../DaisyExamples/DaisySP//Source/Utility/delayline.h ****     }
  67:../DaisyExamples/DaisySP//Source/Utility/delayline.h **** 
  68:../DaisyExamples/DaisySP//Source/Utility/delayline.h ****     /** returns the next sample of type T in the delay line, interpolated if necessary.
  69:../DaisyExamples/DaisySP//Source/Utility/delayline.h ****     */
  70:../DaisyExamples/DaisySP//Source/Utility/delayline.h ****     inline const T Read() const
  71:../DaisyExamples/DaisySP//Source/Utility/delayline.h ****     {
  72:../DaisyExamples/DaisySP//Source/Utility/delayline.h ****         T a = line_[(write_ptr_ + delay_) % max_size];
 641              		.loc 14 72 33 view .LVU107
 642 013e D1F86018 		ldr	r1, [r1, #2144]
 643              	.LBE908:
 644              	.LBE907:
 645              	.LBB918:
 646              	.LBB883:
  77:BowBox.h      **** 
 647              		.loc 13 77 45 view .LVU108
 648 0142 9EED005A 		vldr.32	s10, [lr]
 649              	.LBE883:
 650              	.LBE918:
 651              	.LBB919:
 652              	.LBB909:
 653              		.loc 14 72 33 view .LVU109
 654 0146 0B44     		add	r3, r3, r1
 655              	.LBE909:
 656              	.LBE919:
 657              	.LBB920:
 658              	.LBB884:
  77:BowBox.h      **** 
 659              		.loc 13 77 53 view .LVU110
 660 0148 AAF6F471 		subw	r1, r10, #4084
  77:BowBox.h      **** 
 661              		.loc 13 77 45 view .LVU111
 662 014c E5EE667A 		vfms.f32	s15, s10, s13
 663              	.LBE884:
 664              	.LBE920:
 141:BowBox.h      **** 
 665              		.loc 13 141 38 view .LVU112
 666 0150 A1F5F66B 		sub	fp, r1, #1968
 667              	.LBB921:
 668              	.LBB910:
  73:../DaisyExamples/DaisySP//Source/Utility/delayline.h ****         T b = line_[(write_ptr_ + delay_ + 1) % max_size];
 669              		.loc 14 73 42 view .LVU113
 670 0154 03F1010E 		add	lr, r3, #1
 671              	.LBE910:
 672              	.LBE921:
 141:BowBox.h      **** 
 673              		.loc 13 141 38 view .LVU114
 674 0158 A1F58051 		sub	r1, r1, #4096
 141:BowBox.h      **** 
 675              		.loc 13 141 21 view .LVU115
 676 015c DBED006A 		vldr.32	s13, [fp]
 677 0160 77EE266A 		vadd.f32	s13, s14, s13
 678              	.LVL22:
 147:BowBox.h      **** 
 679              		.loc 13 147 9 is_stmt 1 view .LVU116
 680              	.LBB922:
 681              	.LBI873:
  76:BowBox.h      ****         float output = b_ * y1_ - a1_ * y2_ - a2_ * x2_ + input;
ARM GAS  /var/folders/1p/hl98tgf51p19ck4ldyh6xb6c0000gn/T//cc56AY3v.s 			page 30


 682              		.loc 13 76 11 view .LVU117
 683              	.LBB885:
  77:BowBox.h      **** 
 684              		.loc 13 77 9 view .LVU118
  77:BowBox.h      **** 
 685              		.loc 13 77 15 is_stmt 0 view .LVU119
 686 0164 76EEA77A 		vadd.f32	s15, s13, s15
 687              	.LVL23:
  80:BowBox.h      ****         x1_ = input;
 688              		.loc 13 80 9 is_stmt 1 view .LVU120
  85:BowBox.h      **** 
 689              		.loc 13 85 13 is_stmt 0 view .LVU121
 690 0168 CAED007A 		vstr.32	s15, [r10]
 691              	.LBE885:
 692              	.LBE922:
 693              	.LBB923:
 694              	.LBB911:
  72:../DaisyExamples/DaisySP//Source/Utility/delayline.h ****         T b = line_[(write_ptr_ + delay_ + 1) % max_size];
 695              		.loc 14 72 43 view .LVU122
 696 016c A2FB03BA 		umull	fp, r10, r2, r3
 697              		.loc 14 73 47 view .LVU123
 698 0170 A2FB0EB2 		umull	fp, r2, r2, lr
 699              	.LBE911:
 700              	.LBE923:
 701              	.LBB924:
 702              	.LBB865:
  64:../DaisyExamples/DaisySP//Source/Utility/delayline.h ****         write_ptr_        = (write_ptr_ - 1 + max_size) % max_size;
 703              		.loc 14 64 27 view .LVU124
 704 0174 01F65C0B 		addw	fp, r1, #2140
 705              	.LBE865:
 706              	.LBE924:
 707              	.LBB925:
 708              	.LBB912:
  72:../DaisyExamples/DaisySP//Source/Utility/delayline.h ****         T b = line_[(write_ptr_ + delay_ + 1) % max_size];
 709              		.loc 14 72 43 view .LVU125
 710 0178 4FEA5A1A 		lsr	r10, r10, #5
 711              		.loc 14 73 47 view .LVU126
 712 017c 5209     		lsrs	r2, r2, #5
  72:../DaisyExamples/DaisySP//Source/Utility/delayline.h ****         T b = line_[(write_ptr_ + delay_ + 1) % max_size];
 713              		.loc 14 72 43 view .LVU127
 714 017e 00FB1A3A 		mls	r10, r0, r10, r3
 715              	.LBE912:
 716              	.LBE925:
 717              	.LBB926:
 718              	.LBB866:
  64:../DaisyExamples/DaisySP//Source/Utility/delayline.h ****         write_ptr_        = (write_ptr_ - 1 + max_size) % max_size;
 719              		.loc 14 64 27 view .LVU128
 720 0182 0B46     		mov	r3, r1
 721              	.LBE866:
 722              	.LBE926:
 723              	.LBB927:
 724              	.LBB913:
 725              		.loc 14 73 47 view .LVU129
 726 0184 00FB12E0 		mls	r0, r0, r2, lr
 727              	.LBE913:
 728              	.LBE927:
 729              	.LBB928:
ARM GAS  /var/folders/1p/hl98tgf51p19ck4ldyh6xb6c0000gn/T//cc56AY3v.s 			page 31


 730              	.LBB867:
  64:../DaisyExamples/DaisySP//Source/Utility/delayline.h ****         write_ptr_        = (write_ptr_ - 1 + max_size) % max_size;
 731              		.loc 14 64 27 view .LVU130
 732 0188 0199     		ldr	r1, [sp, #4]
 733              	.LBE867:
 734              	.LBE928:
 735              	.LBB929:
 736              	.LBB886:
  80:BowBox.h      ****         x1_ = input;
 737              		.loc 13 80 15 view .LVU131
 738 018a 03F58052 		add	r2, r3, #4096
 739              	.LBE886:
 740              	.LBE929:
 741              	.LBB930:
 742              	.LBB914:
  74:../DaisyExamples/DaisySP//Source/Utility/delayline.h ****         return a + (b - a) * frac_;
 743              		.loc 14 74 30 view .LVU132
 744 018e 03F65803 		addw	r3, r3, #2136
 745              	.LBE914:
 746              	.LBE930:
 747              	.LBB931:
 748              	.LBB868:
  64:../DaisyExamples/DaisySP//Source/Utility/delayline.h ****         write_ptr_        = (write_ptr_ - 1 + max_size) % max_size;
 749              		.loc 14 64 27 view .LVU133
 750 0192 0BEB8101 		add	r1, fp, r1, lsl #2
 751              	.LBE868:
 752              	.LBE931:
 753              	.LBB932:
 754              	.LBB887:
  80:BowBox.h      ****         x1_ = input;
 755              		.loc 13 80 15 view .LVU134
 756 0196 02F6EC72 		addw	r2, r2, #4076
 757              	.LBE887:
 758              	.LBE932:
 759              	.LBB933:
 760              	.LBB915:
 761              		.loc 14 74 30 view .LVU135
 762 019a 93ED005A 		vldr.32	s10, [r3]
  72:../DaisyExamples/DaisySP//Source/Utility/delayline.h ****         T b = line_[(write_ptr_ + delay_ + 1) % max_size];
 763              		.loc 14 72 11 view .LVU136
 764 019e 0BEB8A0A 		add	r10, fp, r10, lsl #2
 765              	.LBE915:
 766              	.LBE933:
 767              	.LBB934:
 768              	.LBB888:
  80:BowBox.h      ****         x1_ = input;
 769              		.loc 13 80 13 view .LVU137
 770 01a2 1368     		ldr	r3, [r2]	@ float
 771              	.LBE888:
 772              	.LBE934:
 773              	.LBB935:
 774              	.LBB916:
  73:../DaisyExamples/DaisySP//Source/Utility/delayline.h ****         return a + (b - a) * frac_;
 775              		.loc 14 73 11 view .LVU138
 776 01a4 0BEB8000 		add	r0, fp, r0, lsl #2
 777              	.LBE916:
 778              	.LBE935:
ARM GAS  /var/folders/1p/hl98tgf51p19ck4ldyh6xb6c0000gn/T//cc56AY3v.s 			page 32


 779              	.LBB936:
 780              	.LBB889:
  81:BowBox.h      **** 
 781              		.loc 13 81 13 view .LVU139
 782 01a8 C2ED006A 		vstr.32	s13, [r2]
  80:BowBox.h      ****         x1_ = input;
 783              		.loc 13 80 13 view .LVU140
 784 01ac CCF80030 		str	r3, [ip]	@ float
  81:BowBox.h      **** 
 785              		.loc 13 81 9 is_stmt 1 view .LVU141
  84:BowBox.h      ****         y1_ = output;
 786              		.loc 13 84 9 view .LVU142
  85:BowBox.h      **** 
 787              		.loc 13 85 9 view .LVU143
  87:BowBox.h      ****     }
 788              		.loc 13 87 9 view .LVU144
 789              	.LVL24:
  87:BowBox.h      ****     }
 790              		.loc 13 87 9 is_stmt 0 view .LVU145
 791              	.LBE889:
 792              	.LBE936:
 150:BowBox.h      **** 
 793              		.loc 13 150 9 is_stmt 1 view .LVU146
 794              	.LBB937:
 795              	.LBI854:
  62:../DaisyExamples/DaisySP//Source/Utility/delayline.h ****     {
 796              		.loc 14 62 17 view .LVU147
  62:../DaisyExamples/DaisySP//Source/Utility/delayline.h ****     {
 797              		.loc 14 62 17 is_stmt 0 view .LVU148
 798              	.LBE937:
 153:BowBox.h      **** 
 799              		.loc 13 153 9 is_stmt 1 view .LVU149
 800              	.LBB938:
 801              	.LBI907:
  70:../DaisyExamples/DaisySP//Source/Utility/delayline.h ****     {
 802              		.loc 14 70 20 view .LVU150
 803              	.LBE938:
 156:BowBox.h      **** 
 804              		.loc 13 156 66 is_stmt 0 view .LVU151
 805 01b0 ABF10803 		sub	r3, fp, #8
 806              	.LBB939:
 807              	.LBB869:
  64:../DaisyExamples/DaisySP//Source/Utility/delayline.h ****         write_ptr_        = (write_ptr_ - 1 + max_size) % max_size;
 808              		.loc 14 64 27 view .LVU152
 809 01b4 C1ED027A 		vstr.32	s15, [r1, #8]
 810              	.LBE869:
 811              	.LBE939:
 812              	.LBB940:
 813              	.LBB917:
  72:../DaisyExamples/DaisySP//Source/Utility/delayline.h ****         T b = line_[(write_ptr_ + delay_ + 1) % max_size];
 814              		.loc 14 72 11 view .LVU153
 815 01b8 DAED02BA 		vldr.32	s23, [r10, #8]
 816              	.LVL25:
 817              		.loc 14 74 23 view .LVU154
 818 01bc D0ED027A 		vldr.32	s15, [r0, #8]
 819              	.LVL26:
 820              		.loc 14 74 23 view .LVU155
ARM GAS  /var/folders/1p/hl98tgf51p19ck4ldyh6xb6c0000gn/T//cc56AY3v.s 			page 33


 821 01c0 77EEEB7A 		vsub.f32	s15, s15, s23
 822              		.loc 14 74 30 view .LVU156
 823 01c4 E7EE85BA 		vfma.f32	s23, s15, s10
 824              	.LVL27:
 825              		.loc 14 74 30 view .LVU157
 826              	.LBE917:
 827              	.LBE940:
 156:BowBox.h      **** 
 828              		.loc 13 156 9 is_stmt 1 view .LVU158
 829              	.LBB941:
 830              	.LBI870:
  75:/Applications/ARM/arm-none-eabi/include/c++/10.3.1/bits/std_abs.h ****   { return __builtin_fabsf(__x); }
 831              		.loc 15 75 3 view .LVU159
 832              	.LBB872:
 833              		.loc 15 76 5 view .LVU160
 834              		.loc 15 76 5 is_stmt 0 view .LVU161
 835              	.LBE872:
 836              	.LBE941:
 156:BowBox.h      **** 
 837              		.loc 13 156 66 view .LVU162
 838 01c8 93ED005A 		vldr.32	s10, [r3]
 156:BowBox.h      **** 
 839              		.loc 13 156 39 view .LVU163
 840 01cc 66EE057A 		vmul.f32	s15, s12, s10
 841              	.LVL28:
 842              	.LBB942:
 843              	.LBI942:
  75:/Applications/ARM/arm-none-eabi/include/c++/10.3.1/bits/std_abs.h ****   { return __builtin_fabsf(__x); }
 844              		.loc 15 75 3 is_stmt 1 view .LVU164
 845              	.LBB943:
 846              		.loc 15 76 5 view .LVU165
 847              		.loc 15 76 5 is_stmt 0 view .LVU166
 848              	.LBE943:
 849              	.LBE942:
 850              	.LBB945:
 851              	.LBI945:
  13:BowBox.h      ****     float totalVelocity = (initialVelocity + relativeVelocity);
 852              		.loc 13 13 7 is_stmt 1 view .LVU167
 853              	.LBB946:
  14:BowBox.h      ****     if (totalVelocity == 0)
 854              		.loc 13 14 5 view .LVU168
  14:BowBox.h      ****     if (totalVelocity == 0)
 855              		.loc 13 14 11 is_stmt 0 view .LVU169
 856 01d0 B0EE676A 		vmov.f32	s12, s15
 857              	.LBE946:
 858              	.LBE945:
 156:BowBox.h      **** 
 859              		.loc 13 156 80 view .LVU170
 860 01d4 77EE2B6A 		vadd.f32	s13, s14, s23
 861              	.LVL29:
 862              	.LBB949:
 863              	.LBB944:
 864              		.loc 15 76 31 view .LVU171
 865 01d8 F0EEE66A 		vabs.f32	s13, s13
 866              	.LBE944:
 867              	.LBE949:
 868              	.LBB950:
ARM GAS  /var/folders/1p/hl98tgf51p19ck4ldyh6xb6c0000gn/T//cc56AY3v.s 			page 34


 869              	.LBB947:
  14:BowBox.h      ****     if (totalVelocity == 0)
 870              		.loc 13 14 11 view .LVU172
 871 01dc A5EE266A 		vfma.f32	s12, s10, s13
 872              	.LVL30:
  15:BowBox.h      ****         return 0;
 873              		.loc 13 15 5 is_stmt 1 view .LVU173
 874 01e0 B5EE406A 		vcmp.f32	s12, #0
 875 01e4 F1EE10FA 		vmrs	APSR_nzcv, FPSCR
 876 01e8 01F0F486 		beq	.L41
  18:BowBox.h      **** }
 877              		.loc 13 18 9 view .LVU174
  18:BowBox.h      **** }
 878              		.loc 13 18 71 is_stmt 0 view .LVU175
 879 01ec 9FEDAD5A 		vldr.32	s10, .L72+8
 880              	.LVL31:
  18:BowBox.h      **** }
 881              		.loc 13 18 105 view .LVU176
 882 01f0 DFEDAD6A 		vldr.32	s13, .L72+12
  18:BowBox.h      **** }
 883              		.loc 13 18 71 view .LVU177
 884 01f4 67EE857A 		vmul.f32	s15, s15, s10
 885              	.LVL32:
  18:BowBox.h      **** }
 886              		.loc 13 18 90 view .LVU178
 887 01f8 87EE865A 		vdiv.f32	s10, s15, s12
  18:BowBox.h      **** }
 888              		.loc 13 18 105 view .LVU179
 889 01fc 35EE265A 		vadd.f32	s10, s10, s13
 890              	.L16:
 891              	.LVL33:
  18:BowBox.h      **** }
 892              		.loc 13 18 105 view .LVU180
 893              	.LBE947:
 894              	.LBE950:
 895              	.LBE953:
 896              	.LBE964:
 897              	.LBB965:
 898              	.LBB966:
 141:BowBox.h      **** 
 899              		.loc 13 141 21 view .LVU181
 900 0200 AA48     		ldr	r0, .L72+16
 901 0202 77EE6B6A 		vsub.f32	s13, s14, s23
 902              	.LBE966:
 903              	.LBE965:
 904              	.LBB1046:
 905              	.LBB954:
 159:BowBox.h      **** 
 906              		.loc 13 159 27 view .LVU182
 907 0206 25EE2B4A 		vmul.f32	s8, s10, s23
 908              	.LBE954:
 909              	.LBE1046:
 910              	.LBB1047:
 911              	.LBB1037:
 912              	.LBB967:
 913              	.LBB968:
  64:../DaisyExamples/DaisySP//Source/Utility/delayline.h ****         write_ptr_        = (write_ptr_ - 1 + max_size) % max_size;
ARM GAS  /var/folders/1p/hl98tgf51p19ck4ldyh6xb6c0000gn/T//cc56AY3v.s 			page 35


 914              		.loc 14 64 15 view .LVU183
 915 020a D0F80421 		ldr	r2, [r0, #260]
 916              	.LBE968:
 917              	.LBE967:
 918              	.LBB976:
 919              	.LBB977:
  77:BowBox.h      **** 
 920              		.loc 13 77 41 view .LVU184
 921 020e 00F58051 		add	r1, r0, #4096
 922              	.LVL34:
  77:BowBox.h      **** 
 923              		.loc 13 77 41 view .LVU185
 924 0212 00F5C553 		add	r3, r0, #6304
 925              	.LBE977:
 926              	.LBE976:
 156:BowBox.h      **** 
 927              		.loc 13 156 66 view .LVU186
 928 0216 D0ED3F4A 		vldr.32	s9, [r0, #252]
 929              	.LBB990:
 930              	.LBB969:
  65:../DaisyExamples/DaisySP//Source/Utility/delayline.h ****     }
 931              		.loc 14 65 45 view .LVU187
 932 021a 02F2DB5A 		addw	r10, r2, #1499
  64:../DaisyExamples/DaisySP//Source/Utility/delayline.h ****         write_ptr_        = (write_ptr_ - 1 + max_size) % max_size;
 933              		.loc 14 64 27 view .LVU188
 934 021e 00EB820C 		add	ip, r0, r2, lsl #2
 935              	.LBE969:
 936              	.LBE990:
 937              	.LBB991:
 938              	.LBB978:
  77:BowBox.h      **** 
 939              		.loc 13 77 35 view .LVU189
 940 0222 01F68C01 		addw	r1, r1, #2188
  77:BowBox.h      **** 
 941              		.loc 13 77 29 view .LVU190
 942 0226 00F58052 		add	r2, r0, #4096
  77:BowBox.h      **** 
 943              		.loc 13 77 39 view .LVU191
 944 022a D3ED007A 		vldr.32	s15, [r3]
  77:BowBox.h      **** 
 945              		.loc 13 77 24 view .LVU192
 946 022e 183B     		subs	r3, r3, #24
  77:BowBox.h      **** 
 947              		.loc 13 77 29 view .LVU193
 948 0230 02F69C02 		addw	r2, r2, #2204
  77:BowBox.h      **** 
 949              		.loc 13 77 39 view .LVU194
 950 0234 91ED007A 		vldr.32	s14, [r1]
 951              	.LVL35:
  77:BowBox.h      **** 
 952              		.loc 13 77 39 view .LVU195
 953              	.LBE978:
 954              	.LBE991:
 955              	.LBB992:
 956              	.LBB970:
  65:../DaisyExamples/DaisySP//Source/Utility/delayline.h ****     }
 957              		.loc 14 65 57 view .LVU196
ARM GAS  /var/folders/1p/hl98tgf51p19ck4ldyh6xb6c0000gn/T//cc56AY3v.s 			page 36


 958 0238 9949     		ldr	r1, .L72+4
 959              	.LBE970:
 960              	.LBE992:
 156:BowBox.h      **** 
 961              		.loc 13 156 39 view .LVU197
 962 023a 64EEA55A 		vmul.f32	s11, s9, s11
 963              	.LBB993:
 964              	.LBB979:
  77:BowBox.h      **** 
 965              		.loc 13 77 33 view .LVU198
 966 023e 67EEC77A 		vnmul.f32	s15, s15, s14
  77:BowBox.h      **** 
 967              		.loc 13 77 29 view .LVU199
 968 0242 92ED007A 		vldr.32	s14, [r2]
 969              	.LBE979:
 970              	.LBE993:
 141:BowBox.h      **** 
 971              		.loc 13 141 21 view .LVU200
 972 0246 90ED3E6A 		vldr.32	s12, [r0, #248]
 973              	.LBB994:
 974              	.LBB980:
  84:BowBox.h      ****         y1_ = output;
 975              		.loc 13 84 13 view .LVU201
 976 024a 83ED067A 		vstr.32	s14, [r3, #24]
 977              	.LVL36:
  77:BowBox.h      **** 
 978              		.loc 13 77 33 view .LVU202
 979 024e 93ED003A 		vldr.32	s6, [r3]
 980              	.LBE980:
 981              	.LBE994:
 982              	.LBB995:
 983              	.LBB971:
  65:../DaisyExamples/DaisySP//Source/Utility/delayline.h ****     }
 984              		.loc 14 65 57 view .LVU203
 985 0252 A1FB0AE3 		umull	lr, r3, r1, r10
 986 0256 40F2DC5E 		movw	lr, #1500
 987              	.LBE971:
 988              	.LBE995:
 989              	.LBB996:
 990              	.LBB997:
 991              		.loc 14 74 30 view .LVU204
 992 025a D0ED403A 		vldr.32	s7, [r0, #256]
 993              	.LBE997:
 994              	.LBE996:
 995              	.LBB1005:
 996              	.LBB972:
  65:../DaisyExamples/DaisySP//Source/Utility/delayline.h ****     }
 997              		.loc 14 65 57 view .LVU205
 998 025e 5B09     		lsrs	r3, r3, #5
 999              	.LBE972:
 1000              	.LBE1005:
 1001              	.LBB1006:
 1002              	.LBB981:
  77:BowBox.h      **** 
 1003              		.loc 13 77 33 view .LVU206
 1004 0260 E3EE077A 		vfma.f32	s15, s6, s14
 1005              	.LBE981:
ARM GAS  /var/folders/1p/hl98tgf51p19ck4ldyh6xb6c0000gn/T//cc56AY3v.s 			page 37


 1006              	.LBE1006:
 141:BowBox.h      **** 
 1007              		.loc 13 141 21 view .LVU207
 1008 0264 30EE066A 		vadd.f32	s12, s0, s12
 1009              	.LBB1007:
 1010              	.LBB973:
  65:../DaisyExamples/DaisySP//Source/Utility/delayline.h ****     }
 1011              		.loc 14 65 57 view .LVU208
 1012 0268 0EFB13A3 		mls	r3, lr, r3, r10
 1013              	.LBE973:
 1014              	.LBE1007:
 1015              	.LBB1008:
 1016              	.LBB982:
  77:BowBox.h      **** 
 1017              		.loc 13 77 53 view .LVU209
 1018 026c A2F1040A 		sub	r10, r2, #4
 1019              	.LBE982:
 1020              	.LBE1008:
 1021              	.LBB1009:
 1022              	.LBB974:
  65:../DaisyExamples/DaisySP//Source/Utility/delayline.h ****     }
 1023              		.loc 14 65 27 view .LVU210
 1024 0270 C0F80431 		str	r3, [r0, #260]
 1025              	.LBE974:
 1026              	.LBE1009:
 1027              	.LBB1010:
 1028              	.LBB998:
  72:../DaisyExamples/DaisySP//Source/Utility/delayline.h ****         T b = line_[(write_ptr_ + delay_ + 1) % max_size];
 1029              		.loc 14 72 33 view .LVU211
 1030 0274 D0F80801 		ldr	r0, [r0, #264]
 1031              	.LBE998:
 1032              	.LBE1010:
 1033              	.LBB1011:
 1034              	.LBB983:
  77:BowBox.h      **** 
 1035              		.loc 13 77 45 view .LVU212
 1036 0278 9AED007A 		vldr.32	s14, [r10]
 1037              	.LBE983:
 1038              	.LBE1011:
 1039              	.LBB1012:
 1040              	.LBB999:
  72:../DaisyExamples/DaisySP//Source/Utility/delayline.h ****         T b = line_[(write_ptr_ + delay_ + 1) % max_size];
 1041              		.loc 14 72 33 view .LVU213
 1042 027c 0344     		add	r3, r3, r0
 1043              	.LBE999:
 1044              	.LBE1012:
 1045              	.LBB1013:
 1046              	.LBB984:
  77:BowBox.h      **** 
 1047              		.loc 13 77 47 view .LVU214
 1048 027e A2F10C00 		sub	r0, r2, #12
  77:BowBox.h      **** 
 1049              		.loc 13 77 45 view .LVU215
 1050 0282 90ED003A 		vldr.32	s6, [r0]
 1051              	.LBE984:
 1052              	.LBE1013:
 1053              	.LBB1014:
ARM GAS  /var/folders/1p/hl98tgf51p19ck4ldyh6xb6c0000gn/T//cc56AY3v.s 			page 38


 1054              	.LBB1000:
  73:../DaisyExamples/DaisySP//Source/Utility/delayline.h ****         return a + (b - a) * frac_;
 1055              		.loc 14 73 42 view .LVU216
 1056 0286 581C     		adds	r0, r3, #1
 1057              	.LBE1000:
 1058              	.LBE1014:
 1059              	.LBB1015:
 1060              	.LBB985:
  77:BowBox.h      **** 
 1061              		.loc 13 77 45 view .LVU217
 1062 0288 E3EE477A 		vfms.f32	s15, s6, s14
  77:BowBox.h      **** 
 1063              		.loc 13 77 15 view .LVU218
 1064 028c 76EE277A 		vadd.f32	s15, s12, s15
  85:BowBox.h      **** 
 1065              		.loc 13 85 13 view .LVU219
 1066 0290 C2ED007A 		vstr.32	s15, [r2]
 1067              	.LBE985:
 1068              	.LBE1015:
 1069              	.LBB1016:
 1070              	.LBB1001:
  72:../DaisyExamples/DaisySP//Source/Utility/delayline.h ****         T b = line_[(write_ptr_ + delay_ + 1) % max_size];
 1071              		.loc 14 72 43 view .LVU220
 1072 0294 A1FB03B2 		umull	fp, r2, r1, r3
  73:../DaisyExamples/DaisySP//Source/Utility/delayline.h ****         return a + (b - a) * frac_;
 1073              		.loc 14 73 47 view .LVU221
 1074 0298 A1FB00B1 		umull	fp, r1, r1, r0
  72:../DaisyExamples/DaisySP//Source/Utility/delayline.h ****         T b = line_[(write_ptr_ + delay_ + 1) % max_size];
 1075              		.loc 14 72 43 view .LVU222
 1076 029c 5209     		lsrs	r2, r2, #5
  73:../DaisyExamples/DaisySP//Source/Utility/delayline.h ****         return a + (b - a) * frac_;
 1077              		.loc 14 73 47 view .LVU223
 1078 029e 4909     		lsrs	r1, r1, #5
  72:../DaisyExamples/DaisySP//Source/Utility/delayline.h ****         T b = line_[(write_ptr_ + delay_ + 1) % max_size];
 1079              		.loc 14 72 43 view .LVU224
 1080 02a0 0EFB1233 		mls	r3, lr, r2, r3
  72:../DaisyExamples/DaisySP//Source/Utility/delayline.h ****         T b = line_[(write_ptr_ + delay_ + 1) % max_size];
 1081              		.loc 14 72 11 view .LVU225
 1082 02a4 814A     		ldr	r2, .L72+16
  73:../DaisyExamples/DaisySP//Source/Utility/delayline.h ****         return a + (b - a) * frac_;
 1083              		.loc 14 73 47 view .LVU226
 1084 02a6 0EFB1100 		mls	r0, lr, r1, r0
  72:../DaisyExamples/DaisySP//Source/Utility/delayline.h ****         T b = line_[(write_ptr_ + delay_ + 1) % max_size];
 1085              		.loc 14 72 11 view .LVU227
 1086 02aa 02EB8303 		add	r3, r2, r3, lsl #2
  73:../DaisyExamples/DaisySP//Source/Utility/delayline.h ****         return a + (b - a) * frac_;
 1087              		.loc 14 73 11 view .LVU228
 1088 02ae 02EB8000 		add	r0, r2, r0, lsl #2
 1089              	.LBE1001:
 1090              	.LBE1016:
 1091              	.LBB1017:
 1092              	.LBB986:
  80:BowBox.h      ****         x1_ = input;
 1093              		.loc 13 80 15 view .LVU229
 1094 02b2 02F58052 		add	r2, r2, #4096
 1095 02b6 02F69401 		addw	r1, r2, #2196
 1096              	.LBE986:
ARM GAS  /var/folders/1p/hl98tgf51p19ck4ldyh6xb6c0000gn/T//cc56AY3v.s 			page 39


 1097              	.LBE1017:
 1098              	.LBE1037:
 1099              	.LBE1047:
 1100              	.LBB1048:
 1101              	.LBB955:
 156:BowBox.h      **** 
 1102              		.loc 13 156 23 view .LVU230
 1103 02ba A2F5C042 		sub	r2, r2, #24576
 1104 02be 02F64C02 		addw	r2, r2, #2124
 1105 02c2 82ED005A 		vstr.32	s10, [r2]
 159:BowBox.h      **** 
 1106              		.loc 13 159 9 is_stmt 1 view .LVU231
 1107              	.LBE955:
 1108              	.LBE1048:
 1109              	.LBB1049:
 1110              	.LBB1038:
 1111              	.LBB1018:
 1112              	.LBB987:
  80:BowBox.h      ****         x1_ = input;
 1113              		.loc 13 80 13 is_stmt 0 view .LVU232
 1114 02c6 0A68     		ldr	r2, [r1]	@ float
  81:BowBox.h      **** 
 1115              		.loc 13 81 13 view .LVU233
 1116 02c8 81ED006A 		vstr.32	s12, [r1]
 1117              	.LBE987:
 1118              	.LBE1018:
 1119              	.LBB1019:
 1120              	.LBB1020:
  14:BowBox.h      ****     if (totalVelocity == 0)
 1121              		.loc 13 14 11 view .LVU234
 1122 02cc B0EE656A 		vmov.f32	s12, s11
 1123              	.LBE1020:
 1124              	.LBE1019:
 1125              	.LBB1023:
 1126              	.LBB988:
  80:BowBox.h      ****         x1_ = input;
 1127              		.loc 13 80 13 view .LVU235
 1128 02d0 CAF80020 		str	r2, [r10]	@ float
 1129              	.LBE988:
 1130              	.LBE1023:
 1131              	.LBB1024:
 1132              	.LBB975:
  64:../DaisyExamples/DaisySP//Source/Utility/delayline.h ****         write_ptr_        = (write_ptr_ - 1 + max_size) % max_size;
 1133              		.loc 14 64 27 view .LVU236
 1134 02d4 CCED437A 		vstr.32	s15, [ip, #268]
 1135              	.LBE975:
 1136              	.LBE1024:
 1137              	.LBB1025:
 1138              	.LBB1002:
  72:../DaisyExamples/DaisySP//Source/Utility/delayline.h ****         T b = line_[(write_ptr_ + delay_ + 1) % max_size];
 1139              		.loc 14 72 11 view .LVU237
 1140 02d8 D3ED437A 		vldr.32	s15, [r3, #268]
 1141              		.loc 14 74 23 view .LVU238
 1142 02dc 90ED437A 		vldr.32	s14, [r0, #268]
 1143              	.LBE1002:
 1144              	.LBE1025:
 1145              	.LBE1038:
ARM GAS  /var/folders/1p/hl98tgf51p19ck4ldyh6xb6c0000gn/T//cc56AY3v.s 			page 40


 1146              	.LBE1049:
 1147              	.LBB1050:
 1148              	.LBB956:
 159:BowBox.h      **** 
 1149              		.loc 13 159 18 view .LVU239
 1150 02e0 6E4A     		ldr	r2, .L72
 1151              	.LBE956:
 1152              	.LBE1050:
 1153              	.LBB1051:
 1154              	.LBB1039:
 1155              	.LBB1026:
 1156              	.LBB1003:
 1157              		.loc 14 74 23 view .LVU240
 1158 02e2 37EE677A 		vsub.f32	s14, s14, s15
 1159              	.LBE1003:
 1160              	.LBE1026:
 1161              	.LBE1039:
 1162              	.LBE1051:
 1163              	.LBB1052:
 1164              	.LBB957:
 159:BowBox.h      **** 
 1165              		.loc 13 159 18 view .LVU241
 1166 02e6 02F50563 		add	r3, r2, #2128
 1167              	.LBE957:
 1168              	.LBE1052:
 1169              	.LBB1053:
 1170              	.LBB1040:
 1171              	.LBB1027:
 1172              	.LBB1004:
 1173              		.loc 14 74 30 view .LVU242
 1174 02ea E7EE237A 		vfma.f32	s15, s14, s7
 1175              	.LBE1004:
 1176              	.LBE1027:
 1177              	.LBE1040:
 1178              	.LBE1053:
 1179              	.LBB1054:
 1180              	.LBB958:
 159:BowBox.h      **** 
 1181              		.loc 13 159 18 view .LVU243
 1182 02ee 83ED004A 		vstr.32	s8, [r3]
 1183              	.LBE958:
 1184              	.LBE1054:
 1185              	.LBB1055:
 1186              	.LBB1041:
 156:BowBox.h      **** 
 1187              		.loc 13 156 80 view .LVU244
 1188 02f2 30EE270A 		vadd.f32	s0, s0, s15
 1189              	.LVL37:
 1190              	.LBB1028:
 1191              	.LBB1029:
 1192              		.loc 15 76 31 view .LVU245
 1193 02f6 B0EEC00A 		vabs.f32	s0, s0
 1194              	.LBE1029:
 1195              	.LBE1028:
 1196              	.LBE1041:
 1197              	.LBE1055:
 1198              	.LBB1056:
ARM GAS  /var/folders/1p/hl98tgf51p19ck4ldyh6xb6c0000gn/T//cc56AY3v.s 			page 41


 1199              	.LBB959:
 161:BowBox.h      ****     }
 1200              		.loc 13 161 9 is_stmt 1 view .LVU246
 1201              	.LVL38:
 161:BowBox.h      ****     }
 1202              		.loc 13 161 9 is_stmt 0 view .LVU247
 1203              	.LBE959:
 1204              	.LBE1056:
 205:BowBox.h      ****         //under_output += under_modals[2].Process(under_output) * -1.0f;
 206:BowBox.h      ****         //under_output += under_modals[3].Process(under_output) * -1.0f;
 207:BowBox.h      **** 
 208:BowBox.h      **** 
 209:BowBox.h      ****         float over_output = over_modals[0].Process(input) * -1.f;
 1205              		.loc 13 209 9 is_stmt 1 view .LVU248
 1206              	.LBB1057:
 1207              	.LBI965:
 136:BowBox.h      ****         // Mix Source with Feedback
 1208              		.loc 13 136 11 view .LVU249
 1209              	.LBB1042:
 141:BowBox.h      **** 
 1210              		.loc 13 141 9 view .LVU250
 147:BowBox.h      **** 
 1211              		.loc 13 147 9 view .LVU251
 1212              	.LBB1031:
 1213              	.LBI976:
  76:BowBox.h      ****         float output = b_ * y1_ - a1_ * y2_ - a2_ * x2_ + input;
 1214              		.loc 13 76 11 view .LVU252
 1215              	.LBB989:
  77:BowBox.h      **** 
 1216              		.loc 13 77 9 view .LVU253
  80:BowBox.h      ****         x1_ = input;
 1217              		.loc 13 80 9 view .LVU254
  81:BowBox.h      **** 
 1218              		.loc 13 81 9 view .LVU255
  84:BowBox.h      ****         y1_ = output;
 1219              		.loc 13 84 9 view .LVU256
  85:BowBox.h      **** 
 1220              		.loc 13 85 9 view .LVU257
  87:BowBox.h      ****     }
 1221              		.loc 13 87 9 view .LVU258
  87:BowBox.h      ****     }
 1222              		.loc 13 87 9 is_stmt 0 view .LVU259
 1223              	.LBE989:
 1224              	.LBE1031:
 150:BowBox.h      **** 
 1225              		.loc 13 150 9 is_stmt 1 view .LVU260
 1226              	.LBB1032:
 1227              	.LBI967:
  62:../DaisyExamples/DaisySP//Source/Utility/delayline.h ****     {
 1228              		.loc 14 62 17 view .LVU261
  62:../DaisyExamples/DaisySP//Source/Utility/delayline.h ****     {
 1229              		.loc 14 62 17 is_stmt 0 view .LVU262
 1230              	.LBE1032:
 153:BowBox.h      **** 
 1231              		.loc 13 153 9 is_stmt 1 view .LVU263
 1232              	.LBB1033:
 1233              	.LBI996:
ARM GAS  /var/folders/1p/hl98tgf51p19ck4ldyh6xb6c0000gn/T//cc56AY3v.s 			page 42


  70:../DaisyExamples/DaisySP//Source/Utility/delayline.h ****     {
 1234              		.loc 14 70 20 view .LVU264
  70:../DaisyExamples/DaisySP//Source/Utility/delayline.h ****     {
 1235              		.loc 14 70 20 is_stmt 0 view .LVU265
 1236              	.LBE1033:
 156:BowBox.h      **** 
 1237              		.loc 13 156 9 is_stmt 1 view .LVU266
 156:BowBox.h      **** 
 1238              		.loc 13 156 9 is_stmt 0 view .LVU267
 1239              	.LBE1042:
 1240              	.LBE1057:
 1241              	.LBE764:
 1242              	.LBE763:
 1243              	.LBE762:
 1244              	.LBE761:
 1245              		.loc 15 76 5 is_stmt 1 view .LVU268
 1246              	.LBB3562:
 1247              	.LBB3555:
 1248              	.LBB1161:
 1249              	.LBB1152:
 1250              	.LBB1058:
 1251              	.LBB1043:
 1252              	.LBB1034:
 1253              	.LBI1028:
  75:/Applications/ARM/arm-none-eabi/include/c++/10.3.1/bits/std_abs.h ****   { return __builtin_fabsf(__x); }
 1254              		.loc 15 75 3 view .LVU269
 1255              	.LBB1030:
 1256              		.loc 15 76 5 view .LVU270
 1257              		.loc 15 76 5 is_stmt 0 view .LVU271
 1258              	.LBE1030:
 1259              	.LBE1034:
 1260              	.LBB1035:
 1261              	.LBI1019:
  13:BowBox.h      ****     float totalVelocity = (initialVelocity + relativeVelocity);
 1262              		.loc 13 13 7 is_stmt 1 view .LVU272
 1263              	.LBB1021:
  14:BowBox.h      ****     if (totalVelocity == 0)
 1264              		.loc 13 14 5 view .LVU273
  14:BowBox.h      ****     if (totalVelocity == 0)
 1265              		.loc 13 14 11 is_stmt 0 view .LVU274
 1266 02fa A4EE806A 		vfma.f32	s12, s9, s0
 1267              	.LVL39:
  15:BowBox.h      ****         return 0;
 1268              		.loc 13 15 5 is_stmt 1 view .LVU275
 1269 02fe B5EE406A 		vcmp.f32	s12, #0
 1270 0302 F1EE10FA 		vmrs	APSR_nzcv, FPSCR
 1271 0306 01F06186 		beq	.L42
  18:BowBox.h      **** }
 1272              		.loc 13 18 9 view .LVU276
  18:BowBox.h      **** }
 1273              		.loc 13 18 71 is_stmt 0 view .LVU277
 1274 030a 9FED667A 		vldr.32	s14, .L72+8
  18:BowBox.h      **** }
 1275              		.loc 13 18 105 view .LVU278
 1276 030e 9FED665A 		vldr.32	s10, .L72+12
  18:BowBox.h      **** }
 1277              		.loc 13 18 71 view .LVU279
ARM GAS  /var/folders/1p/hl98tgf51p19ck4ldyh6xb6c0000gn/T//cc56AY3v.s 			page 43


 1278 0312 25EE877A 		vmul.f32	s14, s11, s14
  18:BowBox.h      **** }
 1279              		.loc 13 18 90 view .LVU280
 1280 0316 C7EE065A 		vdiv.f32	s11, s14, s12
 1281              	.LVL40:
  18:BowBox.h      **** }
 1282              		.loc 13 18 105 view .LVU281
 1283 031a 75EE855A 		vadd.f32	s11, s11, s10
 1284              	.L17:
 1285              	.LVL41:
  18:BowBox.h      **** }
 1286              		.loc 13 18 105 view .LVU282
 1287              	.LBE1021:
 1288              	.LBE1035:
 156:BowBox.h      **** 
 1289              		.loc 13 156 23 view .LVU283
 1290 031e 634B     		ldr	r3, .L72+16
 159:BowBox.h      **** 
 1291              		.loc 13 159 27 view .LVU284
 1292 0320 65EEA73A 		vmul.f32	s7, s11, s15
 1293              	.LBE1043:
 1294              	.LBE1058:
 1295              	.LBB1059:
 1296              	.LBB1060:
 1297              	.LBB1061:
 1298              	.LBB1062:
  77:BowBox.h      **** 
 1299              		.loc 13 77 39 view .LVU285
 1300 0324 99ED367A 		vldr.32	s14, [r9, #216]
 1301              	.LBE1062:
 1302              	.LBE1061:
 1303              	.LBB1073:
 1304              	.LBB1074:
  65:../DaisyExamples/DaisySP//Source/Utility/delayline.h ****     }
 1305              		.loc 14 65 57 view .LVU286
 1306 0328 40F2DC5A 		movw	r10, #1500
  64:../DaisyExamples/DaisySP//Source/Utility/delayline.h ****         write_ptr_        = (write_ptr_ - 1 + max_size) % max_size;
 1307              		.loc 14 64 15 view .LVU287
 1308 032c 03F58051 		add	r1, r3, #4096
 1309              	.LBE1074:
 1310              	.LBE1073:
 1311              	.LBE1060:
 1312              	.LBE1059:
 1313              	.LBB1139:
 1314              	.LBB1044:
 156:BowBox.h      **** 
 1315              		.loc 13 156 23 view .LVU288
 1316 0330 C3ED3D5A 		vstr.32	s11, [r3, #244]
 159:BowBox.h      **** 
 1317              		.loc 13 159 9 is_stmt 1 view .LVU289
 159:BowBox.h      **** 
 1318              		.loc 13 159 18 is_stmt 0 view .LVU290
 1319 0334 C3ED3E3A 		vstr.32	s7, [r3, #248]
 161:BowBox.h      ****     }
 1320              		.loc 13 161 9 is_stmt 1 view .LVU291
 1321              	.LVL42:
 161:BowBox.h      ****     }
ARM GAS  /var/folders/1p/hl98tgf51p19ck4ldyh6xb6c0000gn/T//cc56AY3v.s 			page 44


 1322              		.loc 13 161 9 is_stmt 0 view .LVU292
 1323              	.LBE1044:
 1324              	.LBE1139:
 1325              	.LBB1140:
 1326              	.LBB1132:
 1327              	.LBB1083:
 1328              	.LBB1084:
  72:../DaisyExamples/DaisySP//Source/Utility/delayline.h ****         T b = line_[(write_ptr_ + delay_ + 1) % max_size];
 1329              		.loc 14 72 33 view .LVU293
 1330 0338 D1F84009 		ldr	r0, [r1, #2368]
 1331              	.LBE1084:
 1332              	.LBE1083:
 141:BowBox.h      **** 
 1333              		.loc 13 141 38 view .LVU294
 1334 033c 0A46     		mov	r2, r1
 1335              	.LBB1092:
 1336              	.LBB1075:
  64:../DaisyExamples/DaisySP//Source/Utility/delayline.h ****         write_ptr_        = (write_ptr_ - 1 + max_size) % max_size;
 1337              		.loc 14 64 15 view .LVU295
 1338 033e D1F83C39 		ldr	r3, [r1, #2364]
 1339              	.LBE1075:
 1340              	.LBE1092:
 141:BowBox.h      **** 
 1341              		.loc 13 141 38 view .LVU296
 1342 0342 01F51361 		add	r1, r1, #2352
 1343              	.LBB1093:
 1344              	.LBB1063:
  77:BowBox.h      **** 
 1345              		.loc 13 77 39 view .LVU297
 1346 0346 99ED316A 		vldr.32	s12, [r9, #196]
 1347              	.LBE1063:
 1348              	.LBE1093:
 1349              	.LBB1094:
 1350              	.LBB1076:
  65:../DaisyExamples/DaisySP//Source/Utility/delayline.h ****     }
 1351              		.loc 14 65 45 view .LVU298
 1352 034a 03F2DB5C 		addw	ip, r3, #1499
 1353 034e D1ED005A 		vldr.32	s11, [r1]
  65:../DaisyExamples/DaisySP//Source/Utility/delayline.h ****     }
 1354              		.loc 14 65 57 view .LVU299
 1355 0352 5349     		ldr	r1, .L72+4
 1356              	.LBE1076:
 1357              	.LBE1094:
 1358              	.LBB1095:
 1359              	.LBB1064:
  77:BowBox.h      **** 
 1360              		.loc 13 77 33 view .LVU300
 1361 0354 27EE467A 		vnmul.f32	s14, s14, s12
  77:BowBox.h      **** 
 1362              		.loc 13 77 29 view .LVU301
 1363 0358 99ED355A 		vldr.32	s10, [r9, #212]
 1364 035c 75EEE75A 		vsub.f32	s11, s11, s15
 1365              	.LBE1064:
 1366              	.LBE1095:
 1367              	.LBB1096:
 1368              	.LBB1077:
  65:../DaisyExamples/DaisySP//Source/Utility/delayline.h ****     }
ARM GAS  /var/folders/1p/hl98tgf51p19ck4ldyh6xb6c0000gn/T//cc56AY3v.s 			page 45


 1369              		.loc 14 65 57 view .LVU302
 1370 0360 A1FB0CE1 		umull	lr, r1, r1, ip
 1371              	.LBE1077:
 1372              	.LBE1096:
 1373              	.LBB1097:
 1374              	.LBB1065:
  77:BowBox.h      **** 
 1375              		.loc 13 77 33 view .LVU303
 1376 0364 99ED303A 		vldr.32	s6, [r9, #192]
  77:BowBox.h      **** 
 1377              		.loc 13 77 45 view .LVU304
 1378 0368 D9ED344A 		vldr.32	s9, [r9, #208]
 1379              	.LBE1065:
 1380              	.LBE1097:
 1381              	.LBB1098:
 1382              	.LBB1099:
 1383              		.loc 15 76 31 view .LVU305
 1384 036c B0EEE76A 		vabs.f32	s12, s15
 1385              	.LBE1099:
 1386              	.LBE1098:
 1387              	.LBB1101:
 1388              	.LBB1078:
  65:../DaisyExamples/DaisySP//Source/Utility/delayline.h ****     }
 1389              		.loc 14 65 57 view .LVU306
 1390 0370 4909     		lsrs	r1, r1, #5
 1391              	.LBE1078:
 1392              	.LBE1101:
 1393              	.LBB1102:
 1394              	.LBB1066:
  77:BowBox.h      **** 
 1395              		.loc 13 77 33 view .LVU307
 1396 0372 A3EE057A 		vfma.f32	s14, s6, s10
  77:BowBox.h      **** 
 1397              		.loc 13 77 45 view .LVU308
 1398 0376 99ED324A 		vldr.32	s8, [r9, #200]
 1399              	.LBE1066:
 1400              	.LBE1102:
 1401              	.LBB1103:
 1402              	.LBB1079:
  65:../DaisyExamples/DaisySP//Source/Utility/delayline.h ****     }
 1403              		.loc 14 65 57 view .LVU309
 1404 037a 0AFB11C1 		mls	r1, r10, r1, ip
 1405              	.LBE1079:
 1406              	.LBE1103:
 1407              	.LBB1104:
 1408              	.LBB1067:
  84:BowBox.h      ****         y1_ = output;
 1409              		.loc 13 84 13 view .LVU310
 1410 037e 89ED365A 		vstr.32	s10, [r9, #216]
 1411              	.LBE1067:
 1412              	.LBE1104:
 1413              	.LBE1132:
 1414              	.LBE1140:
 1415              		.loc 13 209 62 view .LVU311
 1416 0382 B1EE675A 		vneg.f32	s10, s15
 1417              	.LVL43:
 210:BowBox.h      ****         over_output += over_modals[1].Process(over_output) * -1.0f;
ARM GAS  /var/folders/1p/hl98tgf51p19ck4ldyh6xb6c0000gn/T//cc56AY3v.s 			page 46


 1418              		.loc 13 210 9 is_stmt 1 view .LVU312
 1419              	.LBB1141:
 1420              	.LBI1059:
 136:BowBox.h      ****         // Mix Source with Feedback
 1421              		.loc 13 136 11 view .LVU313
 1422              	.LBB1133:
 141:BowBox.h      **** 
 1423              		.loc 13 141 9 view .LVU314
 147:BowBox.h      **** 
 1424              		.loc 13 147 9 view .LVU315
 1425              	.LBB1105:
 1426              	.LBI1061:
  76:BowBox.h      ****         float output = b_ * y1_ - a1_ * y2_ - a2_ * x2_ + input;
 1427              		.loc 13 76 11 view .LVU316
 1428              	.LBB1068:
  77:BowBox.h      **** 
 1429              		.loc 13 77 9 view .LVU317
 1430              	.LBE1068:
 1431              	.LBE1105:
 1432              	.LBB1106:
 1433              	.LBB1085:
  72:../DaisyExamples/DaisySP//Source/Utility/delayline.h ****         T b = line_[(write_ptr_ + delay_ + 1) % max_size];
 1434              		.loc 14 72 33 is_stmt 0 view .LVU318
 1435 0386 0844     		add	r0, r0, r1
 1436              	.LBE1085:
 1437              	.LBE1106:
 1438              	.LBB1107:
 1439              	.LBB1080:
  65:../DaisyExamples/DaisySP//Source/Utility/delayline.h ****     }
 1440              		.loc 14 65 27 view .LVU319
 1441 0388 C2F83C19 		str	r1, [r2, #2364]
  64:../DaisyExamples/DaisySP//Source/Utility/delayline.h ****         write_ptr_        = (write_ptr_ - 1 + max_size) % max_size;
 1442              		.loc 14 64 27 view .LVU320
 1443 038c 02F63C11 		addw	r1, r2, #2364
 1444              	.LBE1080:
 1445              	.LBE1107:
 1446              	.LBB1108:
 1447              	.LBB1086:
  72:../DaisyExamples/DaisySP//Source/Utility/delayline.h ****         T b = line_[(write_ptr_ + delay_ + 1) % max_size];
 1448              		.loc 14 72 43 view .LVU321
 1449 0390 434A     		ldr	r2, .L72+4
  73:../DaisyExamples/DaisySP//Source/Utility/delayline.h ****         return a + (b - a) * frac_;
 1450              		.loc 14 73 42 view .LVU322
 1451 0392 00F1010E 		add	lr, r0, #1
 1452              	.LBE1086:
 1453              	.LBE1108:
 1454              	.LBB1109:
 1455              	.LBB1069:
  77:BowBox.h      **** 
 1456              		.loc 13 77 45 view .LVU323
 1457 0396 A4EE647A 		vfms.f32	s14, s8, s9
 1458              	.LBE1069:
 1459              	.LBE1109:
 1460              	.LBB1110:
 1461              	.LBB1081:
  64:../DaisyExamples/DaisySP//Source/Utility/delayline.h ****         write_ptr_        = (write_ptr_ - 1 + max_size) % max_size;
 1462              		.loc 14 64 27 view .LVU324
ARM GAS  /var/folders/1p/hl98tgf51p19ck4ldyh6xb6c0000gn/T//cc56AY3v.s 			page 47


 1463 039a 01EB830C 		add	ip, r1, r3, lsl #2
 1464              	.LBE1081:
 1465              	.LBE1110:
 1466              	.LBB1111:
 1467              	.LBB1087:
  72:../DaisyExamples/DaisySP//Source/Utility/delayline.h ****         T b = line_[(write_ptr_ + delay_ + 1) % max_size];
 1468              		.loc 14 72 43 view .LVU325
 1469 039e A2FB00B3 		umull	fp, r3, r2, r0
  73:../DaisyExamples/DaisySP//Source/Utility/delayline.h ****         return a + (b - a) * frac_;
 1470              		.loc 14 73 47 view .LVU326
 1471 03a2 A2FB0EB2 		umull	fp, r2, r2, lr
  72:../DaisyExamples/DaisySP//Source/Utility/delayline.h ****         T b = line_[(write_ptr_ + delay_ + 1) % max_size];
 1472              		.loc 14 72 43 view .LVU327
 1473 03a6 5B09     		lsrs	r3, r3, #5
  73:../DaisyExamples/DaisySP//Source/Utility/delayline.h ****         return a + (b - a) * frac_;
 1474              		.loc 14 73 47 view .LVU328
 1475 03a8 5209     		lsrs	r2, r2, #5
  72:../DaisyExamples/DaisySP//Source/Utility/delayline.h ****         T b = line_[(write_ptr_ + delay_ + 1) % max_size];
 1476              		.loc 14 72 43 view .LVU329
 1477 03aa 0AFB1303 		mls	r3, r10, r3, r0
  73:../DaisyExamples/DaisySP//Source/Utility/delayline.h ****         return a + (b - a) * frac_;
 1478              		.loc 14 73 47 view .LVU330
 1479 03ae 0AFB12EE 		mls	lr, r10, r2, lr
 1480              	.LBE1087:
 1481              	.LBE1111:
 1482              	.LBB1112:
 1483              	.LBB1070:
  77:BowBox.h      **** 
 1484              		.loc 13 77 15 view .LVU331
 1485 03b2 35EE877A 		vadd.f32	s14, s11, s14
 1486              	.LVL44:
  80:BowBox.h      ****         x1_ = input;
 1487              		.loc 13 80 9 is_stmt 1 view .LVU332
  80:BowBox.h      ****         x1_ = input;
 1488              		.loc 13 80 13 is_stmt 0 view .LVU333
 1489 03b6 D9F8CC20 		ldr	r2, [r9, #204]	@ float
 1490              	.LBE1070:
 1491              	.LBE1112:
 1492              	.LBB1113:
 1493              	.LBB1088:
  72:../DaisyExamples/DaisySP//Source/Utility/delayline.h ****         T b = line_[(write_ptr_ + delay_ + 1) % max_size];
 1494              		.loc 14 72 11 view .LVU334
 1495 03ba 01EB8303 		add	r3, r1, r3, lsl #2
  73:../DaisyExamples/DaisySP//Source/Utility/delayline.h ****         return a + (b - a) * frac_;
 1496              		.loc 14 73 11 view .LVU335
 1497 03be 01EB8E01 		add	r1, r1, lr, lsl #2
 1498              	.LBE1088:
 1499              	.LBE1113:
 1500              	.LBB1114:
 1501              	.LBB1071:
  81:BowBox.h      **** 
 1502              		.loc 13 81 13 view .LVU336
 1503 03c2 C9ED335A 		vstr.32	s11, [r9, #204]
  80:BowBox.h      ****         x1_ = input;
 1504              		.loc 13 80 13 view .LVU337
 1505 03c6 C9F8D020 		str	r2, [r9, #208]	@ float
  81:BowBox.h      **** 
ARM GAS  /var/folders/1p/hl98tgf51p19ck4ldyh6xb6c0000gn/T//cc56AY3v.s 			page 48


 1506              		.loc 13 81 9 is_stmt 1 view .LVU338
  84:BowBox.h      ****         y1_ = output;
 1507              		.loc 13 84 9 view .LVU339
  85:BowBox.h      **** 
 1508              		.loc 13 85 9 view .LVU340
  87:BowBox.h      ****     }
 1509              		.loc 13 87 9 view .LVU341
 1510              	.LVL45:
  87:BowBox.h      ****     }
 1511              		.loc 13 87 9 is_stmt 0 view .LVU342
 1512              	.LBE1071:
 1513              	.LBE1114:
 150:BowBox.h      **** 
 1514              		.loc 13 150 9 is_stmt 1 view .LVU343
 1515              	.LBB1115:
 1516              	.LBI1073:
  62:../DaisyExamples/DaisySP//Source/Utility/delayline.h ****     {
 1517              		.loc 14 62 17 view .LVU344
  62:../DaisyExamples/DaisySP//Source/Utility/delayline.h ****     {
 1518              		.loc 14 62 17 is_stmt 0 view .LVU345
 1519              	.LBE1115:
 153:BowBox.h      **** 
 1520              		.loc 13 153 9 is_stmt 1 view .LVU346
 1521              	.LBB1116:
 1522              	.LBI1083:
  70:../DaisyExamples/DaisySP//Source/Utility/delayline.h ****     {
 1523              		.loc 14 70 20 view .LVU347
 1524              	.LBB1089:
 1525              		.loc 14 74 30 is_stmt 0 view .LVU348
 1526 03ca 394A     		ldr	r2, .L72+20
 1527              	.LBE1089:
 1528              	.LBE1116:
 1529              	.LBB1117:
 1530              	.LBB1072:
  85:BowBox.h      **** 
 1531              		.loc 13 85 13 view .LVU349
 1532 03cc 89ED357A 		vstr.32	s14, [r9, #212]
 1533              	.LBE1072:
 1534              	.LBE1117:
 1535              	.LBB1118:
 1536              	.LBB1082:
  64:../DaisyExamples/DaisySP//Source/Utility/delayline.h ****         write_ptr_        = (write_ptr_ - 1 + max_size) % max_size;
 1537              		.loc 14 64 27 view .LVU350
 1538 03d0 8CED027A 		vstr.32	s14, [ip, #8]
 1539              	.LBE1082:
 1540              	.LBE1118:
 1541              	.LBB1119:
 1542              	.LBB1090:
  72:../DaisyExamples/DaisySP//Source/Utility/delayline.h ****         T b = line_[(write_ptr_ + delay_ + 1) % max_size];
 1543              		.loc 14 72 11 view .LVU351
 1544 03d4 D3ED02BA 		vldr.32	s23, [r3, #8]
 1545              	.LVL46:
 1546              		.loc 14 74 30 view .LVU352
 1547 03d8 02F63813 		addw	r3, r2, #2360
 1548              		.loc 14 74 23 view .LVU353
 1549 03dc 91ED027A 		vldr.32	s14, [r1, #8]
 1550              	.LVL47:
ARM GAS  /var/folders/1p/hl98tgf51p19ck4ldyh6xb6c0000gn/T//cc56AY3v.s 			page 49


 1551              		.loc 14 74 30 view .LVU354
 1552 03e0 D3ED005A 		vldr.32	s11, [r3]
 1553              	.LVL48:
 1554              		.loc 14 74 30 view .LVU355
 1555              	.LBE1090:
 1556              	.LBE1119:
 156:BowBox.h      **** 
 1557              		.loc 13 156 66 view .LVU356
 1558 03e4 02F63413 		addw	r3, r2, #2356
 1559              	.LBB1120:
 1560              	.LBB1091:
 1561              		.loc 14 74 23 view .LVU357
 1562 03e8 37EE6B7A 		vsub.f32	s14, s14, s23
 1563              		.loc 14 74 30 view .LVU358
 1564 03ec E7EE25BA 		vfma.f32	s23, s14, s11
 1565              	.LVL49:
 1566              		.loc 14 74 30 view .LVU359
 1567              	.LBE1091:
 1568              	.LBE1120:
 156:BowBox.h      **** 
 1569              		.loc 13 156 9 is_stmt 1 view .LVU360
 1570              	.LBB1121:
 1571              	.LBI1098:
  75:/Applications/ARM/arm-none-eabi/include/c++/10.3.1/bits/std_abs.h ****   { return __builtin_fabsf(__x); }
 1572              		.loc 15 75 3 view .LVU361
 1573              	.LBB1100:
 1574              		.loc 15 76 5 view .LVU362
 1575              		.loc 15 76 5 is_stmt 0 view .LVU363
 1576              	.LBE1100:
 1577              	.LBE1121:
 156:BowBox.h      **** 
 1578              		.loc 13 156 66 view .LVU364
 1579 03f0 D3ED005A 		vldr.32	s11, [r3]
 156:BowBox.h      **** 
 1580              		.loc 13 156 39 view .LVU365
 1581 03f4 26EE257A 		vmul.f32	s14, s12, s11
 1582              	.LVL50:
 1583              	.LBB1122:
 1584              	.LBI1122:
  75:/Applications/ARM/arm-none-eabi/include/c++/10.3.1/bits/std_abs.h ****   { return __builtin_fabsf(__x); }
 1585              		.loc 15 75 3 is_stmt 1 view .LVU366
 1586              	.LBB1123:
 1587              		.loc 15 76 5 view .LVU367
 1588              		.loc 15 76 5 is_stmt 0 view .LVU368
 1589              	.LBE1123:
 1590              	.LBE1122:
 1591              	.LBB1125:
 1592              	.LBI1125:
  13:BowBox.h      ****     float totalVelocity = (initialVelocity + relativeVelocity);
 1593              		.loc 13 13 7 is_stmt 1 view .LVU369
 1594              	.LBB1126:
  14:BowBox.h      ****     if (totalVelocity == 0)
 1595              		.loc 13 14 5 view .LVU370
  14:BowBox.h      ****     if (totalVelocity == 0)
 1596              		.loc 13 14 11 is_stmt 0 view .LVU371
 1597 03f8 B0EE476A 		vmov.f32	s12, s14
 1598              	.LBE1126:
ARM GAS  /var/folders/1p/hl98tgf51p19ck4ldyh6xb6c0000gn/T//cc56AY3v.s 			page 50


 1599              	.LBE1125:
 1600              	.LBB1129:
 1601              	.LBB1124:
 1602              		.loc 15 76 31 view .LVU372
 1603 03fc 7BEEE77A 		vsub.f32	s15, s23, s15
 1604              	.LVL51:
 1605              		.loc 15 76 31 view .LVU373
 1606 0400 F0EEE77A 		vabs.f32	s15, s15
 1607              	.LBE1124:
 1608              	.LBE1129:
 1609              	.LBB1130:
 1610              	.LBB1127:
  14:BowBox.h      ****     if (totalVelocity == 0)
 1611              		.loc 13 14 11 view .LVU374
 1612 0404 A5EEA76A 		vfma.f32	s12, s11, s15
 1613              	.LVL52:
  15:BowBox.h      ****         return 0;
 1614              		.loc 13 15 5 is_stmt 1 view .LVU375
 1615 0408 B5EE406A 		vcmp.f32	s12, #0
 1616 040c F1EE10FA 		vmrs	APSR_nzcv, FPSCR
 1617 0410 01F0D885 		beq	.L43
  18:BowBox.h      **** }
 1618              		.loc 13 18 9 view .LVU376
  18:BowBox.h      **** }
 1619              		.loc 13 18 71 is_stmt 0 view .LVU377
 1620 0414 DFED237A 		vldr.32	s15, .L72+8
  18:BowBox.h      **** }
 1621              		.loc 13 18 105 view .LVU378
 1622 0418 DFED235A 		vldr.32	s11, .L72+12
  18:BowBox.h      **** }
 1623              		.loc 13 18 71 view .LVU379
 1624 041c 27EE277A 		vmul.f32	s14, s14, s15
 1625              	.LVL53:
  18:BowBox.h      **** }
 1626              		.loc 13 18 90 view .LVU380
 1627 0420 C7EE067A 		vdiv.f32	s15, s14, s12
  18:BowBox.h      **** }
 1628              		.loc 13 18 105 view .LVU381
 1629 0424 77EEA57A 		vadd.f32	s15, s15, s11
 1630              	.L18:
 1631              	.LVL54:
  18:BowBox.h      **** }
 1632              		.loc 13 18 105 view .LVU382
 1633              	.LBE1127:
 1634              	.LBE1130:
 1635              	.LBE1133:
 1636              	.LBE1141:
 1637              	.LBE1152:
 1638              	.LBE1161:
 1639              	.LBB1162:
 1640              	.LBB1163:
 1641              		.file 16 "../DaisyExamples/libDaisy//src/hid/switch.h"
   1:../DaisyExamples/libDaisy//src/hid/switch.h **** #pragma once
   2:../DaisyExamples/libDaisy//src/hid/switch.h **** #ifndef DSY_SWITCH_H
   3:../DaisyExamples/libDaisy//src/hid/switch.h **** #define DSY_SWITCH_H
   4:../DaisyExamples/libDaisy//src/hid/switch.h **** #include "daisy_core.h"
   5:../DaisyExamples/libDaisy//src/hid/switch.h **** #include "per/gpio.h"
ARM GAS  /var/folders/1p/hl98tgf51p19ck4ldyh6xb6c0000gn/T//cc56AY3v.s 			page 51


   6:../DaisyExamples/libDaisy//src/hid/switch.h **** #include "sys/system.h"
   7:../DaisyExamples/libDaisy//src/hid/switch.h **** 
   8:../DaisyExamples/libDaisy//src/hid/switch.h **** namespace daisy
   9:../DaisyExamples/libDaisy//src/hid/switch.h **** {
  10:../DaisyExamples/libDaisy//src/hid/switch.h **** /** 
  11:../DaisyExamples/libDaisy//src/hid/switch.h ****     Generic Class for handling momentary/latching switches \n 
  12:../DaisyExamples/libDaisy//src/hid/switch.h ****     Inspired/influenced by Mutable Instruments (pichenettes) Switch classes
  13:../DaisyExamples/libDaisy//src/hid/switch.h ****     @author Stephen Hensley
  14:../DaisyExamples/libDaisy//src/hid/switch.h ****     @date December 2019
  15:../DaisyExamples/libDaisy//src/hid/switch.h ****     @ingroup controls
  16:../DaisyExamples/libDaisy//src/hid/switch.h **** */
  17:../DaisyExamples/libDaisy//src/hid/switch.h **** class Switch
  18:../DaisyExamples/libDaisy//src/hid/switch.h **** {
  19:../DaisyExamples/libDaisy//src/hid/switch.h ****   public:
  20:../DaisyExamples/libDaisy//src/hid/switch.h ****     /** Specifies the expected behavior of the switch */
  21:../DaisyExamples/libDaisy//src/hid/switch.h ****     enum Type
  22:../DaisyExamples/libDaisy//src/hid/switch.h ****     {
  23:../DaisyExamples/libDaisy//src/hid/switch.h ****         TYPE_TOGGLE,    /**< & */
  24:../DaisyExamples/libDaisy//src/hid/switch.h ****         TYPE_MOMENTARY, /**< & */
  25:../DaisyExamples/libDaisy//src/hid/switch.h ****     };
  26:../DaisyExamples/libDaisy//src/hid/switch.h ****     /** Specifies whether the pressed is HIGH or LOW. */
  27:../DaisyExamples/libDaisy//src/hid/switch.h ****     enum Polarity
  28:../DaisyExamples/libDaisy//src/hid/switch.h ****     {
  29:../DaisyExamples/libDaisy//src/hid/switch.h ****         POLARITY_NORMAL,   /**< & */
  30:../DaisyExamples/libDaisy//src/hid/switch.h ****         POLARITY_INVERTED, /**< & */
  31:../DaisyExamples/libDaisy//src/hid/switch.h ****     };
  32:../DaisyExamples/libDaisy//src/hid/switch.h **** 
  33:../DaisyExamples/libDaisy//src/hid/switch.h ****     /** Specifies whether to use built-in Pull Up/Down resistors to hold button at a given state wh
  34:../DaisyExamples/libDaisy//src/hid/switch.h ****     enum Pull
  35:../DaisyExamples/libDaisy//src/hid/switch.h ****     {
  36:../DaisyExamples/libDaisy//src/hid/switch.h ****         PULL_UP,   /**< & */
  37:../DaisyExamples/libDaisy//src/hid/switch.h ****         PULL_DOWN, /**< & */
  38:../DaisyExamples/libDaisy//src/hid/switch.h ****         PULL_NONE, /**< & */
  39:../DaisyExamples/libDaisy//src/hid/switch.h ****     };
  40:../DaisyExamples/libDaisy//src/hid/switch.h **** 
  41:../DaisyExamples/libDaisy//src/hid/switch.h ****     Switch() {}
  42:../DaisyExamples/libDaisy//src/hid/switch.h ****     ~Switch() {}
  43:../DaisyExamples/libDaisy//src/hid/switch.h **** 
  44:../DaisyExamples/libDaisy//src/hid/switch.h ****     /** 
  45:../DaisyExamples/libDaisy//src/hid/switch.h ****     Initializes the switch object with a given port/pin combo.
  46:../DaisyExamples/libDaisy//src/hid/switch.h ****     \param pin port/pin object to tell the switch which hardware pin to use.
  47:../DaisyExamples/libDaisy//src/hid/switch.h ****     \param update_rate Does nothing. Backwards compatibility until next breaking update.
  48:../DaisyExamples/libDaisy//src/hid/switch.h ****     \param t switch type -- Default: TYPE_MOMENTARY
  49:../DaisyExamples/libDaisy//src/hid/switch.h ****     \param pol switch polarity -- Default: POLARITY_INVERTED
  50:../DaisyExamples/libDaisy//src/hid/switch.h ****     \param pu switch pull up/down -- Default: PULL_UP
  51:../DaisyExamples/libDaisy//src/hid/switch.h ****     */
  52:../DaisyExamples/libDaisy//src/hid/switch.h ****     void
  53:../DaisyExamples/libDaisy//src/hid/switch.h ****     Init(dsy_gpio_pin pin, float update_rate, Type t, Polarity pol, Pull pu);
  54:../DaisyExamples/libDaisy//src/hid/switch.h **** 
  55:../DaisyExamples/libDaisy//src/hid/switch.h ****     /**
  56:../DaisyExamples/libDaisy//src/hid/switch.h ****        Simplified Init.
  57:../DaisyExamples/libDaisy//src/hid/switch.h ****        \param pin port/pin object to tell the switch which hardware pin to use.
  58:../DaisyExamples/libDaisy//src/hid/switch.h ****        \param update_rate Left for backwards compatibility until next breaking change.
  59:../DaisyExamples/libDaisy//src/hid/switch.h ****     */
  60:../DaisyExamples/libDaisy//src/hid/switch.h ****     void Init(dsy_gpio_pin pin, float update_rate = 0.f);
  61:../DaisyExamples/libDaisy//src/hid/switch.h **** 
  62:../DaisyExamples/libDaisy//src/hid/switch.h ****     /** 
ARM GAS  /var/folders/1p/hl98tgf51p19ck4ldyh6xb6c0000gn/T//cc56AY3v.s 			page 52


  63:../DaisyExamples/libDaisy//src/hid/switch.h ****     Called at update_rate to debounce and handle timing for the switch.
  64:../DaisyExamples/libDaisy//src/hid/switch.h ****     In order for events not to be missed, its important that the Edge/Pressed checks
  65:../DaisyExamples/libDaisy//src/hid/switch.h ****     be made at the same rate as the debounce function is being called.
  66:../DaisyExamples/libDaisy//src/hid/switch.h ****     */
  67:../DaisyExamples/libDaisy//src/hid/switch.h ****     void Debounce();
  68:../DaisyExamples/libDaisy//src/hid/switch.h **** 
  69:../DaisyExamples/libDaisy//src/hid/switch.h ****     /** \return true if a button was just pressed. */
  70:../DaisyExamples/libDaisy//src/hid/switch.h ****     inline bool RisingEdge() const { return updated_ ? state_ == 0x7f : false; }
  71:../DaisyExamples/libDaisy//src/hid/switch.h **** 
  72:../DaisyExamples/libDaisy//src/hid/switch.h ****     /** \return true if the button was just released */
  73:../DaisyExamples/libDaisy//src/hid/switch.h ****     inline bool FallingEdge() const
  74:../DaisyExamples/libDaisy//src/hid/switch.h ****     {
  75:../DaisyExamples/libDaisy//src/hid/switch.h ****         return updated_ ? state_ == 0x80 : false;
  76:../DaisyExamples/libDaisy//src/hid/switch.h ****     }
  77:../DaisyExamples/libDaisy//src/hid/switch.h **** 
  78:../DaisyExamples/libDaisy//src/hid/switch.h ****     /** \return true if the button is held down (or if the toggle is on) */
  79:../DaisyExamples/libDaisy//src/hid/switch.h ****     inline bool Pressed() const { return state_ == 0xff; }
 1642              		.loc 16 79 52 view .LVU383
 1643 0428 224B     		ldr	r3, .L72+24
 1644              	.LBE1163:
 1645              	.LBE1162:
 1646              	.LBB1166:
 1647              	.LBB1153:
 1648              	.LBB1142:
 1649              	.LBB1134:
 159:BowBox.h      **** 
 1650              		.loc 13 159 27 view .LVU384
 1651 042a 27EEAB7A 		vmul.f32	s14, s15, s23
 156:BowBox.h      **** 
 1652              		.loc 13 156 23 view .LVU385
 1653 042e 204A     		ldr	r2, .L72+20
 1654              	.LBE1134:
 1655              	.LBE1142:
 211:BowBox.h      ****         //over_output += over_modals[2].Process(over_output) * -1.0f;
 212:BowBox.h      ****         //over_output += over_modals[3].Process(over_output) * -1.0f;
 213:BowBox.h      **** 
 214:BowBox.h      ****         // Process all of the other filters
 215:BowBox.h      **** //        for (int i = 0; i < 3; i++) {
 216:BowBox.h      **** //
 217:BowBox.h      **** //        }
 218:BowBox.h      **** //        over_output *= 0.25f;
 219:BowBox.h      **** //        under_output *= 0.25f;
 220:BowBox.h      **** 
 221:BowBox.h      ****         // Return output and manage gain
 222:BowBox.h      ****         return (under_output + over_output);
 1656              		.loc 13 222 43 view .LVU386
 1657 0430 75EE6BBA 		vsub.f32	s23, s10, s23
 1658              	.LVL55:
 1659              		.loc 13 222 43 view .LVU387
 1660              	.LBE1153:
 1661              	.LBE1166:
 1662              	.LBB1167:
 1663              	.LBB1164:
 1664              		.loc 16 79 52 view .LVU388
 1665 0434 997E     		ldrb	r1, [r3, #26]	@ zero_extendqisi2
 1666              	.LVL56:
 1667              		.loc 16 79 52 view .LVU389
ARM GAS  /var/folders/1p/hl98tgf51p19ck4ldyh6xb6c0000gn/T//cc56AY3v.s 			page 53


 1668              	.LBE1164:
 1669              	.LBE1167:
 1670              	.LBB1168:
 1671              	.LBB1154:
 1672              	.LBB1143:
 1673              	.LBB1135:
 156:BowBox.h      **** 
 1674              		.loc 13 156 23 view .LVU390
 1675 0436 02F62C13 		addw	r3, r2, #2348
 1676              	.LBE1135:
 1677              	.LBE1143:
 1678              	.LBE1154:
 1679              	.LBE1168:
  71:source.cpp    ****         // Create Filtered Noise
  72:source.cpp    **** 
  73:source.cpp    ****         float noiseOut = NoiseSource.Process();
  74:source.cpp    ****         LowPassTable[0].Process(noiseOut);
  75:source.cpp    ****         LowPassTable[1].Process(noiseOut);
  76:source.cpp    ****         LowPassTable[2].Process(noiseOut);
  77:source.cpp    ****         LowPassTable[3].Process(noiseOut);
  78:source.cpp    ****         LowPassTable[4].Process(noiseOut);
  79:source.cpp    ****         LowPassTable[5].Process(noiseOut);
  80:source.cpp    **** 
  81:source.cpp    ****         float filteredNoise[] = {LowPassTable[0].Low(), LowPassTable[1].Low(), LowPassTable[2].Low(
  82:source.cpp    ****                                  LowPassTable[3].Low(), LowPassTable[4].Low(), LowPassTable[5].Low(
  83:source.cpp    **** 
  84:source.cpp    ****         float sineOut = ExciterTable.Process(1.0f - SineWave.Process());
  85:source.cpp    **** 
  86:source.cpp    ****         float lPortOut = lPort.Process(lAmp);
  87:source.cpp    ****         float rPortOut = rPort.Process(rAmp);
  88:source.cpp    **** 
  89:source.cpp    **** 
  90:source.cpp    ****         // Process Resonantors. AVoid using for loop inside For loop.
  91:source.cpp    ****         // Close encounters of the third kind
  92:source.cpp    ****         float output = Bowls[0].Process(
  93:source.cpp    ****                 filteredNoise[0] *  simpleEnv[0].Process(buttons[0].Pressed()) * lPortOut );
  94:source.cpp    ****         output += Bowls[1].Process(
  95:source.cpp    ****                 filteredNoise[1] *  simpleEnv[1].Process(buttons[1].Pressed()) * lPortOut );
 1680              		.loc 11 95 57 view .LVU391
 1681 043a 1F48     		ldr	r0, .L72+28
 1682              	.LVL57:
 1683              		.loc 11 95 57 view .LVU392
 1684 043c A1F1FF01 		sub	r1, #255
 1685              	.LBB1169:
 1686              	.LBB1155:
 1687              		.loc 13 222 43 view .LVU393
 1688 0440 7BEEA6BA 		vadd.f32	s23, s23, s13
 1689              	.LBB1144:
 1690              	.LBB1136:
 156:BowBox.h      **** 
 1691              		.loc 13 156 23 view .LVU394
 1692 0444 C3ED007A 		vstr.32	s15, [r3]
 159:BowBox.h      **** 
 1693              		.loc 13 159 9 is_stmt 1 view .LVU395
 159:BowBox.h      **** 
 1694              		.loc 13 159 18 is_stmt 0 view .LVU396
 1695 0448 02F51363 		add	r3, r2, #2352
ARM GAS  /var/folders/1p/hl98tgf51p19ck4ldyh6xb6c0000gn/T//cc56AY3v.s 			page 54


 1696              	.LBE1136:
 1697              	.LBE1144:
 1698              	.LBE1155:
 1699              	.LBE1169:
 1700              		.loc 11 95 57 view .LVU397
 1701 044c B1FA81F1 		clz	r1, r1
 1702              	.LBB1170:
 1703              	.LBB1156:
 1704              	.LBB1145:
 1705              	.LBB1137:
 159:BowBox.h      **** 
 1706              		.loc 13 159 18 view .LVU398
 1707 0450 83ED007A 		vstr.32	s14, [r3]
 161:BowBox.h      ****     }
 1708              		.loc 13 161 9 is_stmt 1 view .LVU399
 1709              	.LVL58:
 161:BowBox.h      ****     }
 1710              		.loc 13 161 9 is_stmt 0 view .LVU400
 1711              	.LBE1137:
 1712              	.LBE1145:
 1713              		.loc 13 222 9 is_stmt 1 view .LVU401
 1714              		.loc 13 222 9 is_stmt 0 view .LVU402
 1715              	.LBE1156:
 1716              	.LBE1170:
  94:source.cpp    ****                 filteredNoise[1] *  simpleEnv[1].Process(buttons[1].Pressed()) * lPortOut );
 1717              		.loc 11 94 9 is_stmt 1 view .LVU403
 1718              	.LBB1171:
 1719              	.LBI1162:
 1720              		.loc 16 79 17 view .LVU404
 1721              	.LBB1165:
 1722              		.loc 16 79 35 view .LVU405
 1723              		.loc 16 79 35 is_stmt 0 view .LVU406
 1724              	.LBE1165:
 1725              	.LBE1171:
 1726              		.loc 11 95 57 view .LVU407
 1727 0454 4909     		lsrs	r1, r1, #5
 1728 0456 FFF7FEFF 		bl	_ZN7daisysp4Adsr7ProcessEb
 1729              	.LVL59:
 1730              	.LBB1172:
 1731              	.LBB1173:
 1732              	.LBB1174:
 1733              	.LBB1175:
 141:BowBox.h      **** 
 1734              		.loc 13 141 21 view .LVU408
 1735 045a 1848     		ldr	r0, .L72+32
 1736              	.LBE1175:
 1737              	.LBE1174:
 1738              	.LBE1173:
 1739              	.LBE1172:
 1740              		.loc 11 95 34 view .LVU409
 1741 045c 60EE2AAA 		vmul.f32	s21, s0, s21
 1742              	.LVL60:
 1743              	.LBB1546:
 1744              	.LBB1538:
 1745              	.LBB1260:
 1746              	.LBB1256:
 1747              	.LBB1176:
ARM GAS  /var/folders/1p/hl98tgf51p19ck4ldyh6xb6c0000gn/T//cc56AY3v.s 			page 55


 1748              	.LBB1177:
  64:../DaisyExamples/DaisySP//Source/Utility/delayline.h ****         write_ptr_        = (write_ptr_ - 1 + max_size) % max_size;
 1749              		.loc 14 64 15 view .LVU410
 1750 0460 D0F8F021 		ldr	r2, [r0, #496]
 1751              	.LBE1177:
 1752              	.LBE1176:
 1753              	.LBB1186:
 1754              	.LBB1187:
  77:BowBox.h      **** 
 1755              		.loc 13 77 41 view .LVU411
 1756 0464 00F58051 		add	r1, r0, #4096
 1757              	.LBE1187:
 1758              	.LBE1186:
 156:BowBox.h      **** 
 1759              		.loc 13 156 66 view .LVU412
 1760 0468 D0ED7A6A 		vldr.32	s13, [r0, #488]
 1761              	.LBB1202:
 1762              	.LBB1178:
  65:../DaisyExamples/DaisySP//Source/Utility/delayline.h ****     }
 1763              		.loc 14 65 45 view .LVU413
 1764 046c 02F2DB5A 		addw	r10, r2, #1499
 1765              	.LBE1178:
 1766              	.LBE1202:
 1767              	.LBB1203:
 1768              	.LBB1188:
  77:BowBox.h      **** 
 1769              		.loc 13 77 41 view .LVU414
 1770 0470 01F68C13 		addw	r3, r1, #2444
 1771              	.LBE1188:
 1772              	.LBE1203:
 1773              	.LBB1204:
 1774              	.LBB1179:
  64:../DaisyExamples/DaisySP//Source/Utility/delayline.h ****         write_ptr_        = (write_ptr_ - 1 + max_size) % max_size;
 1775              		.loc 14 64 27 view .LVU415
 1776 0474 00EB820C 		add	ip, r0, r2, lsl #2
 1777              	.LBE1179:
 1778              	.LBE1204:
 1779              	.LBB1205:
 1780              	.LBB1189:
  77:BowBox.h      **** 
 1781              		.loc 13 77 35 view .LVU416
 1782 0478 01F67811 		addw	r1, r1, #2424
  77:BowBox.h      **** 
 1783              		.loc 13 77 29 view .LVU417
 1784 047c 00F58052 		add	r2, r0, #4096
  77:BowBox.h      **** 
 1785              		.loc 13 77 39 view .LVU418
 1786 0480 D3ED007A 		vldr.32	s15, [r3]
 1787 0484 91ED005A 		vldr.32	s10, [r1]
  77:BowBox.h      **** 
 1788              		.loc 13 77 24 view .LVU419
 1789 0488 183B     		subs	r3, r3, #24
  77:BowBox.h      **** 
 1790              		.loc 13 77 29 view .LVU420
 1791 048a 02F68812 		addw	r2, r2, #2440
 1792              	.LBE1189:
 1793              	.LBE1205:
ARM GAS  /var/folders/1p/hl98tgf51p19ck4ldyh6xb6c0000gn/T//cc56AY3v.s 			page 56


 1794              	.LBB1206:
 1795              	.LBB1180:
  65:../DaisyExamples/DaisySP//Source/Utility/delayline.h ****     }
 1796              		.loc 14 65 57 view .LVU421
 1797 048e 0449     		ldr	r1, .L72+4
 1798              	.LBE1180:
 1799              	.LBE1206:
 1800              	.LBB1207:
 1801              	.LBB1190:
  77:BowBox.h      **** 
 1802              		.loc 13 77 33 view .LVU422
 1803 0490 67EEC57A 		vnmul.f32	s15, s15, s10
 1804              	.LBE1190:
 1805              	.LBE1207:
 141:BowBox.h      **** 
 1806              		.loc 13 141 21 view .LVU423
 1807 0494 90ED797A 		vldr.32	s14, [r0, #484]
 1808 0498 12E0     		b	.L73
 1809              	.L74:
 1810 049a 00BF     		.align	2
 1811              	.L72:
 1812 049c 00100000 		.word	Bowls+4096
 1813 04a0 F1197605 		.word	91625969
 1814 04a4 90C2753D 		.word	1031127696
 1815 04a8 6666663F 		.word	1063675494
 1816 04ac 00600000 		.word	Bowls+24576
 1817 04b0 00700000 		.word	Bowls+28672
 1818 04b4 00000000 		.word	.LANCHOR0
 1819 04b8 30000000 		.word	.LANCHOR11+48
 1820 04bc 00C00000 		.word	Bowls+49152
 1821              	.L73:
 1822              	.LBB1208:
 1823              	.LBB1191:
  77:BowBox.h      **** 
 1824              		.loc 13 77 29 view .LVU424
 1825 04c0 92ED005A 		vldr.32	s10, [r2]
 1826              	.LBE1191:
 1827              	.LBE1208:
 1828              	.LBE1256:
 1829              	.LBE1260:
 1830              	.LBE1538:
 1831              	.LBE1546:
  94:source.cpp    ****                 filteredNoise[1] *  simpleEnv[1].Process(buttons[1].Pressed()) * lPortOut );
 1832              		.loc 11 94 35 view .LVU425
 1833 04c4 6AEE8BAA 		vmul.f32	s21, s21, s22
 1834              	.LVL61:
 1835              	.LBB1547:
 1836              	.LBI1172:
 201:BowBox.h      ****         // Process first delay line with input
 1837              		.loc 13 201 18 is_stmt 1 view .LVU426
 1838              	.LBB1539:
 203:BowBox.h      ****         under_output += under_modals[1].Process(under_output) * -1.0f;
 1839              		.loc 13 203 9 view .LVU427
 1840              	.LBB1261:
 1841              	.LBI1174:
 136:BowBox.h      ****         // Mix Source with Feedback
 1842              		.loc 13 136 11 view .LVU428
ARM GAS  /var/folders/1p/hl98tgf51p19ck4ldyh6xb6c0000gn/T//cc56AY3v.s 			page 57


 1843              	.LBB1257:
 141:BowBox.h      **** 
 1844              		.loc 13 141 9 view .LVU429
 1845              	.LBB1209:
 1846              	.LBB1210:
 1847              		.loc 14 74 30 is_stmt 0 view .LVU430
 1848 04c8 D0ED7B4A 		vldr.32	s9, [r0, #492]
 1849              	.LBE1210:
 1850              	.LBE1209:
 1851              	.LBB1217:
 1852              	.LBB1192:
  84:BowBox.h      ****         y1_ = output;
 1853              		.loc 13 84 13 view .LVU431
 1854 04cc 83ED065A 		vstr.32	s10, [r3, #24]
  77:BowBox.h      **** 
 1855              		.loc 13 77 33 view .LVU432
 1856 04d0 93ED004A 		vldr.32	s8, [r3]
 1857              	.LBE1192:
 1858              	.LBE1217:
 1859              	.LBB1218:
 1860              	.LBB1181:
  65:../DaisyExamples/DaisySP//Source/Utility/delayline.h ****     }
 1861              		.loc 14 65 57 view .LVU433
 1862 04d4 A1FB0AE3 		umull	lr, r3, r1, r10
 1863 04d8 40F2DC5E 		movw	lr, #1500
 1864              	.LBE1181:
 1865              	.LBE1218:
 141:BowBox.h      **** 
 1866              		.loc 13 141 21 view .LVU434
 1867 04dc 3AEE877A 		vadd.f32	s14, s21, s14
 1868              	.LVL62:
 147:BowBox.h      **** 
 1869              		.loc 13 147 9 is_stmt 1 view .LVU435
 1870              	.LBB1219:
 1871              	.LBI1186:
  76:BowBox.h      ****         float output = b_ * y1_ - a1_ * y2_ - a2_ * x2_ + input;
 1872              		.loc 13 76 11 view .LVU436
 1873              	.LBB1193:
  77:BowBox.h      **** 
 1874              		.loc 13 77 9 view .LVU437
 1875              	.LBE1193:
 1876              	.LBE1219:
 1877              	.LBB1220:
 1878              	.LBB1182:
  65:../DaisyExamples/DaisySP//Source/Utility/delayline.h ****     }
 1879              		.loc 14 65 57 is_stmt 0 view .LVU438
 1880 04e0 5B09     		lsrs	r3, r3, #5
 1881              	.LBE1182:
 1882              	.LBE1220:
 1883              	.LBB1221:
 1884              	.LBB1194:
  77:BowBox.h      **** 
 1885              		.loc 13 77 33 view .LVU439
 1886 04e2 E4EE057A 		vfma.f32	s15, s8, s10
 1887              	.LBE1194:
 1888              	.LBE1221:
 1889              	.LBB1222:
ARM GAS  /var/folders/1p/hl98tgf51p19ck4ldyh6xb6c0000gn/T//cc56AY3v.s 			page 58


 1890              	.LBB1223:
 1891              		.loc 15 76 31 view .LVU440
 1892 04e6 F0EEEA5A 		vabs.f32	s11, s21
 1893              	.LBE1223:
 1894              	.LBE1222:
 1895              	.LBB1225:
 1896              	.LBB1183:
  65:../DaisyExamples/DaisySP//Source/Utility/delayline.h ****     }
 1897              		.loc 14 65 57 view .LVU441
 1898 04ea 0EFB13A3 		mls	r3, lr, r3, r10
 1899              	.LBE1183:
 1900              	.LBE1225:
 1901              	.LBB1226:
 1902              	.LBB1195:
  77:BowBox.h      **** 
 1903              		.loc 13 77 53 view .LVU442
 1904 04ee A2F1040A 		sub	r10, r2, #4
 1905              	.LBE1195:
 1906              	.LBE1226:
 1907              	.LBB1227:
 1908              	.LBB1184:
  65:../DaisyExamples/DaisySP//Source/Utility/delayline.h ****     }
 1909              		.loc 14 65 27 view .LVU443
 1910 04f2 C0F8F031 		str	r3, [r0, #496]
 1911              	.LBE1184:
 1912              	.LBE1227:
 156:BowBox.h      **** 
 1913              		.loc 13 156 39 view .LVU444
 1914 04f6 25EEA66A 		vmul.f32	s12, s11, s13
 1915              	.LBB1228:
 1916              	.LBB1211:
  72:../DaisyExamples/DaisySP//Source/Utility/delayline.h ****         T b = line_[(write_ptr_ + delay_ + 1) % max_size];
 1917              		.loc 14 72 33 view .LVU445
 1918 04fa D0F8F401 		ldr	r0, [r0, #500]
 1919              	.LBE1211:
 1920              	.LBE1228:
 1921              	.LBB1229:
 1922              	.LBB1196:
  77:BowBox.h      **** 
 1923              		.loc 13 77 45 view .LVU446
 1924 04fe 9AED005A 		vldr.32	s10, [r10]
 1925              	.LBE1196:
 1926              	.LBE1229:
 1927              	.LBB1230:
 1928              	.LBB1212:
  72:../DaisyExamples/DaisySP//Source/Utility/delayline.h ****         T b = line_[(write_ptr_ + delay_ + 1) % max_size];
 1929              		.loc 14 72 33 view .LVU447
 1930 0502 0344     		add	r3, r3, r0
 1931              	.LBE1212:
 1932              	.LBE1230:
 1933              	.LBB1231:
 1934              	.LBB1197:
  77:BowBox.h      **** 
 1935              		.loc 13 77 47 view .LVU448
 1936 0504 A2F10C00 		sub	r0, r2, #12
  77:BowBox.h      **** 
 1937              		.loc 13 77 45 view .LVU449
ARM GAS  /var/folders/1p/hl98tgf51p19ck4ldyh6xb6c0000gn/T//cc56AY3v.s 			page 59


 1938 0508 90ED004A 		vldr.32	s8, [r0]
 1939              	.LBE1197:
 1940              	.LBE1231:
 1941              	.LBB1232:
 1942              	.LBB1213:
  73:../DaisyExamples/DaisySP//Source/Utility/delayline.h ****         return a + (b - a) * frac_;
 1943              		.loc 14 73 42 view .LVU450
 1944 050c 581C     		adds	r0, r3, #1
 1945              	.LBE1213:
 1946              	.LBE1232:
 1947              	.LBB1233:
 1948              	.LBB1198:
  77:BowBox.h      **** 
 1949              		.loc 13 77 45 view .LVU451
 1950 050e E4EE457A 		vfms.f32	s15, s8, s10
 1951              	.LBE1198:
 1952              	.LBE1233:
 1953              	.LBB1234:
 1954              	.LBB1235:
  14:BowBox.h      ****     if (totalVelocity == 0)
 1955              		.loc 13 14 11 view .LVU452
 1956 0512 B0EE465A 		vmov.f32	s10, s12
 1957              	.LBE1235:
 1958              	.LBE1234:
 1959              	.LBB1239:
 1960              	.LBB1199:
  77:BowBox.h      **** 
 1961              		.loc 13 77 15 view .LVU453
 1962 0516 77EE277A 		vadd.f32	s15, s14, s15
 1963              	.LVL63:
  80:BowBox.h      ****         x1_ = input;
 1964              		.loc 13 80 9 is_stmt 1 view .LVU454
  85:BowBox.h      **** 
 1965              		.loc 13 85 13 is_stmt 0 view .LVU455
 1966 051a C2ED007A 		vstr.32	s15, [r2]
 1967              	.LBE1199:
 1968              	.LBE1239:
 1969              	.LBB1240:
 1970              	.LBB1214:
  72:../DaisyExamples/DaisySP//Source/Utility/delayline.h ****         T b = line_[(write_ptr_ + delay_ + 1) % max_size];
 1971              		.loc 14 72 43 view .LVU456
 1972 051e A1FB03B2 		umull	fp, r2, r1, r3
  73:../DaisyExamples/DaisySP//Source/Utility/delayline.h ****         return a + (b - a) * frac_;
 1973              		.loc 14 73 47 view .LVU457
 1974 0522 A1FB00B1 		umull	fp, r1, r1, r0
  72:../DaisyExamples/DaisySP//Source/Utility/delayline.h ****         T b = line_[(write_ptr_ + delay_ + 1) % max_size];
 1975              		.loc 14 72 43 view .LVU458
 1976 0526 5209     		lsrs	r2, r2, #5
  73:../DaisyExamples/DaisySP//Source/Utility/delayline.h ****         return a + (b - a) * frac_;
 1977              		.loc 14 73 47 view .LVU459
 1978 0528 4909     		lsrs	r1, r1, #5
  72:../DaisyExamples/DaisySP//Source/Utility/delayline.h ****         T b = line_[(write_ptr_ + delay_ + 1) % max_size];
 1979              		.loc 14 72 43 view .LVU460
 1980 052a 0EFB1233 		mls	r3, lr, r2, r3
  72:../DaisyExamples/DaisySP//Source/Utility/delayline.h ****         T b = line_[(write_ptr_ + delay_ + 1) % max_size];
 1981              		.loc 14 72 11 view .LVU461
 1982 052e F24A     		ldr	r2, .L75
ARM GAS  /var/folders/1p/hl98tgf51p19ck4ldyh6xb6c0000gn/T//cc56AY3v.s 			page 60


  73:../DaisyExamples/DaisySP//Source/Utility/delayline.h ****         return a + (b - a) * frac_;
 1983              		.loc 14 73 47 view .LVU462
 1984 0530 0EFB1100 		mls	r0, lr, r1, r0
 1985              	.LBE1214:
 1986              	.LBE1240:
 1987              	.LBB1241:
 1988              	.LBB1200:
  80:BowBox.h      ****         x1_ = input;
 1989              		.loc 13 80 15 view .LVU463
 1990 0534 02F5CC51 		add	r1, r2, #6528
 1991              	.LBE1200:
 1992              	.LBE1241:
 1993              	.LBB1242:
 1994              	.LBB1215:
  72:../DaisyExamples/DaisySP//Source/Utility/delayline.h ****         T b = line_[(write_ptr_ + delay_ + 1) % max_size];
 1995              		.loc 14 72 11 view .LVU464
 1996 0538 02EB8303 		add	r3, r2, r3, lsl #2
  73:../DaisyExamples/DaisySP//Source/Utility/delayline.h ****         return a + (b - a) * frac_;
 1997              		.loc 14 73 11 view .LVU465
 1998 053c 02EB8000 		add	r0, r2, r0, lsl #2
 1999              	.LBE1215:
 2000              	.LBE1242:
 2001              	.LBB1243:
 2002              	.LBB1201:
  80:BowBox.h      ****         x1_ = input;
 2003              		.loc 13 80 13 view .LVU466
 2004 0540 0A68     		ldr	r2, [r1]	@ float
  81:BowBox.h      **** 
 2005              		.loc 13 81 13 view .LVU467
 2006 0542 81ED007A 		vstr.32	s14, [r1]
  80:BowBox.h      ****         x1_ = input;
 2007              		.loc 13 80 13 view .LVU468
 2008 0546 CAF80020 		str	r2, [r10]	@ float
  81:BowBox.h      **** 
 2009              		.loc 13 81 9 is_stmt 1 view .LVU469
  84:BowBox.h      ****         y1_ = output;
 2010              		.loc 13 84 9 view .LVU470
  85:BowBox.h      **** 
 2011              		.loc 13 85 9 view .LVU471
  87:BowBox.h      ****     }
 2012              		.loc 13 87 9 view .LVU472
 2013              	.LVL64:
  87:BowBox.h      ****     }
 2014              		.loc 13 87 9 is_stmt 0 view .LVU473
 2015              	.LBE1201:
 2016              	.LBE1243:
 150:BowBox.h      **** 
 2017              		.loc 13 150 9 is_stmt 1 view .LVU474
 2018              	.LBB1244:
 2019              	.LBI1176:
  62:../DaisyExamples/DaisySP//Source/Utility/delayline.h ****     {
 2020              		.loc 14 62 17 view .LVU475
  62:../DaisyExamples/DaisySP//Source/Utility/delayline.h ****     {
 2021              		.loc 14 62 17 is_stmt 0 view .LVU476
 2022              	.LBE1244:
 153:BowBox.h      **** 
 2023              		.loc 13 153 9 is_stmt 1 view .LVU477
ARM GAS  /var/folders/1p/hl98tgf51p19ck4ldyh6xb6c0000gn/T//cc56AY3v.s 			page 61


 2024              	.LBB1245:
 2025              	.LBI1209:
  70:../DaisyExamples/DaisySP//Source/Utility/delayline.h ****     {
 2026              		.loc 14 70 20 view .LVU478
 2027              	.LBE1245:
 2028              	.LBB1246:
 2029              	.LBB1185:
  64:../DaisyExamples/DaisySP//Source/Utility/delayline.h ****         write_ptr_        = (write_ptr_ - 1 + max_size) % max_size;
 2030              		.loc 14 64 27 is_stmt 0 view .LVU479
 2031 054a CCED7E7A 		vstr.32	s15, [ip, #504]
 2032              	.LBE1185:
 2033              	.LBE1246:
 2034              	.LBB1247:
 2035              	.LBB1216:
  72:../DaisyExamples/DaisySP//Source/Utility/delayline.h ****         T b = line_[(write_ptr_ + delay_ + 1) % max_size];
 2036              		.loc 14 72 11 view .LVU480
 2037 054e 93ED7E7A 		vldr.32	s14, [r3, #504]
 2038              	.LVL65:
 2039              		.loc 14 74 23 view .LVU481
 2040 0552 D0ED7E7A 		vldr.32	s15, [r0, #504]
 2041              	.LVL66:
 2042              		.loc 14 74 23 view .LVU482
 2043 0556 77EEC77A 		vsub.f32	s15, s15, s14
 2044              		.loc 14 74 30 view .LVU483
 2045 055a A7EEA47A 		vfma.f32	s14, s15, s9
 2046              	.LVL67:
 2047              		.loc 14 74 30 view .LVU484
 2048              	.LBE1216:
 2049              	.LBE1247:
 156:BowBox.h      **** 
 2050              		.loc 13 156 9 is_stmt 1 view .LVU485
 2051              	.LBB1248:
 2052              	.LBI1222:
  75:/Applications/ARM/arm-none-eabi/include/c++/10.3.1/bits/std_abs.h ****   { return __builtin_fabsf(__x); }
 2053              		.loc 15 75 3 view .LVU486
 2054              	.LBB1224:
 2055              		.loc 15 76 5 view .LVU487
 2056              		.loc 15 76 5 is_stmt 0 view .LVU488
 2057              	.LBE1224:
 2058              	.LBE1248:
 2059              	.LBB1249:
 2060              	.LBI1249:
  75:/Applications/ARM/arm-none-eabi/include/c++/10.3.1/bits/std_abs.h ****   { return __builtin_fabsf(__x); }
 2061              		.loc 15 75 3 is_stmt 1 view .LVU489
 2062              	.LBB1250:
 2063              		.loc 15 76 5 view .LVU490
 2064              		.loc 15 76 5 is_stmt 0 view .LVU491
 2065              	.LBE1250:
 2066              	.LBE1249:
 2067              	.LBB1252:
 2068              	.LBI1234:
  13:BowBox.h      ****     float totalVelocity = (initialVelocity + relativeVelocity);
 2069              		.loc 13 13 7 is_stmt 1 view .LVU492
 2070              	.LBB1236:
  14:BowBox.h      ****     if (totalVelocity == 0)
 2071              		.loc 13 14 5 view .LVU493
 2072              	.LBE1236:
ARM GAS  /var/folders/1p/hl98tgf51p19ck4ldyh6xb6c0000gn/T//cc56AY3v.s 			page 62


 2073              	.LBE1252:
 156:BowBox.h      **** 
 2074              		.loc 13 156 80 is_stmt 0 view .LVU494
 2075 055e 7AEE877A 		vadd.f32	s15, s21, s14
 2076              	.LBB1253:
 2077              	.LBB1251:
 2078              		.loc 15 76 31 view .LVU495
 2079 0562 F0EEE77A 		vabs.f32	s15, s15
 2080              	.LBE1251:
 2081              	.LBE1253:
 2082              	.LBB1254:
 2083              	.LBB1237:
  14:BowBox.h      ****     if (totalVelocity == 0)
 2084              		.loc 13 14 11 view .LVU496
 2085 0566 A6EEA75A 		vfma.f32	s10, s13, s15
 2086              	.LVL68:
  15:BowBox.h      ****         return 0;
 2087              		.loc 13 15 5 is_stmt 1 view .LVU497
 2088 056a B5EE405A 		vcmp.f32	s10, #0
 2089 056e F1EE10FA 		vmrs	APSR_nzcv, FPSCR
 2090 0572 01F02385 		beq	.L44
  18:BowBox.h      **** }
 2091              		.loc 13 18 9 view .LVU498
  18:BowBox.h      **** }
 2092              		.loc 13 18 71 is_stmt 0 view .LVU499
 2093 0576 DFEDE16A 		vldr.32	s13, .L75+4
 2094              	.LVL69:
  18:BowBox.h      **** }
 2095              		.loc 13 18 105 view .LVU500
 2096 057a DFEDE17A 		vldr.32	s15, .L75+8
  18:BowBox.h      **** }
 2097              		.loc 13 18 71 view .LVU501
 2098 057e 26EE266A 		vmul.f32	s12, s12, s13
 2099              	.LVL70:
  18:BowBox.h      **** }
 2100              		.loc 13 18 90 view .LVU502
 2101 0582 C6EE056A 		vdiv.f32	s13, s12, s10
  18:BowBox.h      **** }
 2102              		.loc 13 18 105 view .LVU503
 2103 0586 76EEA76A 		vadd.f32	s13, s13, s15
 2104              	.L19:
 2105              	.LVL71:
  18:BowBox.h      **** }
 2106              		.loc 13 18 105 view .LVU504
 2107              	.LBE1237:
 2108              	.LBE1254:
 156:BowBox.h      **** 
 2109              		.loc 13 156 23 view .LVU505
 2110 058a DB4B     		ldr	r3, .L75
 159:BowBox.h      **** 
 2111              		.loc 13 159 27 view .LVU506
 2112 058c 66EE873A 		vmul.f32	s7, s13, s14
 2113              	.LBE1257:
 2114              	.LBE1261:
 2115              	.LBB1262:
 2116              	.LBB1263:
 2117              	.LBB1264:
ARM GAS  /var/folders/1p/hl98tgf51p19ck4ldyh6xb6c0000gn/T//cc56AY3v.s 			page 63


 2118              	.LBB1265:
  77:BowBox.h      **** 
 2119              		.loc 13 77 39 view .LVU507
 2120 0590 D8ED717A 		vldr.32	s15, [r8, #452]
 2121              	.LBE1265:
 2122              	.LBE1264:
 2123              	.LBB1276:
 2124              	.LBB1277:
  65:../DaisyExamples/DaisySP//Source/Utility/delayline.h ****     }
 2125              		.loc 14 65 57 view .LVU508
 2126 0594 40F2DC5A 		movw	r10, #1500
  64:../DaisyExamples/DaisySP//Source/Utility/delayline.h ****         write_ptr_        = (write_ptr_ - 1 + max_size) % max_size;
 2127              		.loc 14 64 15 view .LVU509
 2128 0598 03F58051 		add	r1, r3, #4096
 2129              	.LBE1277:
 2130              	.LBE1276:
 2131              	.LBE1263:
 2132              	.LBE1262:
 2133              	.LBB1347:
 2134              	.LBB1258:
 156:BowBox.h      **** 
 2135              		.loc 13 156 23 view .LVU510
 2136 059c C3ED786A 		vstr.32	s13, [r3, #480]
 159:BowBox.h      **** 
 2137              		.loc 13 159 9 is_stmt 1 view .LVU511
 159:BowBox.h      **** 
 2138              		.loc 13 159 18 is_stmt 0 view .LVU512
 2139 05a0 C3ED793A 		vstr.32	s7, [r3, #484]
 161:BowBox.h      ****     }
 2140              		.loc 13 161 9 is_stmt 1 view .LVU513
 2141              	.LVL72:
 161:BowBox.h      ****     }
 2142              		.loc 13 161 9 is_stmt 0 view .LVU514
 2143              	.LBE1258:
 2144              	.LBE1347:
 204:BowBox.h      ****         //under_output += under_modals[2].Process(under_output) * -1.0f;
 2145              		.loc 13 204 9 is_stmt 1 view .LVU515
 2146              	.LBB1348:
 2147              	.LBI1262:
 136:BowBox.h      ****         // Mix Source with Feedback
 2148              		.loc 13 136 11 view .LVU516
 2149              	.LBB1339:
 141:BowBox.h      **** 
 2150              		.loc 13 141 9 view .LVU517
 2151              	.LBB1287:
 2152              	.LBB1288:
  72:../DaisyExamples/DaisySP//Source/Utility/delayline.h ****         T b = line_[(write_ptr_ + delay_ + 1) % max_size];
 2153              		.loc 14 72 33 is_stmt 0 view .LVU518
 2154 05a4 D1F82C0A 		ldr	r0, [r1, #2604]
 2155              	.LBE1288:
 2156              	.LBE1287:
 141:BowBox.h      **** 
 2157              		.loc 13 141 38 view .LVU519
 2158 05a8 0A46     		mov	r2, r1
 2159              	.LBB1297:
 2160              	.LBB1278:
  64:../DaisyExamples/DaisySP//Source/Utility/delayline.h ****         write_ptr_        = (write_ptr_ - 1 + max_size) % max_size;
ARM GAS  /var/folders/1p/hl98tgf51p19ck4ldyh6xb6c0000gn/T//cc56AY3v.s 			page 64


 2161              		.loc 14 64 15 view .LVU520
 2162 05aa D1F8283A 		ldr	r3, [r1, #2600]
 2163              	.LBE1278:
 2164              	.LBE1297:
 141:BowBox.h      **** 
 2165              		.loc 13 141 38 view .LVU521
 2166 05ae 01F61C21 		addw	r1, r1, #2588
 2167              	.LBB1298:
 2168              	.LBB1266:
  77:BowBox.h      **** 
 2169              		.loc 13 77 39 view .LVU522
 2170 05b2 98ED6C6A 		vldr.32	s12, [r8, #432]
 2171              	.LBE1266:
 2172              	.LBE1298:
 2173              	.LBB1299:
 2174              	.LBB1279:
  65:../DaisyExamples/DaisySP//Source/Utility/delayline.h ****     }
 2175              		.loc 14 65 45 view .LVU523
 2176 05b6 03F2DB5C 		addw	ip, r3, #1499
 2177              	.LBE1279:
 2178              	.LBE1299:
 141:BowBox.h      **** 
 2179              		.loc 13 141 21 view .LVU524
 2180 05ba D1ED006A 		vldr.32	s13, [r1]
 2181              	.LBB1300:
 2182              	.LBB1280:
  65:../DaisyExamples/DaisySP//Source/Utility/delayline.h ****     }
 2183              		.loc 14 65 57 view .LVU525
 2184 05be D149     		ldr	r1, .L75+12
 2185              	.LBE1280:
 2186              	.LBE1300:
 2187              	.LBB1301:
 2188              	.LBB1267:
  77:BowBox.h      **** 
 2189              		.loc 13 77 33 view .LVU526
 2190 05c0 67EEC67A 		vnmul.f32	s15, s15, s12
  77:BowBox.h      **** 
 2191              		.loc 13 77 29 view .LVU527
 2192 05c4 98ED705A 		vldr.32	s10, [r8, #448]
 2193              	.LBE1267:
 2194              	.LBE1301:
 141:BowBox.h      **** 
 2195              		.loc 13 141 21 view .LVU528
 2196 05c8 77EE266A 		vadd.f32	s13, s14, s13
 2197              	.LVL73:
 147:BowBox.h      **** 
 2198              		.loc 13 147 9 is_stmt 1 view .LVU529
 2199              	.LBB1302:
 2200              	.LBI1264:
  76:BowBox.h      ****         float output = b_ * y1_ - a1_ * y2_ - a2_ * x2_ + input;
 2201              		.loc 13 76 11 view .LVU530
 2202              	.LBB1268:
  77:BowBox.h      **** 
 2203              		.loc 13 77 9 view .LVU531
 2204              	.LBE1268:
 2205              	.LBE1302:
 2206              	.LBB1303:
ARM GAS  /var/folders/1p/hl98tgf51p19ck4ldyh6xb6c0000gn/T//cc56AY3v.s 			page 65


 2207              	.LBB1281:
  65:../DaisyExamples/DaisySP//Source/Utility/delayline.h ****     }
 2208              		.loc 14 65 57 is_stmt 0 view .LVU532
 2209 05cc A1FB0CE1 		umull	lr, r1, r1, ip
 2210              	.LBE1281:
 2211              	.LBE1303:
 2212              	.LBB1304:
 2213              	.LBB1269:
  77:BowBox.h      **** 
 2214              		.loc 13 77 33 view .LVU533
 2215 05d0 98ED6B3A 		vldr.32	s6, [r8, #428]
  77:BowBox.h      **** 
 2216              		.loc 13 77 45 view .LVU534
 2217 05d4 D8ED6F4A 		vldr.32	s9, [r8, #444]
 2218              	.LBE1269:
 2219              	.LBE1304:
 2220              	.LBB1305:
 2221              	.LBB1306:
 2222              		.loc 15 76 31 view .LVU535
 2223 05d8 B0EEC76A 		vabs.f32	s12, s14
 2224              	.LBE1306:
 2225              	.LBE1305:
 2226              	.LBB1308:
 2227              	.LBB1282:
  65:../DaisyExamples/DaisySP//Source/Utility/delayline.h ****     }
 2228              		.loc 14 65 57 view .LVU536
 2229 05dc 4909     		lsrs	r1, r1, #5
 2230              	.LBE1282:
 2231              	.LBE1308:
 2232              	.LBB1309:
 2233              	.LBB1270:
  77:BowBox.h      **** 
 2234              		.loc 13 77 33 view .LVU537
 2235 05de E3EE057A 		vfma.f32	s15, s6, s10
  77:BowBox.h      **** 
 2236              		.loc 13 77 45 view .LVU538
 2237 05e2 98ED6D4A 		vldr.32	s8, [r8, #436]
 2238              	.LBE1270:
 2239              	.LBE1309:
 2240              	.LBB1310:
 2241              	.LBB1283:
  65:../DaisyExamples/DaisySP//Source/Utility/delayline.h ****     }
 2242              		.loc 14 65 57 view .LVU539
 2243 05e6 0AFB11C1 		mls	r1, r10, r1, ip
 2244              	.LBE1283:
 2245              	.LBE1310:
 2246              	.LBB1311:
 2247              	.LBB1271:
  84:BowBox.h      ****         y1_ = output;
 2248              		.loc 13 84 13 view .LVU540
 2249 05ea 88ED715A 		vstr.32	s10, [r8, #452]
 2250              	.LBE1271:
 2251              	.LBE1311:
 2252              	.LBB1312:
 2253              	.LBB1289:
  72:../DaisyExamples/DaisySP//Source/Utility/delayline.h ****         T b = line_[(write_ptr_ + delay_ + 1) % max_size];
 2254              		.loc 14 72 33 view .LVU541
ARM GAS  /var/folders/1p/hl98tgf51p19ck4ldyh6xb6c0000gn/T//cc56AY3v.s 			page 66


 2255 05ee 0844     		add	r0, r0, r1
 2256              	.LBE1289:
 2257              	.LBE1312:
 2258              	.LBB1313:
 2259              	.LBB1284:
  65:../DaisyExamples/DaisySP//Source/Utility/delayline.h ****     }
 2260              		.loc 14 65 27 view .LVU542
 2261 05f0 C2F8281A 		str	r1, [r2, #2600]
  64:../DaisyExamples/DaisySP//Source/Utility/delayline.h ****         write_ptr_        = (write_ptr_ - 1 + max_size) % max_size;
 2262              		.loc 14 64 27 view .LVU543
 2263 05f4 02F62821 		addw	r1, r2, #2600
 2264              	.LBE1284:
 2265              	.LBE1313:
 2266              	.LBB1314:
 2267              	.LBB1290:
  72:../DaisyExamples/DaisySP//Source/Utility/delayline.h ****         T b = line_[(write_ptr_ + delay_ + 1) % max_size];
 2268              		.loc 14 72 43 view .LVU544
 2269 05f8 C24A     		ldr	r2, .L75+12
  73:../DaisyExamples/DaisySP//Source/Utility/delayline.h ****         return a + (b - a) * frac_;
 2270              		.loc 14 73 42 view .LVU545
 2271 05fa 00F1010E 		add	lr, r0, #1
 2272              	.LBE1290:
 2273              	.LBE1314:
 2274              	.LBB1315:
 2275              	.LBB1272:
  77:BowBox.h      **** 
 2276              		.loc 13 77 45 view .LVU546
 2277 05fe E4EE647A 		vfms.f32	s15, s8, s9
 2278              	.LBE1272:
 2279              	.LBE1315:
 2280              	.LBB1316:
 2281              	.LBB1285:
  64:../DaisyExamples/DaisySP//Source/Utility/delayline.h ****         write_ptr_        = (write_ptr_ - 1 + max_size) % max_size;
 2282              		.loc 14 64 27 view .LVU547
 2283 0602 01EB830C 		add	ip, r1, r3, lsl #2
 2284              	.LBE1285:
 2285              	.LBE1316:
 2286              	.LBB1317:
 2287              	.LBB1291:
  72:../DaisyExamples/DaisySP//Source/Utility/delayline.h ****         T b = line_[(write_ptr_ + delay_ + 1) % max_size];
 2288              		.loc 14 72 43 view .LVU548
 2289 0606 A2FB00B3 		umull	fp, r3, r2, r0
  73:../DaisyExamples/DaisySP//Source/Utility/delayline.h ****         return a + (b - a) * frac_;
 2290              		.loc 14 73 47 view .LVU549
 2291 060a A2FB0EB2 		umull	fp, r2, r2, lr
  72:../DaisyExamples/DaisySP//Source/Utility/delayline.h ****         T b = line_[(write_ptr_ + delay_ + 1) % max_size];
 2292              		.loc 14 72 43 view .LVU550
 2293 060e 5B09     		lsrs	r3, r3, #5
  73:../DaisyExamples/DaisySP//Source/Utility/delayline.h ****         return a + (b - a) * frac_;
 2294              		.loc 14 73 47 view .LVU551
 2295 0610 5209     		lsrs	r2, r2, #5
  72:../DaisyExamples/DaisySP//Source/Utility/delayline.h ****         T b = line_[(write_ptr_ + delay_ + 1) % max_size];
 2296              		.loc 14 72 43 view .LVU552
 2297 0612 0AFB1303 		mls	r3, r10, r3, r0
  73:../DaisyExamples/DaisySP//Source/Utility/delayline.h ****         return a + (b - a) * frac_;
 2298              		.loc 14 73 47 view .LVU553
 2299 0616 0AFB12EE 		mls	lr, r10, r2, lr
ARM GAS  /var/folders/1p/hl98tgf51p19ck4ldyh6xb6c0000gn/T//cc56AY3v.s 			page 67


 2300              	.LBE1291:
 2301              	.LBE1317:
 2302              	.LBB1318:
 2303              	.LBB1273:
  77:BowBox.h      **** 
 2304              		.loc 13 77 15 view .LVU554
 2305 061a 76EEA77A 		vadd.f32	s15, s13, s15
 2306              	.LVL74:
  80:BowBox.h      ****         x1_ = input;
 2307              		.loc 13 80 9 is_stmt 1 view .LVU555
  80:BowBox.h      ****         x1_ = input;
 2308              		.loc 13 80 13 is_stmt 0 view .LVU556
 2309 061e D8F8B821 		ldr	r2, [r8, #440]	@ float
 2310              	.LBE1273:
 2311              	.LBE1318:
 2312              	.LBB1319:
 2313              	.LBB1292:
  72:../DaisyExamples/DaisySP//Source/Utility/delayline.h ****         T b = line_[(write_ptr_ + delay_ + 1) % max_size];
 2314              		.loc 14 72 11 view .LVU557
 2315 0622 01EB8303 		add	r3, r1, r3, lsl #2
  73:../DaisyExamples/DaisySP//Source/Utility/delayline.h ****         return a + (b - a) * frac_;
 2316              		.loc 14 73 11 view .LVU558
 2317 0626 01EB8E01 		add	r1, r1, lr, lsl #2
 2318              	.LBE1292:
 2319              	.LBE1319:
 2320              	.LBB1320:
 2321              	.LBB1274:
  81:BowBox.h      **** 
 2322              		.loc 13 81 13 view .LVU559
 2323 062a C8ED6E6A 		vstr.32	s13, [r8, #440]
  80:BowBox.h      ****         x1_ = input;
 2324              		.loc 13 80 13 view .LVU560
 2325 062e C8F8BC21 		str	r2, [r8, #444]	@ float
  81:BowBox.h      **** 
 2326              		.loc 13 81 9 is_stmt 1 view .LVU561
  84:BowBox.h      ****         y1_ = output;
 2327              		.loc 13 84 9 view .LVU562
  85:BowBox.h      **** 
 2328              		.loc 13 85 9 view .LVU563
  87:BowBox.h      ****     }
 2329              		.loc 13 87 9 view .LVU564
 2330              	.LVL75:
  87:BowBox.h      ****     }
 2331              		.loc 13 87 9 is_stmt 0 view .LVU565
 2332              	.LBE1274:
 2333              	.LBE1320:
 150:BowBox.h      **** 
 2334              		.loc 13 150 9 is_stmt 1 view .LVU566
 2335              	.LBB1321:
 2336              	.LBI1276:
  62:../DaisyExamples/DaisySP//Source/Utility/delayline.h ****     {
 2337              		.loc 14 62 17 view .LVU567
  62:../DaisyExamples/DaisySP//Source/Utility/delayline.h ****     {
 2338              		.loc 14 62 17 is_stmt 0 view .LVU568
 2339              	.LBE1321:
 153:BowBox.h      **** 
 2340              		.loc 13 153 9 is_stmt 1 view .LVU569
ARM GAS  /var/folders/1p/hl98tgf51p19ck4ldyh6xb6c0000gn/T//cc56AY3v.s 			page 68


 2341              	.LBB1322:
 2342              	.LBI1287:
  70:../DaisyExamples/DaisySP//Source/Utility/delayline.h ****     {
 2343              		.loc 14 70 20 view .LVU570
 2344              	.LBB1293:
 2345              		.loc 14 74 30 is_stmt 0 view .LVU571
 2346 0632 B54A     		ldr	r2, .L75+16
 2347              	.LBE1293:
 2348              	.LBE1322:
 2349              	.LBB1323:
 2350              	.LBB1275:
  85:BowBox.h      **** 
 2351              		.loc 13 85 13 view .LVU572
 2352 0634 C8ED707A 		vstr.32	s15, [r8, #448]
 2353              	.LBE1275:
 2354              	.LBE1323:
 2355              	.LBB1324:
 2356              	.LBB1286:
  64:../DaisyExamples/DaisySP//Source/Utility/delayline.h ****         write_ptr_        = (write_ptr_ - 1 + max_size) % max_size;
 2357              		.loc 14 64 27 view .LVU573
 2358 0638 CCED027A 		vstr.32	s15, [ip, #8]
 2359              	.LBE1286:
 2360              	.LBE1324:
 2361              	.LBB1325:
 2362              	.LBB1294:
  72:../DaisyExamples/DaisySP//Source/Utility/delayline.h ****         T b = line_[(write_ptr_ + delay_ + 1) % max_size];
 2363              		.loc 14 72 11 view .LVU574
 2364 063c D3ED026A 		vldr.32	s13, [r3, #8]
 2365              	.LVL76:
 2366              		.loc 14 74 30 view .LVU575
 2367 0640 02F62423 		addw	r3, r2, #2596
 2368              		.loc 14 74 23 view .LVU576
 2369 0644 D1ED027A 		vldr.32	s15, [r1, #8]
 2370              	.LVL77:
 2371              		.loc 14 74 30 view .LVU577
 2372 0648 93ED005A 		vldr.32	s10, [r3]
 2373              	.LBE1294:
 2374              	.LBE1325:
 156:BowBox.h      **** 
 2375              		.loc 13 156 66 view .LVU578
 2376 064c 02F52263 		add	r3, r2, #2592
 2377              	.LBB1326:
 2378              	.LBB1295:
 2379              		.loc 14 74 23 view .LVU579
 2380 0650 77EEE67A 		vsub.f32	s15, s15, s13
 2381              	.LBE1295:
 2382              	.LBE1326:
 156:BowBox.h      **** 
 2383              		.loc 13 156 66 view .LVU580
 2384 0654 D3ED004A 		vldr.32	s9, [r3]
 2385              	.LBB1327:
 2386              	.LBB1296:
 2387              		.loc 14 74 30 view .LVU581
 2388 0658 E7EE856A 		vfma.f32	s13, s15, s10
 2389              	.LVL78:
 2390              		.loc 14 74 30 view .LVU582
 2391              	.LBE1296:
ARM GAS  /var/folders/1p/hl98tgf51p19ck4ldyh6xb6c0000gn/T//cc56AY3v.s 			page 69


 2392              	.LBE1327:
 156:BowBox.h      **** 
 2393              		.loc 13 156 9 is_stmt 1 view .LVU583
 2394              	.LBB1328:
 2395              	.LBI1305:
  75:/Applications/ARM/arm-none-eabi/include/c++/10.3.1/bits/std_abs.h ****   { return __builtin_fabsf(__x); }
 2396              		.loc 15 75 3 view .LVU584
 2397              	.LBB1307:
 2398              		.loc 15 76 5 view .LVU585
 2399              		.loc 15 76 5 is_stmt 0 view .LVU586
 2400              	.LBE1307:
 2401              	.LBE1328:
 156:BowBox.h      **** 
 2402              		.loc 13 156 39 view .LVU587
 2403 065c 66EE247A 		vmul.f32	s15, s12, s9
 2404              	.LVL79:
 2405              	.LBB1329:
 2406              	.LBI1329:
  75:/Applications/ARM/arm-none-eabi/include/c++/10.3.1/bits/std_abs.h ****   { return __builtin_fabsf(__x); }
 2407              		.loc 15 75 3 is_stmt 1 view .LVU588
 2408              	.LBB1330:
 2409              		.loc 15 76 5 view .LVU589
 2410              		.loc 15 76 5 is_stmt 0 view .LVU590
 2411              	.LBE1330:
 2412              	.LBE1329:
 2413              	.LBB1332:
 2414              	.LBI1332:
  13:BowBox.h      ****     float totalVelocity = (initialVelocity + relativeVelocity);
 2415              		.loc 13 13 7 is_stmt 1 view .LVU591
 2416              	.LBB1333:
  14:BowBox.h      ****     if (totalVelocity == 0)
 2417              		.loc 13 14 5 view .LVU592
  14:BowBox.h      ****     if (totalVelocity == 0)
 2418              		.loc 13 14 11 is_stmt 0 view .LVU593
 2419 0660 B0EE676A 		vmov.f32	s12, s15
 2420              	.LBE1333:
 2421              	.LBE1332:
 156:BowBox.h      **** 
 2422              		.loc 13 156 80 view .LVU594
 2423 0664 37EE265A 		vadd.f32	s10, s14, s13
 2424              	.LBB1336:
 2425              	.LBB1331:
 2426              		.loc 15 76 31 view .LVU595
 2427 0668 B0EEC55A 		vabs.f32	s10, s10
 2428              	.LBE1331:
 2429              	.LBE1336:
 2430              	.LBB1337:
 2431              	.LBB1334:
  14:BowBox.h      ****     if (totalVelocity == 0)
 2432              		.loc 13 14 11 view .LVU596
 2433 066c A4EE856A 		vfma.f32	s12, s9, s10
 2434              	.LVL80:
  15:BowBox.h      ****         return 0;
 2435              		.loc 13 15 5 is_stmt 1 view .LVU597
 2436 0670 B5EE406A 		vcmp.f32	s12, #0
 2437 0674 F1EE10FA 		vmrs	APSR_nzcv, FPSCR
 2438 0678 01F09C84 		beq	.L45
ARM GAS  /var/folders/1p/hl98tgf51p19ck4ldyh6xb6c0000gn/T//cc56AY3v.s 			page 70


  18:BowBox.h      **** }
 2439              		.loc 13 18 9 view .LVU598
  18:BowBox.h      **** }
 2440              		.loc 13 18 71 is_stmt 0 view .LVU599
 2441 067c 9FED9F5A 		vldr.32	s10, .L75+4
  18:BowBox.h      **** }
 2442              		.loc 13 18 105 view .LVU600
 2443 0680 DFED9F4A 		vldr.32	s9, .L75+8
 2444              	.LVL81:
  18:BowBox.h      **** }
 2445              		.loc 13 18 71 view .LVU601
 2446 0684 67EE857A 		vmul.f32	s15, s15, s10
 2447              	.LVL82:
  18:BowBox.h      **** }
 2448              		.loc 13 18 90 view .LVU602
 2449 0688 87EE865A 		vdiv.f32	s10, s15, s12
  18:BowBox.h      **** }
 2450              		.loc 13 18 105 view .LVU603
 2451 068c 35EE245A 		vadd.f32	s10, s10, s9
 2452              	.L20:
 2453              	.LVL83:
  18:BowBox.h      **** }
 2454              		.loc 13 18 105 view .LVU604
 2455              	.LBE1334:
 2456              	.LBE1337:
 2457              	.LBE1339:
 2458              	.LBE1348:
 2459              	.LBB1349:
 2460              	.LBB1350:
 141:BowBox.h      **** 
 2461              		.loc 13 141 21 view .LVU605
 2462 0690 9E48     		ldr	r0, .L75+20
 2463              	.LBE1350:
 2464              	.LBE1349:
 2465              	.LBB1434:
 2466              	.LBB1340:
 159:BowBox.h      **** 
 2467              		.loc 13 159 27 view .LVU606
 2468 0692 25EE264A 		vmul.f32	s8, s10, s13
 2469 0696 77EE666A 		vsub.f32	s13, s14, s13
 2470              	.LVL84:
 159:BowBox.h      **** 
 2471              		.loc 13 159 27 view .LVU607
 2472              	.LBE1340:
 2473              	.LBE1434:
 2474              	.LBB1435:
 2475              	.LBB1425:
 2476              	.LBB1351:
 2477              	.LBB1352:
  64:../DaisyExamples/DaisySP//Source/Utility/delayline.h ****         write_ptr_        = (write_ptr_ - 1 + max_size) % max_size;
 2478              		.loc 14 64 15 view .LVU608
 2479 069a D0F8D022 		ldr	r2, [r0, #720]
 2480              	.LBE1352:
 2481              	.LBE1351:
 2482              	.LBB1360:
 2483              	.LBB1361:
  77:BowBox.h      **** 
ARM GAS  /var/folders/1p/hl98tgf51p19ck4ldyh6xb6c0000gn/T//cc56AY3v.s 			page 71


 2484              		.loc 13 77 41 view .LVU609
 2485 069e 00F58051 		add	r1, r0, #4096
  77:BowBox.h      **** 
 2486              		.loc 13 77 41 view .LVU610
 2487              	.LBE1361:
 2488              	.LBE1360:
 156:BowBox.h      **** 
 2489              		.loc 13 156 66 view .LVU611
 2490 06a2 D0EDB24A 		vldr.32	s9, [r0, #712]
 2491              	.LBB1375:
 2492              	.LBB1353:
  65:../DaisyExamples/DaisySP//Source/Utility/delayline.h ****     }
 2493              		.loc 14 65 45 view .LVU612
 2494 06a6 02F2DB5A 		addw	r10, r2, #1499
 2495              	.LBE1353:
 2496              	.LBE1375:
 2497              	.LBB1376:
 2498              	.LBB1362:
  77:BowBox.h      **** 
 2499              		.loc 13 77 41 view .LVU613
 2500 06aa 01F66C23 		addw	r3, r1, #2668
 2501              	.LBE1362:
 2502              	.LBE1376:
 2503              	.LBB1377:
 2504              	.LBB1354:
  64:../DaisyExamples/DaisySP//Source/Utility/delayline.h ****         write_ptr_        = (write_ptr_ - 1 + max_size) % max_size;
 2505              		.loc 14 64 27 view .LVU614
 2506 06ae 00EB820C 		add	ip, r0, r2, lsl #2
 2507              	.LVL85:
  64:../DaisyExamples/DaisySP//Source/Utility/delayline.h ****         write_ptr_        = (write_ptr_ - 1 + max_size) % max_size;
 2508              		.loc 14 64 27 view .LVU615
 2509              	.LBE1354:
 2510              	.LBE1377:
 2511              	.LBB1378:
 2512              	.LBB1363:
  77:BowBox.h      **** 
 2513              		.loc 13 77 35 view .LVU616
 2514 06b2 01F65821 		addw	r1, r1, #2648
  77:BowBox.h      **** 
 2515              		.loc 13 77 29 view .LVU617
 2516 06b6 00F58052 		add	r2, r0, #4096
  77:BowBox.h      **** 
 2517              		.loc 13 77 39 view .LVU618
 2518 06ba D3ED007A 		vldr.32	s15, [r3]
 2519 06be 91ED007A 		vldr.32	s14, [r1]
 2520              	.LVL86:
  77:BowBox.h      **** 
 2521              		.loc 13 77 24 view .LVU619
 2522 06c2 183B     		subs	r3, r3, #24
  77:BowBox.h      **** 
 2523              		.loc 13 77 29 view .LVU620
 2524 06c4 02F66822 		addw	r2, r2, #2664
 2525              	.LBE1363:
 2526              	.LBE1378:
 2527              	.LBB1379:
 2528              	.LBB1355:
  65:../DaisyExamples/DaisySP//Source/Utility/delayline.h ****     }
ARM GAS  /var/folders/1p/hl98tgf51p19ck4ldyh6xb6c0000gn/T//cc56AY3v.s 			page 72


 2529              		.loc 14 65 57 view .LVU621
 2530 06c8 8E49     		ldr	r1, .L75+12
 2531              	.LBE1355:
 2532              	.LBE1379:
 2533              	.LBB1380:
 2534              	.LBB1364:
  77:BowBox.h      **** 
 2535              		.loc 13 77 33 view .LVU622
 2536 06ca 67EEC77A 		vnmul.f32	s15, s15, s14
 2537              	.LBE1364:
 2538              	.LBE1380:
 141:BowBox.h      **** 
 2539              		.loc 13 141 21 view .LVU623
 2540 06ce 90EDB16A 		vldr.32	s12, [r0, #708]
 2541              	.LBB1381:
 2542              	.LBB1365:
  77:BowBox.h      **** 
 2543              		.loc 13 77 29 view .LVU624
 2544 06d2 92ED007A 		vldr.32	s14, [r2]
 2545              	.LBE1365:
 2546              	.LBE1381:
 156:BowBox.h      **** 
 2547              		.loc 13 156 39 view .LVU625
 2548 06d6 64EEA55A 		vmul.f32	s11, s9, s11
 2549              	.LBB1382:
 2550              	.LBB1383:
 2551              		.loc 14 74 30 view .LVU626
 2552 06da D0EDB33A 		vldr.32	s7, [r0, #716]
 2553              	.LBE1383:
 2554              	.LBE1382:
 141:BowBox.h      **** 
 2555              		.loc 13 141 21 view .LVU627
 2556 06de 3AEE866A 		vadd.f32	s12, s21, s12
 2557              	.LBB1392:
 2558              	.LBB1366:
  84:BowBox.h      ****         y1_ = output;
 2559              		.loc 13 84 13 view .LVU628
 2560 06e2 83ED067A 		vstr.32	s14, [r3, #24]
  77:BowBox.h      **** 
 2561              		.loc 13 77 33 view .LVU629
 2562 06e6 93ED003A 		vldr.32	s6, [r3]
 2563              	.LBE1366:
 2564              	.LBE1392:
 2565              	.LBB1393:
 2566              	.LBB1356:
  65:../DaisyExamples/DaisySP//Source/Utility/delayline.h ****     }
 2567              		.loc 14 65 57 view .LVU630
 2568 06ea A1FB0AE3 		umull	lr, r3, r1, r10
 2569 06ee 40F2DC5E 		movw	lr, #1500
 2570 06f2 5B09     		lsrs	r3, r3, #5
 2571              	.LBE1356:
 2572              	.LBE1393:
 2573              	.LBB1394:
 2574              	.LBB1367:
  77:BowBox.h      **** 
 2575              		.loc 13 77 33 view .LVU631
 2576 06f4 E3EE077A 		vfma.f32	s15, s6, s14
ARM GAS  /var/folders/1p/hl98tgf51p19ck4ldyh6xb6c0000gn/T//cc56AY3v.s 			page 73


 2577              	.LBE1367:
 2578              	.LBE1394:
 2579              	.LBB1395:
 2580              	.LBB1357:
  65:../DaisyExamples/DaisySP//Source/Utility/delayline.h ****     }
 2581              		.loc 14 65 57 view .LVU632
 2582 06f8 0EFB13A3 		mls	r3, lr, r3, r10
 2583              	.LBE1357:
 2584              	.LBE1395:
 2585              	.LBB1396:
 2586              	.LBB1368:
  77:BowBox.h      **** 
 2587              		.loc 13 77 53 view .LVU633
 2588 06fc A2F1040A 		sub	r10, r2, #4
 2589              	.LBE1368:
 2590              	.LBE1396:
 2591              	.LBB1397:
 2592              	.LBB1358:
  65:../DaisyExamples/DaisySP//Source/Utility/delayline.h ****     }
 2593              		.loc 14 65 27 view .LVU634
 2594 0700 C0F8D032 		str	r3, [r0, #720]
 2595              	.LBE1358:
 2596              	.LBE1397:
 2597              	.LBB1398:
 2598              	.LBB1384:
  72:../DaisyExamples/DaisySP//Source/Utility/delayline.h ****         T b = line_[(write_ptr_ + delay_ + 1) % max_size];
 2599              		.loc 14 72 33 view .LVU635
 2600 0704 D0F8D402 		ldr	r0, [r0, #724]
 2601              	.LBE1384:
 2602              	.LBE1398:
 2603              	.LBB1399:
 2604              	.LBB1369:
  77:BowBox.h      **** 
 2605              		.loc 13 77 45 view .LVU636
 2606 0708 9AED007A 		vldr.32	s14, [r10]
 2607              	.LBE1369:
 2608              	.LBE1399:
 2609              	.LBB1400:
 2610              	.LBB1385:
  72:../DaisyExamples/DaisySP//Source/Utility/delayline.h ****         T b = line_[(write_ptr_ + delay_ + 1) % max_size];
 2611              		.loc 14 72 33 view .LVU637
 2612 070c 0344     		add	r3, r3, r0
 2613              	.LBE1385:
 2614              	.LBE1400:
 2615              	.LBB1401:
 2616              	.LBB1370:
  77:BowBox.h      **** 
 2617              		.loc 13 77 47 view .LVU638
 2618 070e A2F10C00 		sub	r0, r2, #12
  77:BowBox.h      **** 
 2619              		.loc 13 77 45 view .LVU639
 2620 0712 90ED003A 		vldr.32	s6, [r0]
 2621              	.LBE1370:
 2622              	.LBE1401:
 2623              	.LBB1402:
 2624              	.LBB1386:
  73:../DaisyExamples/DaisySP//Source/Utility/delayline.h ****         return a + (b - a) * frac_;
ARM GAS  /var/folders/1p/hl98tgf51p19ck4ldyh6xb6c0000gn/T//cc56AY3v.s 			page 74


 2625              		.loc 14 73 42 view .LVU640
 2626 0716 581C     		adds	r0, r3, #1
 2627              	.LBE1386:
 2628              	.LBE1402:
 2629              	.LBB1403:
 2630              	.LBB1371:
  77:BowBox.h      **** 
 2631              		.loc 13 77 45 view .LVU641
 2632 0718 E3EE477A 		vfms.f32	s15, s6, s14
  77:BowBox.h      **** 
 2633              		.loc 13 77 15 view .LVU642
 2634 071c 76EE277A 		vadd.f32	s15, s12, s15
  85:BowBox.h      **** 
 2635              		.loc 13 85 13 view .LVU643
 2636 0720 C2ED007A 		vstr.32	s15, [r2]
 2637              	.LBE1371:
 2638              	.LBE1403:
 2639              	.LBB1404:
 2640              	.LBB1387:
  72:../DaisyExamples/DaisySP//Source/Utility/delayline.h ****         T b = line_[(write_ptr_ + delay_ + 1) % max_size];
 2641              		.loc 14 72 43 view .LVU644
 2642 0724 A1FB03B2 		umull	fp, r2, r1, r3
  73:../DaisyExamples/DaisySP//Source/Utility/delayline.h ****         return a + (b - a) * frac_;
 2643              		.loc 14 73 47 view .LVU645
 2644 0728 A1FB00B1 		umull	fp, r1, r1, r0
  72:../DaisyExamples/DaisySP//Source/Utility/delayline.h ****         T b = line_[(write_ptr_ + delay_ + 1) % max_size];
 2645              		.loc 14 72 43 view .LVU646
 2646 072c 5209     		lsrs	r2, r2, #5
  73:../DaisyExamples/DaisySP//Source/Utility/delayline.h ****         return a + (b - a) * frac_;
 2647              		.loc 14 73 47 view .LVU647
 2648 072e 4909     		lsrs	r1, r1, #5
  72:../DaisyExamples/DaisySP//Source/Utility/delayline.h ****         T b = line_[(write_ptr_ + delay_ + 1) % max_size];
 2649              		.loc 14 72 43 view .LVU648
 2650 0730 0EFB1233 		mls	r3, lr, r2, r3
  72:../DaisyExamples/DaisySP//Source/Utility/delayline.h ****         T b = line_[(write_ptr_ + delay_ + 1) % max_size];
 2651              		.loc 14 72 11 view .LVU649
 2652 0734 754A     		ldr	r2, .L75+20
  73:../DaisyExamples/DaisySP//Source/Utility/delayline.h ****         return a + (b - a) * frac_;
 2653              		.loc 14 73 47 view .LVU650
 2654 0736 0EFB1100 		mls	r0, lr, r1, r0
  72:../DaisyExamples/DaisySP//Source/Utility/delayline.h ****         T b = line_[(write_ptr_ + delay_ + 1) % max_size];
 2655              		.loc 14 72 11 view .LVU651
 2656 073a 02EB8303 		add	r3, r2, r3, lsl #2
 2657              	.LBE1387:
 2658              	.LBE1404:
 2659              	.LBB1405:
 2660              	.LBB1372:
  80:BowBox.h      ****         x1_ = input;
 2661              		.loc 13 80 15 view .LVU652
 2662 073e 02F5D351 		add	r1, r2, #6752
 2663              	.LBE1372:
 2664              	.LBE1405:
 2665              	.LBB1406:
 2666              	.LBB1388:
  73:../DaisyExamples/DaisySP//Source/Utility/delayline.h ****         return a + (b - a) * frac_;
 2667              		.loc 14 73 11 view .LVU653
 2668 0742 02EB8000 		add	r0, r2, r0, lsl #2
ARM GAS  /var/folders/1p/hl98tgf51p19ck4ldyh6xb6c0000gn/T//cc56AY3v.s 			page 75


 2669              	.LBE1388:
 2670              	.LBE1406:
 2671              	.LBE1425:
 2672              	.LBE1435:
 2673              	.LBB1436:
 2674              	.LBB1341:
 156:BowBox.h      **** 
 2675              		.loc 13 156 23 view .LVU654
 2676 0746 A2F5A042 		sub	r2, r2, #20480
 2677 074a 02F61822 		addw	r2, r2, #2584
 2678 074e 82ED005A 		vstr.32	s10, [r2]
 159:BowBox.h      **** 
 2679              		.loc 13 159 9 is_stmt 1 view .LVU655
 2680              	.LBE1341:
 2681              	.LBE1436:
 2682              	.LBB1437:
 2683              	.LBB1426:
 2684              	.LBB1407:
 2685              	.LBB1373:
  80:BowBox.h      ****         x1_ = input;
 2686              		.loc 13 80 13 is_stmt 0 view .LVU656
 2687 0752 0A68     		ldr	r2, [r1]	@ float
  81:BowBox.h      **** 
 2688              		.loc 13 81 13 view .LVU657
 2689 0754 81ED006A 		vstr.32	s12, [r1]
  80:BowBox.h      ****         x1_ = input;
 2690              		.loc 13 80 13 view .LVU658
 2691 0758 CAF80020 		str	r2, [r10]	@ float
 2692              	.LBE1373:
 2693              	.LBE1407:
 2694              	.LBB1408:
 2695              	.LBB1359:
  64:../DaisyExamples/DaisySP//Source/Utility/delayline.h ****         write_ptr_        = (write_ptr_ - 1 + max_size) % max_size;
 2696              		.loc 14 64 27 view .LVU659
 2697 075c CCEDB67A 		vstr.32	s15, [ip, #728]
 2698              	.LBE1359:
 2699              	.LBE1408:
 2700              	.LBB1409:
 2701              	.LBB1389:
  72:../DaisyExamples/DaisySP//Source/Utility/delayline.h ****         T b = line_[(write_ptr_ + delay_ + 1) % max_size];
 2702              		.loc 14 72 11 view .LVU660
 2703 0760 D3EDB67A 		vldr.32	s15, [r3, #728]
 2704              		.loc 14 74 23 view .LVU661
 2705 0764 90EDB67A 		vldr.32	s14, [r0, #728]
 2706              	.LBE1389:
 2707              	.LBE1409:
 2708              	.LBE1426:
 2709              	.LBE1437:
 2710              	.LBB1438:
 2711              	.LBB1342:
 159:BowBox.h      **** 
 2712              		.loc 13 159 18 view .LVU662
 2713 0768 674A     		ldr	r2, .L75+16
 2714              	.LBE1342:
 2715              	.LBE1438:
 2716              	.LBB1439:
 2717              	.LBB1427:
ARM GAS  /var/folders/1p/hl98tgf51p19ck4ldyh6xb6c0000gn/T//cc56AY3v.s 			page 76


 2718              	.LBB1410:
 2719              	.LBB1390:
 2720              		.loc 14 74 23 view .LVU663
 2721 076a 37EE677A 		vsub.f32	s14, s14, s15
 2722              	.LBE1390:
 2723              	.LBE1410:
 2724              	.LBE1427:
 2725              	.LBE1439:
 2726              	.LBB1440:
 2727              	.LBB1343:
 159:BowBox.h      **** 
 2728              		.loc 13 159 18 view .LVU664
 2729 076e 02F61C23 		addw	r3, r2, #2588
 2730              	.LBE1343:
 2731              	.LBE1440:
 2732              	.LBB1441:
 2733              	.LBB1428:
 2734              	.LBB1411:
 2735              	.LBB1391:
 2736              		.loc 14 74 30 view .LVU665
 2737 0772 E7EE237A 		vfma.f32	s15, s14, s7
 2738              	.LBE1391:
 2739              	.LBE1411:
 2740              	.LBE1428:
 2741              	.LBE1441:
 2742              	.LBB1442:
 2743              	.LBB1344:
 159:BowBox.h      **** 
 2744              		.loc 13 159 18 view .LVU666
 2745 0776 83ED004A 		vstr.32	s8, [r3]
 2746              	.LBE1344:
 2747              	.LBE1442:
 2748              	.LBB1443:
 2749              	.LBB1429:
 2750              	.LBB1412:
 2751              	.LBB1413:
  14:BowBox.h      ****     if (totalVelocity == 0)
 2752              		.loc 13 14 11 view .LVU667
 2753 077a B0EE657A 		vmov.f32	s14, s11
 2754              	.LBE1413:
 2755              	.LBE1412:
 156:BowBox.h      **** 
 2756              		.loc 13 156 80 view .LVU668
 2757 077e 7AEEA7AA 		vadd.f32	s21, s21, s15
 2758              	.LVL87:
 2759              	.LBB1416:
 2760              	.LBB1417:
 2761              		.loc 15 76 31 view .LVU669
 2762 0782 F0EEEAAA 		vabs.f32	s21, s21
 2763              	.LBE1417:
 2764              	.LBE1416:
 2765              	.LBE1429:
 2766              	.LBE1443:
 2767              	.LBB1444:
 2768              	.LBB1345:
 161:BowBox.h      ****     }
 2769              		.loc 13 161 9 is_stmt 1 view .LVU670
ARM GAS  /var/folders/1p/hl98tgf51p19ck4ldyh6xb6c0000gn/T//cc56AY3v.s 			page 77


 2770              	.LVL88:
 161:BowBox.h      ****     }
 2771              		.loc 13 161 9 is_stmt 0 view .LVU671
 2772              	.LBE1345:
 2773              	.LBE1444:
 209:BowBox.h      ****         over_output += over_modals[1].Process(over_output) * -1.0f;
 2774              		.loc 13 209 9 is_stmt 1 view .LVU672
 2775              	.LBB1445:
 2776              	.LBI1349:
 136:BowBox.h      ****         // Mix Source with Feedback
 2777              		.loc 13 136 11 view .LVU673
 2778              	.LBB1430:
 141:BowBox.h      **** 
 2779              		.loc 13 141 9 view .LVU674
 147:BowBox.h      **** 
 2780              		.loc 13 147 9 view .LVU675
 2781              	.LBB1419:
 2782              	.LBI1360:
  76:BowBox.h      ****         float output = b_ * y1_ - a1_ * y2_ - a2_ * x2_ + input;
 2783              		.loc 13 76 11 view .LVU676
 2784              	.LBB1374:
  77:BowBox.h      **** 
 2785              		.loc 13 77 9 view .LVU677
  80:BowBox.h      ****         x1_ = input;
 2786              		.loc 13 80 9 view .LVU678
  81:BowBox.h      **** 
 2787              		.loc 13 81 9 view .LVU679
  84:BowBox.h      ****         y1_ = output;
 2788              		.loc 13 84 9 view .LVU680
  85:BowBox.h      **** 
 2789              		.loc 13 85 9 view .LVU681
  87:BowBox.h      ****     }
 2790              		.loc 13 87 9 view .LVU682
  87:BowBox.h      ****     }
 2791              		.loc 13 87 9 is_stmt 0 view .LVU683
 2792              	.LBE1374:
 2793              	.LBE1419:
 150:BowBox.h      **** 
 2794              		.loc 13 150 9 is_stmt 1 view .LVU684
 2795              	.LBB1420:
 2796              	.LBI1351:
  62:../DaisyExamples/DaisySP//Source/Utility/delayline.h ****     {
 2797              		.loc 14 62 17 view .LVU685
  62:../DaisyExamples/DaisySP//Source/Utility/delayline.h ****     {
 2798              		.loc 14 62 17 is_stmt 0 view .LVU686
 2799              	.LBE1420:
 153:BowBox.h      **** 
 2800              		.loc 13 153 9 is_stmt 1 view .LVU687
 2801              	.LBB1421:
 2802              	.LBI1382:
  70:../DaisyExamples/DaisySP//Source/Utility/delayline.h ****     {
 2803              		.loc 14 70 20 view .LVU688
  70:../DaisyExamples/DaisySP//Source/Utility/delayline.h ****     {
 2804              		.loc 14 70 20 is_stmt 0 view .LVU689
 2805              	.LBE1421:
 156:BowBox.h      **** 
 2806              		.loc 13 156 9 is_stmt 1 view .LVU690
ARM GAS  /var/folders/1p/hl98tgf51p19ck4ldyh6xb6c0000gn/T//cc56AY3v.s 			page 78


 156:BowBox.h      **** 
 2807              		.loc 13 156 9 is_stmt 0 view .LVU691
 2808              	.LBE1430:
 2809              	.LBE1445:
 2810              	.LBE1539:
 2811              	.LBE1547:
 2812              	.LBE3555:
 2813              	.LBE3562:
 2814              		.loc 15 76 5 is_stmt 1 view .LVU692
 2815              	.LBB3563:
 2816              	.LBB3556:
 2817              	.LBB1548:
 2818              	.LBB1540:
 2819              	.LBB1446:
 2820              	.LBB1431:
 2821              	.LBB1422:
 2822              	.LBI1416:
  75:/Applications/ARM/arm-none-eabi/include/c++/10.3.1/bits/std_abs.h ****   { return __builtin_fabsf(__x); }
 2823              		.loc 15 75 3 view .LVU693
 2824              	.LBB1418:
 2825              		.loc 15 76 5 view .LVU694
 2826              		.loc 15 76 5 is_stmt 0 view .LVU695
 2827              	.LBE1418:
 2828              	.LBE1422:
 2829              	.LBB1423:
 2830              	.LBI1412:
  13:BowBox.h      ****     float totalVelocity = (initialVelocity + relativeVelocity);
 2831              		.loc 13 13 7 is_stmt 1 view .LVU696
 2832              	.LBB1414:
  14:BowBox.h      ****     if (totalVelocity == 0)
 2833              		.loc 13 14 5 view .LVU697
  14:BowBox.h      ****     if (totalVelocity == 0)
 2834              		.loc 13 14 11 is_stmt 0 view .LVU698
 2835 0786 A4EEAA7A 		vfma.f32	s14, s9, s21
 2836              	.LVL89:
  15:BowBox.h      ****         return 0;
 2837              		.loc 13 15 5 is_stmt 1 view .LVU699
 2838 078a B5EE407A 		vcmp.f32	s14, #0
 2839 078e F1EE10FA 		vmrs	APSR_nzcv, FPSCR
 2840 0792 01F00B84 		beq	.L46
  18:BowBox.h      **** }
 2841              		.loc 13 18 9 view .LVU700
  18:BowBox.h      **** }
 2842              		.loc 13 18 71 is_stmt 0 view .LVU701
 2843 0796 9FED596A 		vldr.32	s12, .L75+4
 2844              	.LVL90:
  18:BowBox.h      **** }
 2845              		.loc 13 18 105 view .LVU702
 2846 079a 9FED595A 		vldr.32	s10, .L75+8
  18:BowBox.h      **** }
 2847              		.loc 13 18 71 view .LVU703
 2848 079e 65EE865A 		vmul.f32	s11, s11, s12
 2849              	.LVL91:
  18:BowBox.h      **** }
 2850              		.loc 13 18 90 view .LVU704
 2851 07a2 85EE876A 		vdiv.f32	s12, s11, s14
  18:BowBox.h      **** }
ARM GAS  /var/folders/1p/hl98tgf51p19ck4ldyh6xb6c0000gn/T//cc56AY3v.s 			page 79


 2852              		.loc 13 18 105 view .LVU705
 2853 07a6 36EE056A 		vadd.f32	s12, s12, s10
 2854              	.L21:
 2855              	.LVL92:
  18:BowBox.h      **** }
 2856              		.loc 13 18 105 view .LVU706
 2857              	.LBE1414:
 2858              	.LBE1423:
 156:BowBox.h      **** 
 2859              		.loc 13 156 23 view .LVU707
 2860 07aa 584B     		ldr	r3, .L75+20
 159:BowBox.h      **** 
 2861              		.loc 13 159 27 view .LVU708
 2862 07ac 66EE273A 		vmul.f32	s7, s12, s15
 2863              	.LBE1431:
 2864              	.LBE1446:
 2865              	.LBB1447:
 2866              	.LBB1448:
 2867              	.LBB1449:
 2868              	.LBB1450:
  77:BowBox.h      **** 
 2869              		.loc 13 77 39 view .LVU709
 2870 07b0 97EDA97A 		vldr.32	s14, [r7, #676]
 2871              	.LBE1450:
 2872              	.LBE1449:
 2873              	.LBB1461:
 2874              	.LBB1462:
  65:../DaisyExamples/DaisySP//Source/Utility/delayline.h ****     }
 2875              		.loc 14 65 57 view .LVU710
 2876 07b4 40F2DC5A 		movw	r10, #1500
  64:../DaisyExamples/DaisySP//Source/Utility/delayline.h ****         write_ptr_        = (write_ptr_ - 1 + max_size) % max_size;
 2877              		.loc 14 64 15 view .LVU711
 2878 07b8 03F58051 		add	r1, r3, #4096
 2879              	.LBE1462:
 2880              	.LBE1461:
 2881              	.LBE1448:
 2882              	.LBE1447:
 2883              	.LBB1528:
 2884              	.LBB1432:
 156:BowBox.h      **** 
 2885              		.loc 13 156 23 view .LVU712
 2886 07bc 83EDB06A 		vstr.32	s12, [r3, #704]
 159:BowBox.h      **** 
 2887              		.loc 13 159 9 is_stmt 1 view .LVU713
 159:BowBox.h      **** 
 2888              		.loc 13 159 18 is_stmt 0 view .LVU714
 2889 07c0 C3EDB13A 		vstr.32	s7, [r3, #708]
 161:BowBox.h      ****     }
 2890              		.loc 13 161 9 is_stmt 1 view .LVU715
 2891              	.LVL93:
 161:BowBox.h      ****     }
 2892              		.loc 13 161 9 is_stmt 0 view .LVU716
 2893              	.LBE1432:
 2894              	.LBE1528:
 209:BowBox.h      ****         over_output += over_modals[1].Process(over_output) * -1.0f;
 2895              		.loc 13 209 62 view .LVU717
 2896 07c4 F1EE67AA 		vneg.f32	s21, s15
ARM GAS  /var/folders/1p/hl98tgf51p19ck4ldyh6xb6c0000gn/T//cc56AY3v.s 			page 80


 2897              	.LVL94:
 210:BowBox.h      ****         //over_output += over_modals[2].Process(over_output) * -1.0f;
 2898              		.loc 13 210 9 is_stmt 1 view .LVU718
 2899              	.LBB1529:
 2900              	.LBI1447:
 136:BowBox.h      ****         // Mix Source with Feedback
 2901              		.loc 13 136 11 view .LVU719
 2902              	.LBB1522:
 141:BowBox.h      **** 
 2903              		.loc 13 141 9 view .LVU720
 2904              	.LBB1472:
 2905              	.LBB1463:
  64:../DaisyExamples/DaisySP//Source/Utility/delayline.h ****         write_ptr_        = (write_ptr_ - 1 + max_size) % max_size;
 2906              		.loc 14 64 15 is_stmt 0 view .LVU721
 2907 07c8 D1F8083B 		ldr	r3, [r1, #2824]
 2908              	.LBE1463:
 2909              	.LBE1472:
 141:BowBox.h      **** 
 2910              		.loc 13 141 38 view .LVU722
 2911 07cc 0A46     		mov	r2, r1
 2912              	.LBB1473:
 2913              	.LBB1474:
  72:../DaisyExamples/DaisySP//Source/Utility/delayline.h ****         T b = line_[(write_ptr_ + delay_ + 1) % max_size];
 2914              		.loc 14 72 33 view .LVU723
 2915 07ce D1F80C0B 		ldr	r0, [r1, #2828]
 2916              	.LBE1474:
 2917              	.LBE1473:
 141:BowBox.h      **** 
 2918              		.loc 13 141 38 view .LVU724
 2919 07d2 01F6FC21 		addw	r1, r1, #2812
 2920              	.LBB1482:
 2921              	.LBB1464:
  65:../DaisyExamples/DaisySP//Source/Utility/delayline.h ****     }
 2922              		.loc 14 65 45 view .LVU725
 2923 07d6 03F2DB5C 		addw	ip, r3, #1499
 2924              	.LBE1464:
 2925              	.LBE1482:
 2926              	.LBB1483:
 2927              	.LBB1451:
  77:BowBox.h      **** 
 2928              		.loc 13 77 39 view .LVU726
 2929 07da D7EDA45A 		vldr.32	s11, [r7, #656]
 2930 07de 91ED006A 		vldr.32	s12, [r1]
 2931              	.LBE1451:
 2932              	.LBE1483:
 2933              	.LBB1484:
 2934              	.LBB1465:
  65:../DaisyExamples/DaisySP//Source/Utility/delayline.h ****     }
 2935              		.loc 14 65 57 view .LVU727
 2936 07e2 4849     		ldr	r1, .L75+12
 2937              	.LBE1465:
 2938              	.LBE1484:
 2939              	.LBB1485:
 2940              	.LBB1452:
  77:BowBox.h      **** 
 2941              		.loc 13 77 33 view .LVU728
 2942 07e4 27EE657A 		vnmul.f32	s14, s14, s11
ARM GAS  /var/folders/1p/hl98tgf51p19ck4ldyh6xb6c0000gn/T//cc56AY3v.s 			page 81


  77:BowBox.h      **** 
 2943              		.loc 13 77 29 view .LVU729
 2944 07e8 97EDA85A 		vldr.32	s10, [r7, #672]
 2945 07ec 36EE676A 		vsub.f32	s12, s12, s15
 2946              	.LVL95:
  77:BowBox.h      **** 
 2947              		.loc 13 77 29 view .LVU730
 2948              	.LBE1452:
 2949              	.LBE1485:
 147:BowBox.h      **** 
 2950              		.loc 13 147 9 is_stmt 1 view .LVU731
 2951              	.LBB1486:
 2952              	.LBI1449:
  76:BowBox.h      ****         float output = b_ * y1_ - a1_ * y2_ - a2_ * x2_ + input;
 2953              		.loc 13 76 11 view .LVU732
 2954              	.LBB1453:
  77:BowBox.h      **** 
 2955              		.loc 13 77 9 view .LVU733
 2956              	.LBE1453:
 2957              	.LBE1486:
 2958              	.LBB1487:
 2959              	.LBB1466:
  65:../DaisyExamples/DaisySP//Source/Utility/delayline.h ****     }
 2960              		.loc 14 65 57 is_stmt 0 view .LVU734
 2961 07f0 A1FB0CE1 		umull	lr, r1, r1, ip
 2962              	.LBE1466:
 2963              	.LBE1487:
 2964              	.LBB1488:
 2965              	.LBB1454:
  77:BowBox.h      **** 
 2966              		.loc 13 77 33 view .LVU735
 2967 07f4 97EDA33A 		vldr.32	s6, [r7, #652]
  77:BowBox.h      **** 
 2968              		.loc 13 77 45 view .LVU736
 2969 07f8 D7EDA74A 		vldr.32	s9, [r7, #668]
 2970              	.LBE1454:
 2971              	.LBE1488:
 2972              	.LBB1489:
 2973              	.LBB1490:
 2974              		.loc 15 76 31 view .LVU737
 2975 07fc F0EEE75A 		vabs.f32	s11, s15
 2976              	.LBE1490:
 2977              	.LBE1489:
 2978              	.LBB1492:
 2979              	.LBB1467:
  65:../DaisyExamples/DaisySP//Source/Utility/delayline.h ****     }
 2980              		.loc 14 65 57 view .LVU738
 2981 0800 4909     		lsrs	r1, r1, #5
 2982              	.LBE1467:
 2983              	.LBE1492:
 2984              	.LBB1493:
 2985              	.LBB1455:
  77:BowBox.h      **** 
 2986              		.loc 13 77 33 view .LVU739
 2987 0802 A3EE057A 		vfma.f32	s14, s6, s10
  77:BowBox.h      **** 
 2988              		.loc 13 77 45 view .LVU740
ARM GAS  /var/folders/1p/hl98tgf51p19ck4ldyh6xb6c0000gn/T//cc56AY3v.s 			page 82


 2989 0806 97EDA54A 		vldr.32	s8, [r7, #660]
 2990              	.LBE1455:
 2991              	.LBE1493:
 2992              	.LBB1494:
 2993              	.LBB1468:
  65:../DaisyExamples/DaisySP//Source/Utility/delayline.h ****     }
 2994              		.loc 14 65 57 view .LVU741
 2995 080a 0AFB11C1 		mls	r1, r10, r1, ip
 2996              	.LBE1468:
 2997              	.LBE1494:
 2998              	.LBB1495:
 2999              	.LBB1456:
  84:BowBox.h      ****         y1_ = output;
 3000              		.loc 13 84 13 view .LVU742
 3001 080e 87EDA95A 		vstr.32	s10, [r7, #676]
 3002              	.LBE1456:
 3003              	.LBE1495:
 3004              	.LBB1496:
 3005              	.LBB1475:
  72:../DaisyExamples/DaisySP//Source/Utility/delayline.h ****         T b = line_[(write_ptr_ + delay_ + 1) % max_size];
 3006              		.loc 14 72 33 view .LVU743
 3007 0812 0844     		add	r0, r0, r1
 3008              	.LBE1475:
 3009              	.LBE1496:
 3010              	.LBB1497:
 3011              	.LBB1469:
  65:../DaisyExamples/DaisySP//Source/Utility/delayline.h ****     }
 3012              		.loc 14 65 27 view .LVU744
 3013 0814 C2F8081B 		str	r1, [r2, #2824]
  64:../DaisyExamples/DaisySP//Source/Utility/delayline.h ****         write_ptr_        = (write_ptr_ - 1 + max_size) % max_size;
 3014              		.loc 14 64 27 view .LVU745
 3015 0818 02F60831 		addw	r1, r2, #2824
 3016              	.LBE1469:
 3017              	.LBE1497:
 3018              	.LBB1498:
 3019              	.LBB1476:
  72:../DaisyExamples/DaisySP//Source/Utility/delayline.h ****         T b = line_[(write_ptr_ + delay_ + 1) % max_size];
 3020              		.loc 14 72 43 view .LVU746
 3021 081c 394A     		ldr	r2, .L75+12
  73:../DaisyExamples/DaisySP//Source/Utility/delayline.h ****         return a + (b - a) * frac_;
 3022              		.loc 14 73 42 view .LVU747
 3023 081e 00F1010E 		add	lr, r0, #1
 3024              	.LBE1476:
 3025              	.LBE1498:
 3026              	.LBB1499:
 3027              	.LBB1457:
  77:BowBox.h      **** 
 3028              		.loc 13 77 45 view .LVU748
 3029 0822 A4EE647A 		vfms.f32	s14, s8, s9
 3030              	.LBE1457:
 3031              	.LBE1499:
 3032              	.LBB1500:
 3033              	.LBB1470:
  64:../DaisyExamples/DaisySP//Source/Utility/delayline.h ****         write_ptr_        = (write_ptr_ - 1 + max_size) % max_size;
 3034              		.loc 14 64 27 view .LVU749
 3035 0826 01EB830C 		add	ip, r1, r3, lsl #2
 3036              	.LBE1470:
ARM GAS  /var/folders/1p/hl98tgf51p19ck4ldyh6xb6c0000gn/T//cc56AY3v.s 			page 83


 3037              	.LBE1500:
 3038              	.LBB1501:
 3039              	.LBB1477:
  72:../DaisyExamples/DaisySP//Source/Utility/delayline.h ****         T b = line_[(write_ptr_ + delay_ + 1) % max_size];
 3040              		.loc 14 72 43 view .LVU750
 3041 082a A2FB00B3 		umull	fp, r3, r2, r0
  73:../DaisyExamples/DaisySP//Source/Utility/delayline.h ****         return a + (b - a) * frac_;
 3042              		.loc 14 73 47 view .LVU751
 3043 082e A2FB0EB2 		umull	fp, r2, r2, lr
  72:../DaisyExamples/DaisySP//Source/Utility/delayline.h ****         T b = line_[(write_ptr_ + delay_ + 1) % max_size];
 3044              		.loc 14 72 43 view .LVU752
 3045 0832 5B09     		lsrs	r3, r3, #5
  73:../DaisyExamples/DaisySP//Source/Utility/delayline.h ****         return a + (b - a) * frac_;
 3046              		.loc 14 73 47 view .LVU753
 3047 0834 5209     		lsrs	r2, r2, #5
  72:../DaisyExamples/DaisySP//Source/Utility/delayline.h ****         T b = line_[(write_ptr_ + delay_ + 1) % max_size];
 3048              		.loc 14 72 43 view .LVU754
 3049 0836 0AFB1303 		mls	r3, r10, r3, r0
  73:../DaisyExamples/DaisySP//Source/Utility/delayline.h ****         return a + (b - a) * frac_;
 3050              		.loc 14 73 47 view .LVU755
 3051 083a 0AFB12EE 		mls	lr, r10, r2, lr
 3052              	.LBE1477:
 3053              	.LBE1501:
 3054              	.LBB1502:
 3055              	.LBB1458:
  77:BowBox.h      **** 
 3056              		.loc 13 77 15 view .LVU756
 3057 083e 36EE077A 		vadd.f32	s14, s12, s14
 3058              	.LVL96:
  80:BowBox.h      ****         x1_ = input;
 3059              		.loc 13 80 9 is_stmt 1 view .LVU757
  80:BowBox.h      ****         x1_ = input;
 3060              		.loc 13 80 13 is_stmt 0 view .LVU758
 3061 0842 D7F89822 		ldr	r2, [r7, #664]	@ float
 3062              	.LBE1458:
 3063              	.LBE1502:
 3064              	.LBB1503:
 3065              	.LBB1478:
  72:../DaisyExamples/DaisySP//Source/Utility/delayline.h ****         T b = line_[(write_ptr_ + delay_ + 1) % max_size];
 3066              		.loc 14 72 11 view .LVU759
 3067 0846 01EB8303 		add	r3, r1, r3, lsl #2
  73:../DaisyExamples/DaisySP//Source/Utility/delayline.h ****         return a + (b - a) * frac_;
 3068              		.loc 14 73 11 view .LVU760
 3069 084a 01EB8E01 		add	r1, r1, lr, lsl #2
 3070              	.LBE1478:
 3071              	.LBE1503:
 3072              	.LBB1504:
 3073              	.LBB1459:
  81:BowBox.h      **** 
 3074              		.loc 13 81 13 view .LVU761
 3075 084e 87EDA66A 		vstr.32	s12, [r7, #664]
  80:BowBox.h      ****         x1_ = input;
 3076              		.loc 13 80 13 view .LVU762
 3077 0852 C7F89C22 		str	r2, [r7, #668]	@ float
  81:BowBox.h      **** 
 3078              		.loc 13 81 9 is_stmt 1 view .LVU763
  84:BowBox.h      ****         y1_ = output;
ARM GAS  /var/folders/1p/hl98tgf51p19ck4ldyh6xb6c0000gn/T//cc56AY3v.s 			page 84


 3079              		.loc 13 84 9 view .LVU764
  85:BowBox.h      **** 
 3080              		.loc 13 85 9 view .LVU765
  87:BowBox.h      ****     }
 3081              		.loc 13 87 9 view .LVU766
 3082              	.LVL97:
  87:BowBox.h      ****     }
 3083              		.loc 13 87 9 is_stmt 0 view .LVU767
 3084              	.LBE1459:
 3085              	.LBE1504:
 150:BowBox.h      **** 
 3086              		.loc 13 150 9 is_stmt 1 view .LVU768
 3087              	.LBB1505:
 3088              	.LBI1461:
  62:../DaisyExamples/DaisySP//Source/Utility/delayline.h ****     {
 3089              		.loc 14 62 17 view .LVU769
  62:../DaisyExamples/DaisySP//Source/Utility/delayline.h ****     {
 3090              		.loc 14 62 17 is_stmt 0 view .LVU770
 3091              	.LBE1505:
 153:BowBox.h      **** 
 3092              		.loc 13 153 9 is_stmt 1 view .LVU771
 3093              	.LBB1506:
 3094              	.LBI1473:
  70:../DaisyExamples/DaisySP//Source/Utility/delayline.h ****     {
 3095              		.loc 14 70 20 view .LVU772
 3096              	.LBB1479:
 3097              		.loc 14 74 30 is_stmt 0 view .LVU773
 3098 0856 2E4A     		ldr	r2, .L75+24
 3099              	.LBE1479:
 3100              	.LBE1506:
 3101              	.LBB1507:
 3102              	.LBB1460:
  85:BowBox.h      **** 
 3103              		.loc 13 85 13 view .LVU774
 3104 0858 87EDA87A 		vstr.32	s14, [r7, #672]
 3105              	.LBE1460:
 3106              	.LBE1507:
 3107              	.LBB1508:
 3108              	.LBB1471:
  64:../DaisyExamples/DaisySP//Source/Utility/delayline.h ****         write_ptr_        = (write_ptr_ - 1 + max_size) % max_size;
 3109              		.loc 14 64 27 view .LVU775
 3110 085c 8CED027A 		vstr.32	s14, [ip, #8]
 3111              	.LBE1471:
 3112              	.LBE1508:
 3113              	.LBB1509:
 3114              	.LBB1480:
  72:../DaisyExamples/DaisySP//Source/Utility/delayline.h ****         T b = line_[(write_ptr_ + delay_ + 1) % max_size];
 3115              		.loc 14 72 11 view .LVU776
 3116 0860 93ED026A 		vldr.32	s12, [r3, #8]
 3117              	.LVL98:
 3118              		.loc 14 74 30 view .LVU777
 3119 0864 02F60433 		addw	r3, r2, #2820
 3120              		.loc 14 74 23 view .LVU778
 3121 0868 91ED027A 		vldr.32	s14, [r1, #8]
 3122              	.LVL99:
 3123              		.loc 14 74 30 view .LVU779
 3124 086c 93ED005A 		vldr.32	s10, [r3]
ARM GAS  /var/folders/1p/hl98tgf51p19ck4ldyh6xb6c0000gn/T//cc56AY3v.s 			page 85


 3125              	.LBE1480:
 3126              	.LBE1509:
 156:BowBox.h      **** 
 3127              		.loc 13 156 66 view .LVU780
 3128 0870 02F53063 		add	r3, r2, #2816
 3129              	.LBB1510:
 3130              	.LBB1481:
 3131              		.loc 14 74 23 view .LVU781
 3132 0874 37EE467A 		vsub.f32	s14, s14, s12
 3133              		.loc 14 74 30 view .LVU782
 3134 0878 A7EE056A 		vfma.f32	s12, s14, s10
 3135              	.LVL100:
 3136              		.loc 14 74 30 view .LVU783
 3137              	.LBE1481:
 3138              	.LBE1510:
 156:BowBox.h      **** 
 3139              		.loc 13 156 9 is_stmt 1 view .LVU784
 3140              	.LBB1511:
 3141              	.LBI1489:
  75:/Applications/ARM/arm-none-eabi/include/c++/10.3.1/bits/std_abs.h ****   { return __builtin_fabsf(__x); }
 3142              		.loc 15 75 3 view .LVU785
 3143              	.LBB1491:
 3144              		.loc 15 76 5 view .LVU786
 3145              		.loc 15 76 5 is_stmt 0 view .LVU787
 3146              	.LBE1491:
 3147              	.LBE1511:
 156:BowBox.h      **** 
 3148              		.loc 13 156 66 view .LVU788
 3149 087c 93ED005A 		vldr.32	s10, [r3]
 156:BowBox.h      **** 
 3150              		.loc 13 156 39 view .LVU789
 3151 0880 25EE857A 		vmul.f32	s14, s11, s10
 3152              	.LVL101:
 3153              	.LBB1512:
 3154              	.LBI1512:
  75:/Applications/ARM/arm-none-eabi/include/c++/10.3.1/bits/std_abs.h ****   { return __builtin_fabsf(__x); }
 3155              		.loc 15 75 3 is_stmt 1 view .LVU790
 3156              	.LBB1513:
 3157              		.loc 15 76 5 view .LVU791
 3158              		.loc 15 76 5 is_stmt 0 view .LVU792
 3159              	.LBE1513:
 3160              	.LBE1512:
 3161              	.LBB1515:
 3162              	.LBI1515:
  13:BowBox.h      ****     float totalVelocity = (initialVelocity + relativeVelocity);
 3163              		.loc 13 13 7 is_stmt 1 view .LVU793
 3164              	.LBB1516:
  14:BowBox.h      ****     if (totalVelocity == 0)
 3165              		.loc 13 14 5 view .LVU794
  14:BowBox.h      ****     if (totalVelocity == 0)
 3166              		.loc 13 14 11 is_stmt 0 view .LVU795
 3167 0884 F0EE475A 		vmov.f32	s11, s14
 3168              	.LBE1516:
 3169              	.LBE1515:
 3170              	.LBB1519:
 3171              	.LBB1514:
 3172              		.loc 15 76 31 view .LVU796
ARM GAS  /var/folders/1p/hl98tgf51p19ck4ldyh6xb6c0000gn/T//cc56AY3v.s 			page 86


 3173 0888 76EE677A 		vsub.f32	s15, s12, s15
 3174              	.LVL102:
 3175              		.loc 15 76 31 view .LVU797
 3176 088c F0EEE77A 		vabs.f32	s15, s15
 3177              	.LBE1514:
 3178              	.LBE1519:
 3179              	.LBB1520:
 3180              	.LBB1517:
  14:BowBox.h      ****     if (totalVelocity == 0)
 3181              		.loc 13 14 11 view .LVU798
 3182 0890 E5EE275A 		vfma.f32	s11, s10, s15
 3183              	.LVL103:
  15:BowBox.h      ****         return 0;
 3184              		.loc 13 15 5 is_stmt 1 view .LVU799
 3185 0894 F5EE405A 		vcmp.f32	s11, #0
 3186 0898 F1EE10FA 		vmrs	APSR_nzcv, FPSCR
 3187 089c 01F08283 		beq	.L47
  18:BowBox.h      **** }
 3188              		.loc 13 18 9 view .LVU800
  18:BowBox.h      **** }
 3189              		.loc 13 18 71 is_stmt 0 view .LVU801
 3190 08a0 DFED167A 		vldr.32	s15, .L75+4
  18:BowBox.h      **** }
 3191              		.loc 13 18 105 view .LVU802
 3192 08a4 9FED165A 		vldr.32	s10, .L75+8
  18:BowBox.h      **** }
 3193              		.loc 13 18 71 view .LVU803
 3194 08a8 27EE277A 		vmul.f32	s14, s14, s15
 3195              	.LVL104:
  18:BowBox.h      **** }
 3196              		.loc 13 18 90 view .LVU804
 3197 08ac C7EE257A 		vdiv.f32	s15, s14, s11
  18:BowBox.h      **** }
 3198              		.loc 13 18 105 view .LVU805
 3199 08b0 77EE857A 		vadd.f32	s15, s15, s10
 3200              	.L22:
 3201              	.LVL105:
  18:BowBox.h      **** }
 3202              		.loc 13 18 105 view .LVU806
 3203              	.LBE1517:
 3204              	.LBE1520:
 3205              	.LBE1522:
 3206              	.LBE1529:
 3207              	.LBE1540:
 3208              	.LBE1548:
 3209              	.LBB1549:
 3210              	.LBB1550:
 3211              		.loc 16 79 52 view .LVU807
 3212 08b4 174B     		ldr	r3, .L75+28
 3213              	.LBE1550:
 3214              	.LBE1549:
 3215              	.LBB1553:
 3216              	.LBB1541:
 3217              		.loc 13 222 43 view .LVU808
 3218 08b6 7AEEC6AA 		vsub.f32	s21, s21, s12
 3219              	.LVL106:
 3220              	.LBB1530:
ARM GAS  /var/folders/1p/hl98tgf51p19ck4ldyh6xb6c0000gn/T//cc56AY3v.s 			page 87


 3221              	.LBB1523:
 156:BowBox.h      **** 
 3222              		.loc 13 156 23 view .LVU809
 3223 08ba 154A     		ldr	r2, .L75+24
 159:BowBox.h      **** 
 3224              		.loc 13 159 27 view .LVU810
 3225 08bc 27EE866A 		vmul.f32	s12, s15, s12
 3226              	.LVL107:
 159:BowBox.h      **** 
 3227              		.loc 13 159 27 view .LVU811
 3228              	.LBE1523:
 3229              	.LBE1530:
 3230              	.LBE1541:
 3231              	.LBE1553:
 3232              	.LBB1554:
 3233              	.LBB1551:
 3234              		.loc 16 79 52 view .LVU812
 3235 08c0 93F82A10 		ldrb	r1, [r3, #42]	@ zero_extendqisi2
 3236              	.LVL108:
 3237              		.loc 16 79 52 view .LVU813
 3238              	.LBE1551:
 3239              	.LBE1554:
 3240              	.LBB1555:
 3241              	.LBB1542:
 3242              	.LBB1531:
 3243              	.LBB1524:
 156:BowBox.h      **** 
 3244              		.loc 13 156 23 view .LVU814
 3245 08c4 02F6F823 		addw	r3, r2, #2808
 3246              	.LBE1524:
 3247              	.LBE1531:
 3248              	.LBE1542:
 3249              	.LBE1555:
  96:source.cpp    ****         output += Bowls[2].Process(
  97:source.cpp    ****                 filteredNoise[2] *  simpleEnv[2].Process(buttons[2].Pressed()) * lPortOut );
 3250              		.loc 11 97 57 view .LVU815
 3251 08c8 1348     		ldr	r0, .L75+32
 3252              	.LVL109:
 3253              		.loc 11 97 57 view .LVU816
 3254 08ca A1F1FF01 		sub	r1, #255
 3255              	.LBB1556:
 3256              	.LBB1543:
 3257              		.loc 13 222 43 view .LVU817
 3258 08ce 7AEEA6AA 		vadd.f32	s21, s21, s13
 3259              	.LBB1532:
 3260              	.LBB1525:
 156:BowBox.h      **** 
 3261              		.loc 13 156 23 view .LVU818
 3262 08d2 C3ED007A 		vstr.32	s15, [r3]
 159:BowBox.h      **** 
 3263              		.loc 13 159 9 is_stmt 1 view .LVU819
 159:BowBox.h      **** 
 3264              		.loc 13 159 18 is_stmt 0 view .LVU820
 3265 08d6 02F6FC23 		addw	r3, r2, #2812
 3266              	.LBE1525:
 3267              	.LBE1532:
 3268              	.LBE1543:
ARM GAS  /var/folders/1p/hl98tgf51p19ck4ldyh6xb6c0000gn/T//cc56AY3v.s 			page 88


 3269              	.LBE1556:
 3270              		.loc 11 97 57 view .LVU821
 3271 08da B1FA81F1 		clz	r1, r1
 3272              	.LBB1557:
 3273              	.LBB1544:
 3274              	.LBB1533:
 3275              	.LBB1526:
 159:BowBox.h      **** 
 3276              		.loc 13 159 18 view .LVU822
 3277 08de 83ED006A 		vstr.32	s12, [r3]
 161:BowBox.h      ****     }
 3278              		.loc 13 161 9 is_stmt 1 view .LVU823
 3279              	.LVL110:
 161:BowBox.h      ****     }
 3280              		.loc 13 161 9 is_stmt 0 view .LVU824
 3281              	.LBE1526:
 3282              	.LBE1533:
 3283              		.loc 13 222 9 is_stmt 1 view .LVU825
 3284              		.loc 13 222 9 is_stmt 0 view .LVU826
 3285              	.LBE1544:
 3286              	.LBE1557:
  94:source.cpp    ****                 filteredNoise[1] *  simpleEnv[1].Process(buttons[1].Pressed()) * lPortOut );
 3287              		.loc 11 94 16 view .LVU827
 3288 08e2 7AEEABAA 		vadd.f32	s21, s21, s23
 3289              	.LVL111:
  96:source.cpp    ****                 filteredNoise[2] *  simpleEnv[2].Process(buttons[2].Pressed()) * lPortOut );
 3290              		.loc 11 96 9 is_stmt 1 view .LVU828
 3291              	.LBB1558:
 3292              	.LBI1549:
 3293              		.loc 16 79 17 view .LVU829
 3294              	.LBB1552:
 3295              		.loc 16 79 35 view .LVU830
 3296              		.loc 16 79 35 is_stmt 0 view .LVU831
 3297              	.LBE1552:
 3298              	.LBE1558:
 3299              		.loc 11 97 57 view .LVU832
 3300 08e6 4909     		lsrs	r1, r1, #5
 3301 08e8 FFF7FEFF 		bl	_ZN7daisysp4Adsr7ProcessEb
 3302              	.LVL112:
 3303              	.LBB1559:
 3304              	.LBB1560:
 3305              	.LBB1561:
 3306              	.LBB1562:
 141:BowBox.h      **** 
 3307              		.loc 13 141 21 view .LVU833
 3308 08ec 0B48     		ldr	r0, .L75+36
 3309              	.LBE1562:
 3310              	.LBE1561:
 3311              	.LBE1560:
 3312              	.LBE1559:
 3313              		.loc 11 97 34 view .LVU834
 3314 08ee 20EE0A0A 		vmul.f32	s0, s0, s20
 3315              	.LBB2016:
 3316              	.LBB2008:
 3317              	.LBB1646:
 3318              	.LBB1639:
 3319              	.LBB1563:
ARM GAS  /var/folders/1p/hl98tgf51p19ck4ldyh6xb6c0000gn/T//cc56AY3v.s 			page 89


 3320              	.LBB1564:
  64:../DaisyExamples/DaisySP//Source/Utility/delayline.h ****         write_ptr_        = (write_ptr_ - 1 + max_size) % max_size;
 3321              		.loc 14 64 15 view .LVU835
 3322 08f2 D0F8BC23 		ldr	r2, [r0, #956]
 3323 08f6 13E0     		b	.L76
 3324              	.L77:
 3325              		.align	2
 3326              	.L75:
 3327 08f8 00C00000 		.word	Bowls+49152
 3328 08fc 90C2753D 		.word	1031127696
 3329 0900 6666663F 		.word	1063675494
 3330 0904 F1197605 		.word	91625969
 3331 0908 00D00000 		.word	Bowls+53248
 3332 090c 00200100 		.word	Bowls+73728
 3333 0910 00300100 		.word	Bowls+77824
 3334 0914 00000000 		.word	.LANCHOR0
 3335 0918 60000000 		.word	.LANCHOR11+96
 3336 091c 00800100 		.word	Bowls+98304
 3337              	.L76:
 3338              	.LBE1564:
 3339              	.LBE1563:
 3340              	.LBB1573:
 3341              	.LBB1574:
  77:BowBox.h      **** 
 3342              		.loc 13 77 41 view .LVU836
 3343 0920 00F58051 		add	r1, r0, #4096
 3344              	.LBE1574:
 3345              	.LBE1573:
 156:BowBox.h      **** 
 3346              		.loc 13 156 66 view .LVU837
 3347 0924 D0EDED6A 		vldr.32	s13, [r0, #948]
 3348              	.LBB1588:
 3349              	.LBB1565:
  65:../DaisyExamples/DaisySP//Source/Utility/delayline.h ****     }
 3350              		.loc 14 65 45 view .LVU838
 3351 0928 02F2DB5A 		addw	r10, r2, #1499
 3352              	.LBE1565:
 3353              	.LBE1588:
 3354              	.LBB1589:
 3355              	.LBB1575:
  77:BowBox.h      **** 
 3356              		.loc 13 77 41 view .LVU839
 3357 092c 01F65833 		addw	r3, r1, #2904
 3358              	.LBE1575:
 3359              	.LBE1589:
 3360              	.LBB1590:
 3361              	.LBB1566:
  64:../DaisyExamples/DaisySP//Source/Utility/delayline.h ****         write_ptr_        = (write_ptr_ - 1 + max_size) % max_size;
 3362              		.loc 14 64 27 view .LVU840
 3363 0930 00EB820C 		add	ip, r0, r2, lsl #2
 3364              	.LBE1566:
 3365              	.LBE1590:
 3366              	.LBB1591:
 3367              	.LBB1576:
  77:BowBox.h      **** 
 3368              		.loc 13 77 35 view .LVU841
 3369 0934 01F64431 		addw	r1, r1, #2884
ARM GAS  /var/folders/1p/hl98tgf51p19ck4ldyh6xb6c0000gn/T//cc56AY3v.s 			page 90


  77:BowBox.h      **** 
 3370              		.loc 13 77 29 view .LVU842
 3371 0938 00F58052 		add	r2, r0, #4096
  77:BowBox.h      **** 
 3372              		.loc 13 77 39 view .LVU843
 3373 093c D3ED007A 		vldr.32	s15, [r3]
 3374 0940 91ED005A 		vldr.32	s10, [r1]
  77:BowBox.h      **** 
 3375              		.loc 13 77 24 view .LVU844
 3376 0944 183B     		subs	r3, r3, #24
  77:BowBox.h      **** 
 3377              		.loc 13 77 29 view .LVU845
 3378 0946 02F65432 		addw	r2, r2, #2900
