ARM GAS  /var/folders/hl/qgbwny5j0fd895c2c41bk3tw0000gp/T//ccYZrJjP.s 			page 1


   1              		.cpu cortex-m7
   2              		.eabi_attribute 28, 1
   3              		.eabi_attribute 20, 1
   4              		.eabi_attribute 21, 1
   5              		.eabi_attribute 23, 3
   6              		.eabi_attribute 24, 1
   7              		.eabi_attribute 25, 1
   8              		.eabi_attribute 26, 1
   9              		.eabi_attribute 30, 2
  10              		.eabi_attribute 34, 1
  11              		.eabi_attribute 18, 4
  12              		.file	"keypad.cpp"
  13              		.text
  14              	.Ltext0:
  15              		.cfi_sections	.debug_frame
  16              		.section	.text._ZN14KeyboardMatrix4initEv,"ax",%progbits
  17              		.align	1
  18              		.p2align 2,,3
  19              		.global	_ZN14KeyboardMatrix4initEv
  20              		.arch armv7e-m
  21              		.syntax unified
  22              		.thumb
  23              		.thumb_func
  24              		.fpu fpv5-d16
  26              	_ZN14KeyboardMatrix4initEv:
  27              	.LVL0:
  28              	.LFB2537:
  29              		.file 1 "keypad.cpp"
   1:keypad.cpp    **** #include "keypad.h"
   2:keypad.cpp    **** 
   3:keypad.cpp    **** void KeyboardMatrix::init() {
  30              		.loc 1 3 29 view -0
  31              		.cfi_startproc
  32              		@ args = 0, pretend = 0, frame = 0
  33              		@ frame_needed = 0, uses_anonymous_args = 0
   4:keypad.cpp    ****     for (int i = 0; i < NUM_ROWS; i++) {
  34              		.loc 1 4 5 view .LVU1
  35              	.LBB26:
  36              		.loc 1 4 23 view .LVU2
  37              	.LBE26:
   3:keypad.cpp    ****     for (int i = 0; i < NUM_ROWS; i++) {
  38              		.loc 1 3 29 is_stmt 0 view .LVU3
  39 0000 2DE9F041 		push	{r4, r5, r6, r7, r8, lr}
  40              		.cfi_def_cfa_offset 24
  41              		.cfi_offset 4, -24
  42              		.cfi_offset 5, -20
  43              		.cfi_offset 6, -16
  44              		.cfi_offset 7, -12
  45              		.cfi_offset 8, -8
  46              		.cfi_offset 14, -4
  47              	.LBB27:
  48              		.loc 1 4 23 view .LVU4
  49 0004 0378     		ldrb	r3, [r0]	@ zero_extendqisi2
  50              	.LBE27:
   3:keypad.cpp    ****     for (int i = 0; i < NUM_ROWS; i++) {
  51              		.loc 1 3 29 view .LVU5
  52 0006 0646     		mov	r6, r0
ARM GAS  /var/folders/hl/qgbwny5j0fd895c2c41bk3tw0000gp/T//ccYZrJjP.s 			page 2


  53              	.LBB28:
  54              		.loc 1 4 23 view .LVU6
  55 0008 E3B1     		cbz	r3, .L5
  56 000a 00F10B08 		add	r8, r0, #11
  57 000e 00F1BC04 		add	r4, r0, #188
  58              		.loc 1 4 14 view .LVU7
  59 0012 0025     		movs	r5, #0
  60              	.LVL1:
  61              	.L6:
   5:keypad.cpp    ****         rowPins[i].pin = hw.GetPin(GPIOrowPins[i]);
  62              		.loc 1 5 9 is_stmt 1 discriminator 2 view .LVU8
  63              		.loc 1 5 50 is_stmt 0 discriminator 2 view .LVU9
  64 0014 05F12E07 		add	r7, r5, #46
  65 0018 18F8010B 		ldrb	r0, [r8], #1	@ zero_extendqisi2
  66 001c FFF7FEFF 		bl	_ZN5daisy9DaisySeed6GetPinEh
  67              	.LVL2:
   6:keypad.cpp    ****         rowPins[i].mode = DSY_GPIO_MODE_INPUT;
   7:keypad.cpp    ****         rowPins[i].pull = DSY_GPIO_PULLDOWN;
  68              		.loc 1 7 25 discriminator 2 view .LVU10
  69 0020 0223     		movs	r3, #2
   5:keypad.cpp    ****         rowPins[i].pin = hw.GetPin(GPIOrowPins[i]);
  70              		.loc 1 5 50 discriminator 2 view .LVU11
  71 0022 0146     		mov	r1, r0	@ movhi
   6:keypad.cpp    ****         rowPins[i].mode = DSY_GPIO_MODE_INPUT;
  72              		.loc 1 6 25 discriminator 2 view .LVU12
  73 0024 0022     		movs	r2, #0
   5:keypad.cpp    ****         rowPins[i].pin = hw.GetPin(GPIOrowPins[i]);
  74              		.loc 1 5 50 discriminator 2 view .LVU13
  75 0026 06EB8707 		add	r7, r6, r7, lsl #2
   8:keypad.cpp    ****         dsy_gpio_init(&rowPins[i]);
  76              		.loc 1 8 22 discriminator 2 view .LVU14
  77 002a 2046     		mov	r0, r4
   4:keypad.cpp    ****         rowPins[i].pin = hw.GetPin(GPIOrowPins[i]);
  78              		.loc 1 4 5 discriminator 2 view .LVU15
  79 002c 0135     		adds	r5, r5, #1
  80              	.LVL3:
   4:keypad.cpp    ****         rowPins[i].pin = hw.GetPin(GPIOrowPins[i]);
  81              		.loc 1 4 23 discriminator 2 view .LVU16
  82 002e 0434     		adds	r4, r4, #4
   5:keypad.cpp    ****         rowPins[i].mode = DSY_GPIO_MODE_INPUT;
  83              		.loc 1 5 50 discriminator 2 view .LVU17
  84 0030 B980     		strh	r1, [r7, #4]	@ movhi
   6:keypad.cpp    ****         rowPins[i].pull = DSY_GPIO_PULLDOWN;
  85              		.loc 1 6 9 is_stmt 1 discriminator 2 view .LVU18
   7:keypad.cpp    ****         dsy_gpio_init(&rowPins[i]);
  86              		.loc 1 7 25 is_stmt 0 discriminator 2 view .LVU19
  87 0032 04F8013C 		strb	r3, [r4, #-1]
   6:keypad.cpp    ****         rowPins[i].pull = DSY_GPIO_PULLDOWN;
  88              		.loc 1 6 25 discriminator 2 view .LVU20
  89 0036 04F8022C 		strb	r2, [r4, #-2]
   7:keypad.cpp    ****         dsy_gpio_init(&rowPins[i]);
  90              		.loc 1 7 9 is_stmt 1 discriminator 2 view .LVU21
  91              		.loc 1 8 9 discriminator 2 view .LVU22
  92              		.loc 1 8 22 is_stmt 0 discriminator 2 view .LVU23
  93 003a FFF7FEFF 		bl	dsy_gpio_init
  94              	.LVL4:
   4:keypad.cpp    ****         rowPins[i].pin = hw.GetPin(GPIOrowPins[i]);
ARM GAS  /var/folders/hl/qgbwny5j0fd895c2c41bk3tw0000gp/T//ccYZrJjP.s 			page 3


  95              		.loc 1 4 5 is_stmt 1 discriminator 2 view .LVU24
   4:keypad.cpp    ****         rowPins[i].pin = hw.GetPin(GPIOrowPins[i]);
  96              		.loc 1 4 23 discriminator 2 view .LVU25
   4:keypad.cpp    ****         rowPins[i].pin = hw.GetPin(GPIOrowPins[i]);
  97              		.loc 1 4 25 is_stmt 0 discriminator 2 view .LVU26
  98 003e 3378     		ldrb	r3, [r6]	@ zero_extendqisi2
   4:keypad.cpp    ****         rowPins[i].pin = hw.GetPin(GPIOrowPins[i]);
  99              		.loc 1 4 23 discriminator 2 view .LVU27
 100 0040 AB42     		cmp	r3, r5
 101 0042 E7DC     		bgt	.L6
 102              	.LVL5:
 103              	.L5:
   4:keypad.cpp    ****         rowPins[i].pin = hw.GetPin(GPIOrowPins[i]);
 104              		.loc 1 4 23 discriminator 2 view .LVU28
 105              	.LBE28:
 106              	.LBB29:
   9:keypad.cpp    ****     }
  10:keypad.cpp    ****     for (int i = 0; i < NUM_COLS; i++) {
 107              		.loc 1 10 23 is_stmt 1 view .LVU29
 108 0044 7378     		ldrb	r3, [r6, #1]	@ zero_extendqisi2
 109 0046 BBB1     		cbz	r3, .L1
 110 0048 771C     		adds	r7, r6, #1
 111 004a 06F19804 		add	r4, r6, #152
 112              		.loc 1 10 14 is_stmt 0 view .LVU30
 113 004e 0025     		movs	r5, #0
 114              	.LVL6:
 115              	.L7:
  11:keypad.cpp    ****         colPins[i].pin = hw.GetPin(GPIOcolPins[i]);
 116              		.loc 1 11 9 is_stmt 1 discriminator 2 view .LVU31
 117              		.loc 1 11 50 is_stmt 0 discriminator 2 view .LVU32
 118 0050 17F8010F 		ldrb	r0, [r7, #1]!	@ zero_extendqisi2
 119 0054 05F12608 		add	r8, r5, #38
 120 0058 FFF7FEFF 		bl	_ZN5daisy9DaisySeed6GetPinEh
 121              	.LVL7:
  12:keypad.cpp    ****         colPins[i].mode = DSY_GPIO_MODE_OUTPUT_PP;
  13:keypad.cpp    ****         colPins[i].pull = DSY_GPIO_PULLDOWN;
 122              		.loc 1 13 25 discriminator 2 view .LVU33
 123 005c 0223     		movs	r3, #2
  12:keypad.cpp    ****         colPins[i].mode = DSY_GPIO_MODE_OUTPUT_PP;
 124              		.loc 1 12 25 discriminator 2 view .LVU34
 125 005e 0122     		movs	r2, #1
  11:keypad.cpp    ****         colPins[i].pin = hw.GetPin(GPIOcolPins[i]);
 126              		.loc 1 11 50 discriminator 2 view .LVU35
 127 0060 26F82800 		strh	r0, [r6, r8, lsl #2]	@ movhi
  12:keypad.cpp    ****         colPins[i].mode = DSY_GPIO_MODE_OUTPUT_PP;
 128              		.loc 1 12 9 is_stmt 1 discriminator 2 view .LVU36
 129              		.loc 1 13 25 is_stmt 0 discriminator 2 view .LVU37
 130 0064 E370     		strb	r3, [r4, #3]
  14:keypad.cpp    ****         dsy_gpio_init(&colPins[i]);
 131              		.loc 1 14 22 discriminator 2 view .LVU38
 132 0066 2046     		mov	r0, r4
  12:keypad.cpp    ****         colPins[i].mode = DSY_GPIO_MODE_OUTPUT_PP;
 133              		.loc 1 12 25 discriminator 2 view .LVU39
 134 0068 A270     		strb	r2, [r4, #2]
  13:keypad.cpp    ****         dsy_gpio_init(&colPins[i]);
 135              		.loc 1 13 9 is_stmt 1 discriminator 2 view .LVU40
 136              		.loc 1 14 9 discriminator 2 view .LVU41
ARM GAS  /var/folders/hl/qgbwny5j0fd895c2c41bk3tw0000gp/T//ccYZrJjP.s 			page 4


  10:keypad.cpp    ****         colPins[i].pin = hw.GetPin(GPIOcolPins[i]);
 137              		.loc 1 10 5 is_stmt 0 discriminator 2 view .LVU42
 138 006a 0135     		adds	r5, r5, #1
 139              	.LVL8:
 140              		.loc 1 14 22 discriminator 2 view .LVU43
 141 006c FFF7FEFF 		bl	dsy_gpio_init
 142              	.LVL9:
  10:keypad.cpp    ****         colPins[i].pin = hw.GetPin(GPIOcolPins[i]);
 143              		.loc 1 10 5 is_stmt 1 discriminator 2 view .LVU44
  10:keypad.cpp    ****         colPins[i].pin = hw.GetPin(GPIOcolPins[i]);
 144              		.loc 1 10 23 discriminator 2 view .LVU45
  10:keypad.cpp    ****         colPins[i].pin = hw.GetPin(GPIOcolPins[i]);
 145              		.loc 1 10 25 is_stmt 0 discriminator 2 view .LVU46
 146 0070 7378     		ldrb	r3, [r6, #1]	@ zero_extendqisi2
  10:keypad.cpp    ****         colPins[i].pin = hw.GetPin(GPIOcolPins[i]);
 147              		.loc 1 10 23 discriminator 2 view .LVU47
 148 0072 0434     		adds	r4, r4, #4
 149 0074 AB42     		cmp	r3, r5
 150 0076 EBDC     		bgt	.L7
 151              	.LVL10:
 152              	.L1:
  10:keypad.cpp    ****         colPins[i].pin = hw.GetPin(GPIOcolPins[i]);
 153              		.loc 1 10 23 discriminator 2 view .LVU48
 154              	.LBE29:
  15:keypad.cpp    ****     }
  16:keypad.cpp    **** }
 155              		.loc 1 16 1 view .LVU49
 156 0078 BDE8F081 		pop	{r4, r5, r6, r7, r8, pc}
 157              		.loc 1 16 1 view .LVU50
 158              		.cfi_endproc
 159              	.LFE2537:
 161              		.section	.text._ZN14KeyboardMatrix8iReadKeyEv,"ax",%progbits
 162              		.align	1
 163              		.p2align 2,,3
 164              		.global	_ZN14KeyboardMatrix8iReadKeyEv
 165              		.syntax unified
 166              		.thumb
 167              		.thumb_func
 168              		.fpu fpv5-d16
 170              	_ZN14KeyboardMatrix8iReadKeyEv:
 171              	.LVL11:
 172              	.LFB2540:
  17:keypad.cpp    **** 
  18:keypad.cpp    **** std::pair<int, int> KeyboardMatrix::iReadKey() {
 173              		.loc 1 18 48 is_stmt 1 view -0
 174              		.cfi_startproc
 175              		@ args = 0, pretend = 0, frame = 0
 176              		@ frame_needed = 0, uses_anonymous_args = 0
  19:keypad.cpp    ****     int column = 99;
 177              		.loc 1 19 5 view .LVU52
  20:keypad.cpp    ****     int row = 99;
 178              		.loc 1 20 5 view .LVU53
  21:keypad.cpp    ****     for (int c = 0; c < NUM_COLS; c++) {
 179              		.loc 1 21 5 view .LVU54
 180              	.LBB30:
 181              		.loc 1 21 23 view .LVU55
 182              	.LBE30:
ARM GAS  /var/folders/hl/qgbwny5j0fd895c2c41bk3tw0000gp/T//ccYZrJjP.s 			page 5


  18:keypad.cpp    ****     int column = 99;
 183              		.loc 1 18 48 is_stmt 0 view .LVU56
 184 0000 2DE9F84F 		push	{r3, r4, r5, r6, r7, r8, r9, r10, fp, lr}
 185              		.cfi_def_cfa_offset 40
 186              		.cfi_offset 3, -40
 187              		.cfi_offset 4, -36
 188              		.cfi_offset 5, -32
 189              		.cfi_offset 6, -28
 190              		.cfi_offset 7, -24
 191              		.cfi_offset 8, -20
 192              		.cfi_offset 9, -16
 193              		.cfi_offset 10, -12
 194              		.cfi_offset 11, -8
 195              		.cfi_offset 14, -4
 196              	.LBB33:
 197              		.loc 1 21 23 view .LVU57
 198 0004 4B78     		ldrb	r3, [r1, #1]	@ zero_extendqisi2
 199              	.LBE33:
  18:keypad.cpp    ****     int column = 99;
 200              		.loc 1 18 48 view .LVU58
 201 0006 8346     		mov	fp, r0
 202              	.LBB34:
 203              		.loc 1 21 23 view .LVU59
 204 0008 53B3     		cbz	r3, .L21
 205              	.LBE34:
  20:keypad.cpp    ****     int row = 99;
 206              		.loc 1 20 9 view .LVU60
 207 000a 4FF06309 		mov	r9, #99
 208 000e 0E46     		mov	r6, r1
 209 0010 01F19808 		add	r8, r1, #152
 210              	.LBB35:
 211              		.loc 1 21 14 view .LVU61
 212 0014 0027     		movs	r7, #0
 213              	.LBE35:
  19:keypad.cpp    ****     int row = 99;
 214              		.loc 1 19 9 view .LVU62
 215 0016 CA46     		mov	r10, r9
 216              	.LVL12:
 217              	.L20:
 218              	.LBB36:
 219              	.LBB31:
  22:keypad.cpp    ****         dsy_gpio_write(&colPins[c], 1);
 220              		.loc 1 22 9 is_stmt 1 view .LVU63
 221              		.loc 1 22 23 is_stmt 0 view .LVU64
 222 0018 0121     		movs	r1, #1
 223 001a 4046     		mov	r0, r8
 224 001c FFF7FEFF 		bl	dsy_gpio_write
 225              	.LVL13:
  23:keypad.cpp    ****         for (int r = 0; r < NUM_ROWS; r++) {
 226              		.loc 1 23 9 is_stmt 1 view .LVU65
 227              	.LBB32:
 228              		.loc 1 23 27 view .LVU66
 229 0020 3378     		ldrb	r3, [r6]	@ zero_extendqisi2
 230 0022 73B1     		cbz	r3, .L17
 231 0024 06F1BC05 		add	r5, r6, #188
 232              		.loc 1 23 18 is_stmt 0 view .LVU67
 233 0028 0024     		movs	r4, #0
ARM GAS  /var/folders/hl/qgbwny5j0fd895c2c41bk3tw0000gp/T//ccYZrJjP.s 			page 6


 234              	.LVL14:
 235              	.L19:
  24:keypad.cpp    ****             if (dsy_gpio_read(&rowPins[r]) == 1) {
 236              		.loc 1 24 13 is_stmt 1 view .LVU68
 237              		.loc 1 24 30 is_stmt 0 view .LVU69
 238 002a 2846     		mov	r0, r5
  23:keypad.cpp    ****         for (int r = 0; r < NUM_ROWS; r++) {
 239              		.loc 1 23 27 view .LVU70
 240 002c 0435     		adds	r5, r5, #4
 241              		.loc 1 24 30 view .LVU71
 242 002e FFF7FEFF 		bl	dsy_gpio_read
 243              	.LVL15:
  23:keypad.cpp    ****         for (int r = 0; r < NUM_ROWS; r++) {
 244              		.loc 1 23 9 is_stmt 1 view .LVU72
 245              		.loc 1 24 13 is_stmt 0 view .LVU73
 246 0032 0128     		cmp	r0, #1
 247 0034 01D1     		bne	.L18
 248 0036 A146     		mov	r9, r4
 249 0038 BA46     		mov	r10, r7
 250              	.L18:
  23:keypad.cpp    ****         for (int r = 0; r < NUM_ROWS; r++) {
 251              		.loc 1 23 9 discriminator 2 view .LVU74
 252 003a 0134     		adds	r4, r4, #1
 253              	.LVL16:
  23:keypad.cpp    ****         for (int r = 0; r < NUM_ROWS; r++) {
 254              		.loc 1 23 27 is_stmt 1 discriminator 2 view .LVU75
  23:keypad.cpp    ****         for (int r = 0; r < NUM_ROWS; r++) {
 255              		.loc 1 23 29 is_stmt 0 discriminator 2 view .LVU76
 256 003c 3378     		ldrb	r3, [r6]	@ zero_extendqisi2
  23:keypad.cpp    ****         for (int r = 0; r < NUM_ROWS; r++) {
 257              		.loc 1 23 27 discriminator 2 view .LVU77
 258 003e A342     		cmp	r3, r4
 259 0040 F3DC     		bgt	.L19
 260              	.LVL17:
 261              	.L17:
  23:keypad.cpp    ****         for (int r = 0; r < NUM_ROWS; r++) {
 262              		.loc 1 23 27 discriminator 2 view .LVU78
 263              	.LBE32:
  25:keypad.cpp    ****                 column = c;
  26:keypad.cpp    ****                 row = r;
  27:keypad.cpp    ****             }
  28:keypad.cpp    ****         }
  29:keypad.cpp    ****         dsy_gpio_write(&colPins[c], 0);
 264              		.loc 1 29 9 is_stmt 1 discriminator 2 view .LVU79
 265              		.loc 1 29 23 is_stmt 0 discriminator 2 view .LVU80
 266 0042 4046     		mov	r0, r8
 267 0044 0021     		movs	r1, #0
 268 0046 FFF7FEFF 		bl	dsy_gpio_write
 269              	.LVL18:
 270              	.LBE31:
  21:keypad.cpp    ****         dsy_gpio_write(&colPins[c], 1);
 271              		.loc 1 21 5 is_stmt 1 discriminator 2 view .LVU81
 272 004a 0137     		adds	r7, r7, #1
 273              	.LVL19:
  21:keypad.cpp    ****         dsy_gpio_write(&colPins[c], 1);
 274              		.loc 1 21 23 discriminator 2 view .LVU82
  21:keypad.cpp    ****         dsy_gpio_write(&colPins[c], 1);
ARM GAS  /var/folders/hl/qgbwny5j0fd895c2c41bk3tw0000gp/T//ccYZrJjP.s 			page 7


 275              		.loc 1 21 25 is_stmt 0 discriminator 2 view .LVU83
 276 004c 7378     		ldrb	r3, [r6, #1]	@ zero_extendqisi2
  21:keypad.cpp    ****         dsy_gpio_write(&colPins[c], 1);
 277              		.loc 1 21 23 discriminator 2 view .LVU84
 278 004e 08F10408 		add	r8, r8, #4
 279 0052 BB42     		cmp	r3, r7
 280 0054 E0DC     		bgt	.L20
 281              	.LBE36:
  30:keypad.cpp    ****     }
  31:keypad.cpp    ****     return std::make_pair(column, row);
 282              		.loc 1 31 5 is_stmt 1 view .LVU85
 283              	.LVL20:
 284              	.LBB37:
 285              	.LBI37:
 286              		.file 2 "/opt/homebrew/Cellar/arm-none-eabi-gcc/10.3-2021.07/gcc/arm-none-eabi/include/c++/10.3.1/
   1:/opt/homebrew/Cellar/arm-none-eabi-gcc/10.3-2021.07/gcc/arm-none-eabi/include/c++/10.3.1/bits/stl_pair.h **** // Pair implementation -*- C++ -*-
   2:/opt/homebrew/Cellar/arm-none-eabi-gcc/10.3-2021.07/gcc/arm-none-eabi/include/c++/10.3.1/bits/stl_pair.h **** 
   3:/opt/homebrew/Cellar/arm-none-eabi-gcc/10.3-2021.07/gcc/arm-none-eabi/include/c++/10.3.1/bits/stl_pair.h **** // Copyright (C) 2001-2020 Free Software Foundation, Inc.
   4:/opt/homebrew/Cellar/arm-none-eabi-gcc/10.3-2021.07/gcc/arm-none-eabi/include/c++/10.3.1/bits/stl_pair.h **** //
   5:/opt/homebrew/Cellar/arm-none-eabi-gcc/10.3-2021.07/gcc/arm-none-eabi/include/c++/10.3.1/bits/stl_pair.h **** // This file is part of the GNU ISO C++ Library.  This library is free
   6:/opt/homebrew/Cellar/arm-none-eabi-gcc/10.3-2021.07/gcc/arm-none-eabi/include/c++/10.3.1/bits/stl_pair.h **** // software; you can redistribute it and/or modify it under the
   7:/opt/homebrew/Cellar/arm-none-eabi-gcc/10.3-2021.07/gcc/arm-none-eabi/include/c++/10.3.1/bits/stl_pair.h **** // terms of the GNU General Public License as published by the
   8:/opt/homebrew/Cellar/arm-none-eabi-gcc/10.3-2021.07/gcc/arm-none-eabi/include/c++/10.3.1/bits/stl_pair.h **** // Free Software Foundation; either version 3, or (at your option)
   9:/opt/homebrew/Cellar/arm-none-eabi-gcc/10.3-2021.07/gcc/arm-none-eabi/include/c++/10.3.1/bits/stl_pair.h **** // any later version.
  10:/opt/homebrew/Cellar/arm-none-eabi-gcc/10.3-2021.07/gcc/arm-none-eabi/include/c++/10.3.1/bits/stl_pair.h **** 
  11:/opt/homebrew/Cellar/arm-none-eabi-gcc/10.3-2021.07/gcc/arm-none-eabi/include/c++/10.3.1/bits/stl_pair.h **** // This library is distributed in the hope that it will be useful,
  12:/opt/homebrew/Cellar/arm-none-eabi-gcc/10.3-2021.07/gcc/arm-none-eabi/include/c++/10.3.1/bits/stl_pair.h **** // but WITHOUT ANY WARRANTY; without even the implied warranty of
  13:/opt/homebrew/Cellar/arm-none-eabi-gcc/10.3-2021.07/gcc/arm-none-eabi/include/c++/10.3.1/bits/stl_pair.h **** // MERCHANTABILITY or FITNESS FOR A PARTICULAR PURPOSE.  See the
  14:/opt/homebrew/Cellar/arm-none-eabi-gcc/10.3-2021.07/gcc/arm-none-eabi/include/c++/10.3.1/bits/stl_pair.h **** // GNU General Public License for more details.
  15:/opt/homebrew/Cellar/arm-none-eabi-gcc/10.3-2021.07/gcc/arm-none-eabi/include/c++/10.3.1/bits/stl_pair.h **** 
  16:/opt/homebrew/Cellar/arm-none-eabi-gcc/10.3-2021.07/gcc/arm-none-eabi/include/c++/10.3.1/bits/stl_pair.h **** // Under Section 7 of GPL version 3, you are granted additional
  17:/opt/homebrew/Cellar/arm-none-eabi-gcc/10.3-2021.07/gcc/arm-none-eabi/include/c++/10.3.1/bits/stl_pair.h **** // permissions described in the GCC Runtime Library Exception, version
  18:/opt/homebrew/Cellar/arm-none-eabi-gcc/10.3-2021.07/gcc/arm-none-eabi/include/c++/10.3.1/bits/stl_pair.h **** // 3.1, as published by the Free Software Foundation.
  19:/opt/homebrew/Cellar/arm-none-eabi-gcc/10.3-2021.07/gcc/arm-none-eabi/include/c++/10.3.1/bits/stl_pair.h **** 
  20:/opt/homebrew/Cellar/arm-none-eabi-gcc/10.3-2021.07/gcc/arm-none-eabi/include/c++/10.3.1/bits/stl_pair.h **** // You should have received a copy of the GNU General Public License and
  21:/opt/homebrew/Cellar/arm-none-eabi-gcc/10.3-2021.07/gcc/arm-none-eabi/include/c++/10.3.1/bits/stl_pair.h **** // a copy of the GCC Runtime Library Exception along with this program;
  22:/opt/homebrew/Cellar/arm-none-eabi-gcc/10.3-2021.07/gcc/arm-none-eabi/include/c++/10.3.1/bits/stl_pair.h **** // see the files COPYING3 and COPYING.RUNTIME respectively.  If not, see
  23:/opt/homebrew/Cellar/arm-none-eabi-gcc/10.3-2021.07/gcc/arm-none-eabi/include/c++/10.3.1/bits/stl_pair.h **** // <http://www.gnu.org/licenses/>.
  24:/opt/homebrew/Cellar/arm-none-eabi-gcc/10.3-2021.07/gcc/arm-none-eabi/include/c++/10.3.1/bits/stl_pair.h **** 
  25:/opt/homebrew/Cellar/arm-none-eabi-gcc/10.3-2021.07/gcc/arm-none-eabi/include/c++/10.3.1/bits/stl_pair.h **** /*
  26:/opt/homebrew/Cellar/arm-none-eabi-gcc/10.3-2021.07/gcc/arm-none-eabi/include/c++/10.3.1/bits/stl_pair.h ****  *
  27:/opt/homebrew/Cellar/arm-none-eabi-gcc/10.3-2021.07/gcc/arm-none-eabi/include/c++/10.3.1/bits/stl_pair.h ****  * Copyright (c) 1994
  28:/opt/homebrew/Cellar/arm-none-eabi-gcc/10.3-2021.07/gcc/arm-none-eabi/include/c++/10.3.1/bits/stl_pair.h ****  * Hewlett-Packard Company
  29:/opt/homebrew/Cellar/arm-none-eabi-gcc/10.3-2021.07/gcc/arm-none-eabi/include/c++/10.3.1/bits/stl_pair.h ****  *
  30:/opt/homebrew/Cellar/arm-none-eabi-gcc/10.3-2021.07/gcc/arm-none-eabi/include/c++/10.3.1/bits/stl_pair.h ****  * Permission to use, copy, modify, distribute and sell this software
  31:/opt/homebrew/Cellar/arm-none-eabi-gcc/10.3-2021.07/gcc/arm-none-eabi/include/c++/10.3.1/bits/stl_pair.h ****  * and its documentation for any purpose is hereby granted without fee,
  32:/opt/homebrew/Cellar/arm-none-eabi-gcc/10.3-2021.07/gcc/arm-none-eabi/include/c++/10.3.1/bits/stl_pair.h ****  * provided that the above copyright notice appear in all copies and
  33:/opt/homebrew/Cellar/arm-none-eabi-gcc/10.3-2021.07/gcc/arm-none-eabi/include/c++/10.3.1/bits/stl_pair.h ****  * that both that copyright notice and this permission notice appear
  34:/opt/homebrew/Cellar/arm-none-eabi-gcc/10.3-2021.07/gcc/arm-none-eabi/include/c++/10.3.1/bits/stl_pair.h ****  * in supporting documentation.  Hewlett-Packard Company makes no
  35:/opt/homebrew/Cellar/arm-none-eabi-gcc/10.3-2021.07/gcc/arm-none-eabi/include/c++/10.3.1/bits/stl_pair.h ****  * representations about the suitability of this software for any
  36:/opt/homebrew/Cellar/arm-none-eabi-gcc/10.3-2021.07/gcc/arm-none-eabi/include/c++/10.3.1/bits/stl_pair.h ****  * purpose.  It is provided "as is" without express or implied warranty.
  37:/opt/homebrew/Cellar/arm-none-eabi-gcc/10.3-2021.07/gcc/arm-none-eabi/include/c++/10.3.1/bits/stl_pair.h ****  *
  38:/opt/homebrew/Cellar/arm-none-eabi-gcc/10.3-2021.07/gcc/arm-none-eabi/include/c++/10.3.1/bits/stl_pair.h ****  *
  39:/opt/homebrew/Cellar/arm-none-eabi-gcc/10.3-2021.07/gcc/arm-none-eabi/include/c++/10.3.1/bits/stl_pair.h ****  * Copyright (c) 1996,1997
  40:/opt/homebrew/Cellar/arm-none-eabi-gcc/10.3-2021.07/gcc/arm-none-eabi/include/c++/10.3.1/bits/stl_pair.h ****  * Silicon Graphics Computer Systems, Inc.
  41:/opt/homebrew/Cellar/arm-none-eabi-gcc/10.3-2021.07/gcc/arm-none-eabi/include/c++/10.3.1/bits/stl_pair.h ****  *
  42:/opt/homebrew/Cellar/arm-none-eabi-gcc/10.3-2021.07/gcc/arm-none-eabi/include/c++/10.3.1/bits/stl_pair.h ****  * Permission to use, copy, modify, distribute and sell this software
ARM GAS  /var/folders/hl/qgbwny5j0fd895c2c41bk3tw0000gp/T//ccYZrJjP.s 			page 8


  43:/opt/homebrew/Cellar/arm-none-eabi-gcc/10.3-2021.07/gcc/arm-none-eabi/include/c++/10.3.1/bits/stl_pair.h ****  * and its documentation for any purpose is hereby granted without fee,
  44:/opt/homebrew/Cellar/arm-none-eabi-gcc/10.3-2021.07/gcc/arm-none-eabi/include/c++/10.3.1/bits/stl_pair.h ****  * provided that the above copyright notice appear in all copies and
  45:/opt/homebrew/Cellar/arm-none-eabi-gcc/10.3-2021.07/gcc/arm-none-eabi/include/c++/10.3.1/bits/stl_pair.h ****  * that both that copyright notice and this permission notice appear
  46:/opt/homebrew/Cellar/arm-none-eabi-gcc/10.3-2021.07/gcc/arm-none-eabi/include/c++/10.3.1/bits/stl_pair.h ****  * in supporting documentation.  Silicon Graphics makes no
  47:/opt/homebrew/Cellar/arm-none-eabi-gcc/10.3-2021.07/gcc/arm-none-eabi/include/c++/10.3.1/bits/stl_pair.h ****  * representations about the suitability of this software for any
  48:/opt/homebrew/Cellar/arm-none-eabi-gcc/10.3-2021.07/gcc/arm-none-eabi/include/c++/10.3.1/bits/stl_pair.h ****  * purpose.  It is provided "as is" without express or implied warranty.
  49:/opt/homebrew/Cellar/arm-none-eabi-gcc/10.3-2021.07/gcc/arm-none-eabi/include/c++/10.3.1/bits/stl_pair.h ****  */
  50:/opt/homebrew/Cellar/arm-none-eabi-gcc/10.3-2021.07/gcc/arm-none-eabi/include/c++/10.3.1/bits/stl_pair.h **** 
  51:/opt/homebrew/Cellar/arm-none-eabi-gcc/10.3-2021.07/gcc/arm-none-eabi/include/c++/10.3.1/bits/stl_pair.h **** /** @file bits/stl_pair.h
  52:/opt/homebrew/Cellar/arm-none-eabi-gcc/10.3-2021.07/gcc/arm-none-eabi/include/c++/10.3.1/bits/stl_pair.h ****  *  This is an internal header file, included by other library headers.
  53:/opt/homebrew/Cellar/arm-none-eabi-gcc/10.3-2021.07/gcc/arm-none-eabi/include/c++/10.3.1/bits/stl_pair.h ****  *  Do not attempt to use it directly. @headername{utility}
  54:/opt/homebrew/Cellar/arm-none-eabi-gcc/10.3-2021.07/gcc/arm-none-eabi/include/c++/10.3.1/bits/stl_pair.h ****  */
  55:/opt/homebrew/Cellar/arm-none-eabi-gcc/10.3-2021.07/gcc/arm-none-eabi/include/c++/10.3.1/bits/stl_pair.h **** 
  56:/opt/homebrew/Cellar/arm-none-eabi-gcc/10.3-2021.07/gcc/arm-none-eabi/include/c++/10.3.1/bits/stl_pair.h **** #ifndef _STL_PAIR_H
  57:/opt/homebrew/Cellar/arm-none-eabi-gcc/10.3-2021.07/gcc/arm-none-eabi/include/c++/10.3.1/bits/stl_pair.h **** #define _STL_PAIR_H 1
  58:/opt/homebrew/Cellar/arm-none-eabi-gcc/10.3-2021.07/gcc/arm-none-eabi/include/c++/10.3.1/bits/stl_pair.h **** 
  59:/opt/homebrew/Cellar/arm-none-eabi-gcc/10.3-2021.07/gcc/arm-none-eabi/include/c++/10.3.1/bits/stl_pair.h **** #include <bits/move.h> // for std::move / std::forward, and std::swap
  60:/opt/homebrew/Cellar/arm-none-eabi-gcc/10.3-2021.07/gcc/arm-none-eabi/include/c++/10.3.1/bits/stl_pair.h **** 
  61:/opt/homebrew/Cellar/arm-none-eabi-gcc/10.3-2021.07/gcc/arm-none-eabi/include/c++/10.3.1/bits/stl_pair.h **** #if __cplusplus >= 201103L
  62:/opt/homebrew/Cellar/arm-none-eabi-gcc/10.3-2021.07/gcc/arm-none-eabi/include/c++/10.3.1/bits/stl_pair.h **** # include <type_traits> // for std::__decay_and_strip, std::is_reference_v
  63:/opt/homebrew/Cellar/arm-none-eabi-gcc/10.3-2021.07/gcc/arm-none-eabi/include/c++/10.3.1/bits/stl_pair.h **** #endif
  64:/opt/homebrew/Cellar/arm-none-eabi-gcc/10.3-2021.07/gcc/arm-none-eabi/include/c++/10.3.1/bits/stl_pair.h **** #if __cplusplus > 201703L
  65:/opt/homebrew/Cellar/arm-none-eabi-gcc/10.3-2021.07/gcc/arm-none-eabi/include/c++/10.3.1/bits/stl_pair.h **** # include <compare>
  66:/opt/homebrew/Cellar/arm-none-eabi-gcc/10.3-2021.07/gcc/arm-none-eabi/include/c++/10.3.1/bits/stl_pair.h **** # define __cpp_lib_constexpr_utility 201811L
  67:/opt/homebrew/Cellar/arm-none-eabi-gcc/10.3-2021.07/gcc/arm-none-eabi/include/c++/10.3.1/bits/stl_pair.h **** #endif
  68:/opt/homebrew/Cellar/arm-none-eabi-gcc/10.3-2021.07/gcc/arm-none-eabi/include/c++/10.3.1/bits/stl_pair.h **** 
  69:/opt/homebrew/Cellar/arm-none-eabi-gcc/10.3-2021.07/gcc/arm-none-eabi/include/c++/10.3.1/bits/stl_pair.h **** namespace std _GLIBCXX_VISIBILITY(default)
  70:/opt/homebrew/Cellar/arm-none-eabi-gcc/10.3-2021.07/gcc/arm-none-eabi/include/c++/10.3.1/bits/stl_pair.h **** {
  71:/opt/homebrew/Cellar/arm-none-eabi-gcc/10.3-2021.07/gcc/arm-none-eabi/include/c++/10.3.1/bits/stl_pair.h **** _GLIBCXX_BEGIN_NAMESPACE_VERSION
  72:/opt/homebrew/Cellar/arm-none-eabi-gcc/10.3-2021.07/gcc/arm-none-eabi/include/c++/10.3.1/bits/stl_pair.h **** 
  73:/opt/homebrew/Cellar/arm-none-eabi-gcc/10.3-2021.07/gcc/arm-none-eabi/include/c++/10.3.1/bits/stl_pair.h ****   /**
  74:/opt/homebrew/Cellar/arm-none-eabi-gcc/10.3-2021.07/gcc/arm-none-eabi/include/c++/10.3.1/bits/stl_pair.h ****    *  @addtogroup utilities
  75:/opt/homebrew/Cellar/arm-none-eabi-gcc/10.3-2021.07/gcc/arm-none-eabi/include/c++/10.3.1/bits/stl_pair.h ****    *  @{
  76:/opt/homebrew/Cellar/arm-none-eabi-gcc/10.3-2021.07/gcc/arm-none-eabi/include/c++/10.3.1/bits/stl_pair.h ****    */
  77:/opt/homebrew/Cellar/arm-none-eabi-gcc/10.3-2021.07/gcc/arm-none-eabi/include/c++/10.3.1/bits/stl_pair.h **** 
  78:/opt/homebrew/Cellar/arm-none-eabi-gcc/10.3-2021.07/gcc/arm-none-eabi/include/c++/10.3.1/bits/stl_pair.h **** #if __cplusplus >= 201103L
  79:/opt/homebrew/Cellar/arm-none-eabi-gcc/10.3-2021.07/gcc/arm-none-eabi/include/c++/10.3.1/bits/stl_pair.h ****   /// Tag type for piecewise construction of std::pair objects.
  80:/opt/homebrew/Cellar/arm-none-eabi-gcc/10.3-2021.07/gcc/arm-none-eabi/include/c++/10.3.1/bits/stl_pair.h ****   struct piecewise_construct_t { explicit piecewise_construct_t() = default; };
  81:/opt/homebrew/Cellar/arm-none-eabi-gcc/10.3-2021.07/gcc/arm-none-eabi/include/c++/10.3.1/bits/stl_pair.h **** 
  82:/opt/homebrew/Cellar/arm-none-eabi-gcc/10.3-2021.07/gcc/arm-none-eabi/include/c++/10.3.1/bits/stl_pair.h ****   /// Tag for piecewise construction of std::pair objects.
  83:/opt/homebrew/Cellar/arm-none-eabi-gcc/10.3-2021.07/gcc/arm-none-eabi/include/c++/10.3.1/bits/stl_pair.h ****   _GLIBCXX17_INLINE constexpr piecewise_construct_t piecewise_construct =
  84:/opt/homebrew/Cellar/arm-none-eabi-gcc/10.3-2021.07/gcc/arm-none-eabi/include/c++/10.3.1/bits/stl_pair.h ****     piecewise_construct_t();
  85:/opt/homebrew/Cellar/arm-none-eabi-gcc/10.3-2021.07/gcc/arm-none-eabi/include/c++/10.3.1/bits/stl_pair.h **** 
  86:/opt/homebrew/Cellar/arm-none-eabi-gcc/10.3-2021.07/gcc/arm-none-eabi/include/c++/10.3.1/bits/stl_pair.h ****   /// @cond undocumented
  87:/opt/homebrew/Cellar/arm-none-eabi-gcc/10.3-2021.07/gcc/arm-none-eabi/include/c++/10.3.1/bits/stl_pair.h **** 
  88:/opt/homebrew/Cellar/arm-none-eabi-gcc/10.3-2021.07/gcc/arm-none-eabi/include/c++/10.3.1/bits/stl_pair.h ****   // Forward declarations.
  89:/opt/homebrew/Cellar/arm-none-eabi-gcc/10.3-2021.07/gcc/arm-none-eabi/include/c++/10.3.1/bits/stl_pair.h ****   template<typename...>
  90:/opt/homebrew/Cellar/arm-none-eabi-gcc/10.3-2021.07/gcc/arm-none-eabi/include/c++/10.3.1/bits/stl_pair.h ****     class tuple;
  91:/opt/homebrew/Cellar/arm-none-eabi-gcc/10.3-2021.07/gcc/arm-none-eabi/include/c++/10.3.1/bits/stl_pair.h **** 
  92:/opt/homebrew/Cellar/arm-none-eabi-gcc/10.3-2021.07/gcc/arm-none-eabi/include/c++/10.3.1/bits/stl_pair.h ****   template<std::size_t...>
  93:/opt/homebrew/Cellar/arm-none-eabi-gcc/10.3-2021.07/gcc/arm-none-eabi/include/c++/10.3.1/bits/stl_pair.h ****     struct _Index_tuple;
  94:/opt/homebrew/Cellar/arm-none-eabi-gcc/10.3-2021.07/gcc/arm-none-eabi/include/c++/10.3.1/bits/stl_pair.h **** 
  95:/opt/homebrew/Cellar/arm-none-eabi-gcc/10.3-2021.07/gcc/arm-none-eabi/include/c++/10.3.1/bits/stl_pair.h ****   // Concept utility functions, reused in conditionally-explicit
  96:/opt/homebrew/Cellar/arm-none-eabi-gcc/10.3-2021.07/gcc/arm-none-eabi/include/c++/10.3.1/bits/stl_pair.h ****   // constructors.
  97:/opt/homebrew/Cellar/arm-none-eabi-gcc/10.3-2021.07/gcc/arm-none-eabi/include/c++/10.3.1/bits/stl_pair.h ****   // See PR 70437, don't look at is_constructible or
  98:/opt/homebrew/Cellar/arm-none-eabi-gcc/10.3-2021.07/gcc/arm-none-eabi/include/c++/10.3.1/bits/stl_pair.h ****   // is_convertible if the types are the same to
  99:/opt/homebrew/Cellar/arm-none-eabi-gcc/10.3-2021.07/gcc/arm-none-eabi/include/c++/10.3.1/bits/stl_pair.h ****   // avoid querying those properties for incomplete types.
ARM GAS  /var/folders/hl/qgbwny5j0fd895c2c41bk3tw0000gp/T//ccYZrJjP.s 			page 9


 100:/opt/homebrew/Cellar/arm-none-eabi-gcc/10.3-2021.07/gcc/arm-none-eabi/include/c++/10.3.1/bits/stl_pair.h ****   template <bool, typename _T1, typename _T2>
 101:/opt/homebrew/Cellar/arm-none-eabi-gcc/10.3-2021.07/gcc/arm-none-eabi/include/c++/10.3.1/bits/stl_pair.h ****     struct _PCC
 102:/opt/homebrew/Cellar/arm-none-eabi-gcc/10.3-2021.07/gcc/arm-none-eabi/include/c++/10.3.1/bits/stl_pair.h ****     {
 103:/opt/homebrew/Cellar/arm-none-eabi-gcc/10.3-2021.07/gcc/arm-none-eabi/include/c++/10.3.1/bits/stl_pair.h ****       template <typename _U1, typename _U2>
 104:/opt/homebrew/Cellar/arm-none-eabi-gcc/10.3-2021.07/gcc/arm-none-eabi/include/c++/10.3.1/bits/stl_pair.h ****       static constexpr bool _ConstructiblePair()
 105:/opt/homebrew/Cellar/arm-none-eabi-gcc/10.3-2021.07/gcc/arm-none-eabi/include/c++/10.3.1/bits/stl_pair.h ****       {
 106:/opt/homebrew/Cellar/arm-none-eabi-gcc/10.3-2021.07/gcc/arm-none-eabi/include/c++/10.3.1/bits/stl_pair.h **** 	return __and_<is_constructible<_T1, const _U1&>,
 107:/opt/homebrew/Cellar/arm-none-eabi-gcc/10.3-2021.07/gcc/arm-none-eabi/include/c++/10.3.1/bits/stl_pair.h **** 		      is_constructible<_T2, const _U2&>>::value;
 108:/opt/homebrew/Cellar/arm-none-eabi-gcc/10.3-2021.07/gcc/arm-none-eabi/include/c++/10.3.1/bits/stl_pair.h ****       }
 109:/opt/homebrew/Cellar/arm-none-eabi-gcc/10.3-2021.07/gcc/arm-none-eabi/include/c++/10.3.1/bits/stl_pair.h **** 
 110:/opt/homebrew/Cellar/arm-none-eabi-gcc/10.3-2021.07/gcc/arm-none-eabi/include/c++/10.3.1/bits/stl_pair.h ****       template <typename _U1, typename _U2>
 111:/opt/homebrew/Cellar/arm-none-eabi-gcc/10.3-2021.07/gcc/arm-none-eabi/include/c++/10.3.1/bits/stl_pair.h ****       static constexpr bool _ImplicitlyConvertiblePair()
 112:/opt/homebrew/Cellar/arm-none-eabi-gcc/10.3-2021.07/gcc/arm-none-eabi/include/c++/10.3.1/bits/stl_pair.h ****       {
 113:/opt/homebrew/Cellar/arm-none-eabi-gcc/10.3-2021.07/gcc/arm-none-eabi/include/c++/10.3.1/bits/stl_pair.h **** 	return __and_<is_convertible<const _U1&, _T1>,
 114:/opt/homebrew/Cellar/arm-none-eabi-gcc/10.3-2021.07/gcc/arm-none-eabi/include/c++/10.3.1/bits/stl_pair.h **** 		      is_convertible<const _U2&, _T2>>::value;
 115:/opt/homebrew/Cellar/arm-none-eabi-gcc/10.3-2021.07/gcc/arm-none-eabi/include/c++/10.3.1/bits/stl_pair.h ****       }
 116:/opt/homebrew/Cellar/arm-none-eabi-gcc/10.3-2021.07/gcc/arm-none-eabi/include/c++/10.3.1/bits/stl_pair.h **** 
 117:/opt/homebrew/Cellar/arm-none-eabi-gcc/10.3-2021.07/gcc/arm-none-eabi/include/c++/10.3.1/bits/stl_pair.h ****       template <typename _U1, typename _U2>
 118:/opt/homebrew/Cellar/arm-none-eabi-gcc/10.3-2021.07/gcc/arm-none-eabi/include/c++/10.3.1/bits/stl_pair.h ****       static constexpr bool _MoveConstructiblePair()
 119:/opt/homebrew/Cellar/arm-none-eabi-gcc/10.3-2021.07/gcc/arm-none-eabi/include/c++/10.3.1/bits/stl_pair.h ****       {
 120:/opt/homebrew/Cellar/arm-none-eabi-gcc/10.3-2021.07/gcc/arm-none-eabi/include/c++/10.3.1/bits/stl_pair.h **** 	return __and_<is_constructible<_T1, _U1&&>,
 121:/opt/homebrew/Cellar/arm-none-eabi-gcc/10.3-2021.07/gcc/arm-none-eabi/include/c++/10.3.1/bits/stl_pair.h **** 		      is_constructible<_T2, _U2&&>>::value;
 122:/opt/homebrew/Cellar/arm-none-eabi-gcc/10.3-2021.07/gcc/arm-none-eabi/include/c++/10.3.1/bits/stl_pair.h ****       }
 123:/opt/homebrew/Cellar/arm-none-eabi-gcc/10.3-2021.07/gcc/arm-none-eabi/include/c++/10.3.1/bits/stl_pair.h **** 
 124:/opt/homebrew/Cellar/arm-none-eabi-gcc/10.3-2021.07/gcc/arm-none-eabi/include/c++/10.3.1/bits/stl_pair.h ****       template <typename _U1, typename _U2>
 125:/opt/homebrew/Cellar/arm-none-eabi-gcc/10.3-2021.07/gcc/arm-none-eabi/include/c++/10.3.1/bits/stl_pair.h ****       static constexpr bool _ImplicitlyMoveConvertiblePair()
 126:/opt/homebrew/Cellar/arm-none-eabi-gcc/10.3-2021.07/gcc/arm-none-eabi/include/c++/10.3.1/bits/stl_pair.h ****       {
 127:/opt/homebrew/Cellar/arm-none-eabi-gcc/10.3-2021.07/gcc/arm-none-eabi/include/c++/10.3.1/bits/stl_pair.h **** 	return __and_<is_convertible<_U1&&, _T1>,
 128:/opt/homebrew/Cellar/arm-none-eabi-gcc/10.3-2021.07/gcc/arm-none-eabi/include/c++/10.3.1/bits/stl_pair.h **** 		      is_convertible<_U2&&, _T2>>::value;
 129:/opt/homebrew/Cellar/arm-none-eabi-gcc/10.3-2021.07/gcc/arm-none-eabi/include/c++/10.3.1/bits/stl_pair.h ****       }
 130:/opt/homebrew/Cellar/arm-none-eabi-gcc/10.3-2021.07/gcc/arm-none-eabi/include/c++/10.3.1/bits/stl_pair.h **** 
 131:/opt/homebrew/Cellar/arm-none-eabi-gcc/10.3-2021.07/gcc/arm-none-eabi/include/c++/10.3.1/bits/stl_pair.h ****       template <bool __implicit, typename _U1, typename _U2>
 132:/opt/homebrew/Cellar/arm-none-eabi-gcc/10.3-2021.07/gcc/arm-none-eabi/include/c++/10.3.1/bits/stl_pair.h ****       static constexpr bool _CopyMovePair()
 133:/opt/homebrew/Cellar/arm-none-eabi-gcc/10.3-2021.07/gcc/arm-none-eabi/include/c++/10.3.1/bits/stl_pair.h ****       {
 134:/opt/homebrew/Cellar/arm-none-eabi-gcc/10.3-2021.07/gcc/arm-none-eabi/include/c++/10.3.1/bits/stl_pair.h **** 	using __do_converts = __and_<is_convertible<const _U1&, _T1>,
 135:/opt/homebrew/Cellar/arm-none-eabi-gcc/10.3-2021.07/gcc/arm-none-eabi/include/c++/10.3.1/bits/stl_pair.h **** 				  is_convertible<_U2&&, _T2>>;
 136:/opt/homebrew/Cellar/arm-none-eabi-gcc/10.3-2021.07/gcc/arm-none-eabi/include/c++/10.3.1/bits/stl_pair.h **** 	using __converts = typename conditional<__implicit,
 137:/opt/homebrew/Cellar/arm-none-eabi-gcc/10.3-2021.07/gcc/arm-none-eabi/include/c++/10.3.1/bits/stl_pair.h **** 				       __do_converts,
 138:/opt/homebrew/Cellar/arm-none-eabi-gcc/10.3-2021.07/gcc/arm-none-eabi/include/c++/10.3.1/bits/stl_pair.h **** 				       __not_<__do_converts>>::type;
 139:/opt/homebrew/Cellar/arm-none-eabi-gcc/10.3-2021.07/gcc/arm-none-eabi/include/c++/10.3.1/bits/stl_pair.h **** 	return __and_<is_constructible<_T1, const _U1&>,
 140:/opt/homebrew/Cellar/arm-none-eabi-gcc/10.3-2021.07/gcc/arm-none-eabi/include/c++/10.3.1/bits/stl_pair.h **** 		      is_constructible<_T2, _U2&&>,
 141:/opt/homebrew/Cellar/arm-none-eabi-gcc/10.3-2021.07/gcc/arm-none-eabi/include/c++/10.3.1/bits/stl_pair.h **** 		      __converts
 142:/opt/homebrew/Cellar/arm-none-eabi-gcc/10.3-2021.07/gcc/arm-none-eabi/include/c++/10.3.1/bits/stl_pair.h **** 		      >::value;
 143:/opt/homebrew/Cellar/arm-none-eabi-gcc/10.3-2021.07/gcc/arm-none-eabi/include/c++/10.3.1/bits/stl_pair.h ****       }
 144:/opt/homebrew/Cellar/arm-none-eabi-gcc/10.3-2021.07/gcc/arm-none-eabi/include/c++/10.3.1/bits/stl_pair.h **** 
 145:/opt/homebrew/Cellar/arm-none-eabi-gcc/10.3-2021.07/gcc/arm-none-eabi/include/c++/10.3.1/bits/stl_pair.h ****       template <bool __implicit, typename _U1, typename _U2>
 146:/opt/homebrew/Cellar/arm-none-eabi-gcc/10.3-2021.07/gcc/arm-none-eabi/include/c++/10.3.1/bits/stl_pair.h ****       static constexpr bool _MoveCopyPair()
 147:/opt/homebrew/Cellar/arm-none-eabi-gcc/10.3-2021.07/gcc/arm-none-eabi/include/c++/10.3.1/bits/stl_pair.h ****       {
 148:/opt/homebrew/Cellar/arm-none-eabi-gcc/10.3-2021.07/gcc/arm-none-eabi/include/c++/10.3.1/bits/stl_pair.h **** 	using __do_converts = __and_<is_convertible<_U1&&, _T1>,
 149:/opt/homebrew/Cellar/arm-none-eabi-gcc/10.3-2021.07/gcc/arm-none-eabi/include/c++/10.3.1/bits/stl_pair.h **** 				  is_convertible<const _U2&, _T2>>;
 150:/opt/homebrew/Cellar/arm-none-eabi-gcc/10.3-2021.07/gcc/arm-none-eabi/include/c++/10.3.1/bits/stl_pair.h **** 	using __converts = typename conditional<__implicit,
 151:/opt/homebrew/Cellar/arm-none-eabi-gcc/10.3-2021.07/gcc/arm-none-eabi/include/c++/10.3.1/bits/stl_pair.h **** 				       __do_converts,
 152:/opt/homebrew/Cellar/arm-none-eabi-gcc/10.3-2021.07/gcc/arm-none-eabi/include/c++/10.3.1/bits/stl_pair.h **** 				       __not_<__do_converts>>::type;
 153:/opt/homebrew/Cellar/arm-none-eabi-gcc/10.3-2021.07/gcc/arm-none-eabi/include/c++/10.3.1/bits/stl_pair.h **** 	return __and_<is_constructible<_T1, _U1&&>,
 154:/opt/homebrew/Cellar/arm-none-eabi-gcc/10.3-2021.07/gcc/arm-none-eabi/include/c++/10.3.1/bits/stl_pair.h **** 		      is_constructible<_T2, const _U2&&>,
 155:/opt/homebrew/Cellar/arm-none-eabi-gcc/10.3-2021.07/gcc/arm-none-eabi/include/c++/10.3.1/bits/stl_pair.h **** 		      __converts
 156:/opt/homebrew/Cellar/arm-none-eabi-gcc/10.3-2021.07/gcc/arm-none-eabi/include/c++/10.3.1/bits/stl_pair.h **** 		      >::value;
ARM GAS  /var/folders/hl/qgbwny5j0fd895c2c41bk3tw0000gp/T//ccYZrJjP.s 			page 10


 157:/opt/homebrew/Cellar/arm-none-eabi-gcc/10.3-2021.07/gcc/arm-none-eabi/include/c++/10.3.1/bits/stl_pair.h ****       }
 158:/opt/homebrew/Cellar/arm-none-eabi-gcc/10.3-2021.07/gcc/arm-none-eabi/include/c++/10.3.1/bits/stl_pair.h ****   };
 159:/opt/homebrew/Cellar/arm-none-eabi-gcc/10.3-2021.07/gcc/arm-none-eabi/include/c++/10.3.1/bits/stl_pair.h **** 
 160:/opt/homebrew/Cellar/arm-none-eabi-gcc/10.3-2021.07/gcc/arm-none-eabi/include/c++/10.3.1/bits/stl_pair.h ****   template <typename _T1, typename _T2>
 161:/opt/homebrew/Cellar/arm-none-eabi-gcc/10.3-2021.07/gcc/arm-none-eabi/include/c++/10.3.1/bits/stl_pair.h ****     struct _PCC<false, _T1, _T2>
 162:/opt/homebrew/Cellar/arm-none-eabi-gcc/10.3-2021.07/gcc/arm-none-eabi/include/c++/10.3.1/bits/stl_pair.h ****     {
 163:/opt/homebrew/Cellar/arm-none-eabi-gcc/10.3-2021.07/gcc/arm-none-eabi/include/c++/10.3.1/bits/stl_pair.h ****       template <typename _U1, typename _U2>
 164:/opt/homebrew/Cellar/arm-none-eabi-gcc/10.3-2021.07/gcc/arm-none-eabi/include/c++/10.3.1/bits/stl_pair.h ****       static constexpr bool _ConstructiblePair()
 165:/opt/homebrew/Cellar/arm-none-eabi-gcc/10.3-2021.07/gcc/arm-none-eabi/include/c++/10.3.1/bits/stl_pair.h ****       {
 166:/opt/homebrew/Cellar/arm-none-eabi-gcc/10.3-2021.07/gcc/arm-none-eabi/include/c++/10.3.1/bits/stl_pair.h **** 	return false;
 167:/opt/homebrew/Cellar/arm-none-eabi-gcc/10.3-2021.07/gcc/arm-none-eabi/include/c++/10.3.1/bits/stl_pair.h ****       }
 168:/opt/homebrew/Cellar/arm-none-eabi-gcc/10.3-2021.07/gcc/arm-none-eabi/include/c++/10.3.1/bits/stl_pair.h **** 
 169:/opt/homebrew/Cellar/arm-none-eabi-gcc/10.3-2021.07/gcc/arm-none-eabi/include/c++/10.3.1/bits/stl_pair.h ****       template <typename _U1, typename _U2>
 170:/opt/homebrew/Cellar/arm-none-eabi-gcc/10.3-2021.07/gcc/arm-none-eabi/include/c++/10.3.1/bits/stl_pair.h ****       static constexpr bool _ImplicitlyConvertiblePair()
 171:/opt/homebrew/Cellar/arm-none-eabi-gcc/10.3-2021.07/gcc/arm-none-eabi/include/c++/10.3.1/bits/stl_pair.h ****       {
 172:/opt/homebrew/Cellar/arm-none-eabi-gcc/10.3-2021.07/gcc/arm-none-eabi/include/c++/10.3.1/bits/stl_pair.h **** 	return false;
 173:/opt/homebrew/Cellar/arm-none-eabi-gcc/10.3-2021.07/gcc/arm-none-eabi/include/c++/10.3.1/bits/stl_pair.h ****       }
 174:/opt/homebrew/Cellar/arm-none-eabi-gcc/10.3-2021.07/gcc/arm-none-eabi/include/c++/10.3.1/bits/stl_pair.h **** 
 175:/opt/homebrew/Cellar/arm-none-eabi-gcc/10.3-2021.07/gcc/arm-none-eabi/include/c++/10.3.1/bits/stl_pair.h ****       template <typename _U1, typename _U2>
 176:/opt/homebrew/Cellar/arm-none-eabi-gcc/10.3-2021.07/gcc/arm-none-eabi/include/c++/10.3.1/bits/stl_pair.h ****       static constexpr bool _MoveConstructiblePair()
 177:/opt/homebrew/Cellar/arm-none-eabi-gcc/10.3-2021.07/gcc/arm-none-eabi/include/c++/10.3.1/bits/stl_pair.h ****       {
 178:/opt/homebrew/Cellar/arm-none-eabi-gcc/10.3-2021.07/gcc/arm-none-eabi/include/c++/10.3.1/bits/stl_pair.h **** 	return false;
 179:/opt/homebrew/Cellar/arm-none-eabi-gcc/10.3-2021.07/gcc/arm-none-eabi/include/c++/10.3.1/bits/stl_pair.h ****       }
 180:/opt/homebrew/Cellar/arm-none-eabi-gcc/10.3-2021.07/gcc/arm-none-eabi/include/c++/10.3.1/bits/stl_pair.h **** 
 181:/opt/homebrew/Cellar/arm-none-eabi-gcc/10.3-2021.07/gcc/arm-none-eabi/include/c++/10.3.1/bits/stl_pair.h ****       template <typename _U1, typename _U2>
 182:/opt/homebrew/Cellar/arm-none-eabi-gcc/10.3-2021.07/gcc/arm-none-eabi/include/c++/10.3.1/bits/stl_pair.h ****       static constexpr bool _ImplicitlyMoveConvertiblePair()
 183:/opt/homebrew/Cellar/arm-none-eabi-gcc/10.3-2021.07/gcc/arm-none-eabi/include/c++/10.3.1/bits/stl_pair.h ****       {
 184:/opt/homebrew/Cellar/arm-none-eabi-gcc/10.3-2021.07/gcc/arm-none-eabi/include/c++/10.3.1/bits/stl_pair.h **** 	return false;
 185:/opt/homebrew/Cellar/arm-none-eabi-gcc/10.3-2021.07/gcc/arm-none-eabi/include/c++/10.3.1/bits/stl_pair.h ****       }
 186:/opt/homebrew/Cellar/arm-none-eabi-gcc/10.3-2021.07/gcc/arm-none-eabi/include/c++/10.3.1/bits/stl_pair.h ****   };
 187:/opt/homebrew/Cellar/arm-none-eabi-gcc/10.3-2021.07/gcc/arm-none-eabi/include/c++/10.3.1/bits/stl_pair.h **** #endif // C++11
 188:/opt/homebrew/Cellar/arm-none-eabi-gcc/10.3-2021.07/gcc/arm-none-eabi/include/c++/10.3.1/bits/stl_pair.h **** 
 189:/opt/homebrew/Cellar/arm-none-eabi-gcc/10.3-2021.07/gcc/arm-none-eabi/include/c++/10.3.1/bits/stl_pair.h ****   template<typename _U1, typename _U2> class __pair_base
 190:/opt/homebrew/Cellar/arm-none-eabi-gcc/10.3-2021.07/gcc/arm-none-eabi/include/c++/10.3.1/bits/stl_pair.h ****   {
 191:/opt/homebrew/Cellar/arm-none-eabi-gcc/10.3-2021.07/gcc/arm-none-eabi/include/c++/10.3.1/bits/stl_pair.h **** #if __cplusplus >= 201103L
 192:/opt/homebrew/Cellar/arm-none-eabi-gcc/10.3-2021.07/gcc/arm-none-eabi/include/c++/10.3.1/bits/stl_pair.h ****     template<typename _T1, typename _T2> friend struct pair;
 193:/opt/homebrew/Cellar/arm-none-eabi-gcc/10.3-2021.07/gcc/arm-none-eabi/include/c++/10.3.1/bits/stl_pair.h ****     __pair_base() = default;
 194:/opt/homebrew/Cellar/arm-none-eabi-gcc/10.3-2021.07/gcc/arm-none-eabi/include/c++/10.3.1/bits/stl_pair.h ****     ~__pair_base() = default;
 195:/opt/homebrew/Cellar/arm-none-eabi-gcc/10.3-2021.07/gcc/arm-none-eabi/include/c++/10.3.1/bits/stl_pair.h ****     __pair_base(const __pair_base&) = default;
 196:/opt/homebrew/Cellar/arm-none-eabi-gcc/10.3-2021.07/gcc/arm-none-eabi/include/c++/10.3.1/bits/stl_pair.h ****     __pair_base& operator=(const __pair_base&) = delete;
 197:/opt/homebrew/Cellar/arm-none-eabi-gcc/10.3-2021.07/gcc/arm-none-eabi/include/c++/10.3.1/bits/stl_pair.h **** #endif // C++11
 198:/opt/homebrew/Cellar/arm-none-eabi-gcc/10.3-2021.07/gcc/arm-none-eabi/include/c++/10.3.1/bits/stl_pair.h ****   };
 199:/opt/homebrew/Cellar/arm-none-eabi-gcc/10.3-2021.07/gcc/arm-none-eabi/include/c++/10.3.1/bits/stl_pair.h **** 
 200:/opt/homebrew/Cellar/arm-none-eabi-gcc/10.3-2021.07/gcc/arm-none-eabi/include/c++/10.3.1/bits/stl_pair.h ****   /// @endcond
 201:/opt/homebrew/Cellar/arm-none-eabi-gcc/10.3-2021.07/gcc/arm-none-eabi/include/c++/10.3.1/bits/stl_pair.h **** 
 202:/opt/homebrew/Cellar/arm-none-eabi-gcc/10.3-2021.07/gcc/arm-none-eabi/include/c++/10.3.1/bits/stl_pair.h ****  /**
 203:/opt/homebrew/Cellar/arm-none-eabi-gcc/10.3-2021.07/gcc/arm-none-eabi/include/c++/10.3.1/bits/stl_pair.h ****    *  @brief Struct holding two objects of arbitrary type.
 204:/opt/homebrew/Cellar/arm-none-eabi-gcc/10.3-2021.07/gcc/arm-none-eabi/include/c++/10.3.1/bits/stl_pair.h ****    *
 205:/opt/homebrew/Cellar/arm-none-eabi-gcc/10.3-2021.07/gcc/arm-none-eabi/include/c++/10.3.1/bits/stl_pair.h ****    *  @tparam _T1  Type of first object.
 206:/opt/homebrew/Cellar/arm-none-eabi-gcc/10.3-2021.07/gcc/arm-none-eabi/include/c++/10.3.1/bits/stl_pair.h ****    *  @tparam _T2  Type of second object.
 207:/opt/homebrew/Cellar/arm-none-eabi-gcc/10.3-2021.07/gcc/arm-none-eabi/include/c++/10.3.1/bits/stl_pair.h ****    *
 208:/opt/homebrew/Cellar/arm-none-eabi-gcc/10.3-2021.07/gcc/arm-none-eabi/include/c++/10.3.1/bits/stl_pair.h ****    *  <https://gcc.gnu.org/onlinedocs/libstdc++/manual/utilities.html>
 209:/opt/homebrew/Cellar/arm-none-eabi-gcc/10.3-2021.07/gcc/arm-none-eabi/include/c++/10.3.1/bits/stl_pair.h ****    */
 210:/opt/homebrew/Cellar/arm-none-eabi-gcc/10.3-2021.07/gcc/arm-none-eabi/include/c++/10.3.1/bits/stl_pair.h ****   template<typename _T1, typename _T2>
 211:/opt/homebrew/Cellar/arm-none-eabi-gcc/10.3-2021.07/gcc/arm-none-eabi/include/c++/10.3.1/bits/stl_pair.h ****     struct pair
 212:/opt/homebrew/Cellar/arm-none-eabi-gcc/10.3-2021.07/gcc/arm-none-eabi/include/c++/10.3.1/bits/stl_pair.h ****     : private __pair_base<_T1, _T2>
 213:/opt/homebrew/Cellar/arm-none-eabi-gcc/10.3-2021.07/gcc/arm-none-eabi/include/c++/10.3.1/bits/stl_pair.h ****     {
ARM GAS  /var/folders/hl/qgbwny5j0fd895c2c41bk3tw0000gp/T//ccYZrJjP.s 			page 11


 214:/opt/homebrew/Cellar/arm-none-eabi-gcc/10.3-2021.07/gcc/arm-none-eabi/include/c++/10.3.1/bits/stl_pair.h ****       typedef _T1 first_type;    ///< The type of the `first` member
 215:/opt/homebrew/Cellar/arm-none-eabi-gcc/10.3-2021.07/gcc/arm-none-eabi/include/c++/10.3.1/bits/stl_pair.h ****       typedef _T2 second_type;   ///< The type of the `second` member
 216:/opt/homebrew/Cellar/arm-none-eabi-gcc/10.3-2021.07/gcc/arm-none-eabi/include/c++/10.3.1/bits/stl_pair.h **** 
 217:/opt/homebrew/Cellar/arm-none-eabi-gcc/10.3-2021.07/gcc/arm-none-eabi/include/c++/10.3.1/bits/stl_pair.h ****       _T1 first;                 ///< The first member
 218:/opt/homebrew/Cellar/arm-none-eabi-gcc/10.3-2021.07/gcc/arm-none-eabi/include/c++/10.3.1/bits/stl_pair.h ****       _T2 second;                ///< The second member
 219:/opt/homebrew/Cellar/arm-none-eabi-gcc/10.3-2021.07/gcc/arm-none-eabi/include/c++/10.3.1/bits/stl_pair.h **** 
 220:/opt/homebrew/Cellar/arm-none-eabi-gcc/10.3-2021.07/gcc/arm-none-eabi/include/c++/10.3.1/bits/stl_pair.h ****       // _GLIBCXX_RESOLVE_LIB_DEFECTS
 221:/opt/homebrew/Cellar/arm-none-eabi-gcc/10.3-2021.07/gcc/arm-none-eabi/include/c++/10.3.1/bits/stl_pair.h ****       // 265.  std::pair::pair() effects overly restrictive
 222:/opt/homebrew/Cellar/arm-none-eabi-gcc/10.3-2021.07/gcc/arm-none-eabi/include/c++/10.3.1/bits/stl_pair.h ****       /** The default constructor creates @c first and @c second using their
 223:/opt/homebrew/Cellar/arm-none-eabi-gcc/10.3-2021.07/gcc/arm-none-eabi/include/c++/10.3.1/bits/stl_pair.h ****        *  respective default constructors.  */
 224:/opt/homebrew/Cellar/arm-none-eabi-gcc/10.3-2021.07/gcc/arm-none-eabi/include/c++/10.3.1/bits/stl_pair.h **** #if __cplusplus >= 201103L
 225:/opt/homebrew/Cellar/arm-none-eabi-gcc/10.3-2021.07/gcc/arm-none-eabi/include/c++/10.3.1/bits/stl_pair.h ****       template <typename _U1 = _T1,
 226:/opt/homebrew/Cellar/arm-none-eabi-gcc/10.3-2021.07/gcc/arm-none-eabi/include/c++/10.3.1/bits/stl_pair.h ****                 typename _U2 = _T2,
 227:/opt/homebrew/Cellar/arm-none-eabi-gcc/10.3-2021.07/gcc/arm-none-eabi/include/c++/10.3.1/bits/stl_pair.h ****                 typename enable_if<__and_<
 228:/opt/homebrew/Cellar/arm-none-eabi-gcc/10.3-2021.07/gcc/arm-none-eabi/include/c++/10.3.1/bits/stl_pair.h ****                                      __is_implicitly_default_constructible<_U1>,
 229:/opt/homebrew/Cellar/arm-none-eabi-gcc/10.3-2021.07/gcc/arm-none-eabi/include/c++/10.3.1/bits/stl_pair.h ****                                      __is_implicitly_default_constructible<_U2>>
 230:/opt/homebrew/Cellar/arm-none-eabi-gcc/10.3-2021.07/gcc/arm-none-eabi/include/c++/10.3.1/bits/stl_pair.h ****                                    ::value, bool>::type = true>
 231:/opt/homebrew/Cellar/arm-none-eabi-gcc/10.3-2021.07/gcc/arm-none-eabi/include/c++/10.3.1/bits/stl_pair.h **** #endif
 232:/opt/homebrew/Cellar/arm-none-eabi-gcc/10.3-2021.07/gcc/arm-none-eabi/include/c++/10.3.1/bits/stl_pair.h ****       _GLIBCXX_CONSTEXPR pair()
 233:/opt/homebrew/Cellar/arm-none-eabi-gcc/10.3-2021.07/gcc/arm-none-eabi/include/c++/10.3.1/bits/stl_pair.h ****       : first(), second() { }
 234:/opt/homebrew/Cellar/arm-none-eabi-gcc/10.3-2021.07/gcc/arm-none-eabi/include/c++/10.3.1/bits/stl_pair.h **** 
 235:/opt/homebrew/Cellar/arm-none-eabi-gcc/10.3-2021.07/gcc/arm-none-eabi/include/c++/10.3.1/bits/stl_pair.h **** #if __cplusplus >= 201103L
 236:/opt/homebrew/Cellar/arm-none-eabi-gcc/10.3-2021.07/gcc/arm-none-eabi/include/c++/10.3.1/bits/stl_pair.h ****       template <typename _U1 = _T1,
 237:/opt/homebrew/Cellar/arm-none-eabi-gcc/10.3-2021.07/gcc/arm-none-eabi/include/c++/10.3.1/bits/stl_pair.h ****                 typename _U2 = _T2,
 238:/opt/homebrew/Cellar/arm-none-eabi-gcc/10.3-2021.07/gcc/arm-none-eabi/include/c++/10.3.1/bits/stl_pair.h ****                 typename enable_if<__and_<
 239:/opt/homebrew/Cellar/arm-none-eabi-gcc/10.3-2021.07/gcc/arm-none-eabi/include/c++/10.3.1/bits/stl_pair.h ****                        is_default_constructible<_U1>,
 240:/opt/homebrew/Cellar/arm-none-eabi-gcc/10.3-2021.07/gcc/arm-none-eabi/include/c++/10.3.1/bits/stl_pair.h ****                        is_default_constructible<_U2>,
 241:/opt/homebrew/Cellar/arm-none-eabi-gcc/10.3-2021.07/gcc/arm-none-eabi/include/c++/10.3.1/bits/stl_pair.h ****                        __not_<
 242:/opt/homebrew/Cellar/arm-none-eabi-gcc/10.3-2021.07/gcc/arm-none-eabi/include/c++/10.3.1/bits/stl_pair.h ****                          __and_<__is_implicitly_default_constructible<_U1>,
 243:/opt/homebrew/Cellar/arm-none-eabi-gcc/10.3-2021.07/gcc/arm-none-eabi/include/c++/10.3.1/bits/stl_pair.h ****                                 __is_implicitly_default_constructible<_U2>>>>
 244:/opt/homebrew/Cellar/arm-none-eabi-gcc/10.3-2021.07/gcc/arm-none-eabi/include/c++/10.3.1/bits/stl_pair.h ****                                    ::value, bool>::type = false>
 245:/opt/homebrew/Cellar/arm-none-eabi-gcc/10.3-2021.07/gcc/arm-none-eabi/include/c++/10.3.1/bits/stl_pair.h ****       explicit constexpr pair()
 246:/opt/homebrew/Cellar/arm-none-eabi-gcc/10.3-2021.07/gcc/arm-none-eabi/include/c++/10.3.1/bits/stl_pair.h ****       : first(), second() { }
 247:/opt/homebrew/Cellar/arm-none-eabi-gcc/10.3-2021.07/gcc/arm-none-eabi/include/c++/10.3.1/bits/stl_pair.h **** #endif
 248:/opt/homebrew/Cellar/arm-none-eabi-gcc/10.3-2021.07/gcc/arm-none-eabi/include/c++/10.3.1/bits/stl_pair.h **** 
 249:/opt/homebrew/Cellar/arm-none-eabi-gcc/10.3-2021.07/gcc/arm-none-eabi/include/c++/10.3.1/bits/stl_pair.h **** #if __cplusplus < 201103L
 250:/opt/homebrew/Cellar/arm-none-eabi-gcc/10.3-2021.07/gcc/arm-none-eabi/include/c++/10.3.1/bits/stl_pair.h ****       /// Two objects may be passed to a @c pair constructor to be copied.
 251:/opt/homebrew/Cellar/arm-none-eabi-gcc/10.3-2021.07/gcc/arm-none-eabi/include/c++/10.3.1/bits/stl_pair.h ****       pair(const _T1& __a, const _T2& __b)
 252:/opt/homebrew/Cellar/arm-none-eabi-gcc/10.3-2021.07/gcc/arm-none-eabi/include/c++/10.3.1/bits/stl_pair.h ****       : first(__a), second(__b) { }
 253:/opt/homebrew/Cellar/arm-none-eabi-gcc/10.3-2021.07/gcc/arm-none-eabi/include/c++/10.3.1/bits/stl_pair.h **** #else
 254:/opt/homebrew/Cellar/arm-none-eabi-gcc/10.3-2021.07/gcc/arm-none-eabi/include/c++/10.3.1/bits/stl_pair.h ****       // Shortcut for constraining the templates that don't take pairs.
 255:/opt/homebrew/Cellar/arm-none-eabi-gcc/10.3-2021.07/gcc/arm-none-eabi/include/c++/10.3.1/bits/stl_pair.h ****       /// @cond undocumented
 256:/opt/homebrew/Cellar/arm-none-eabi-gcc/10.3-2021.07/gcc/arm-none-eabi/include/c++/10.3.1/bits/stl_pair.h ****       using _PCCP = _PCC<true, _T1, _T2>;
 257:/opt/homebrew/Cellar/arm-none-eabi-gcc/10.3-2021.07/gcc/arm-none-eabi/include/c++/10.3.1/bits/stl_pair.h ****       /// @endcond
 258:/opt/homebrew/Cellar/arm-none-eabi-gcc/10.3-2021.07/gcc/arm-none-eabi/include/c++/10.3.1/bits/stl_pair.h **** 
 259:/opt/homebrew/Cellar/arm-none-eabi-gcc/10.3-2021.07/gcc/arm-none-eabi/include/c++/10.3.1/bits/stl_pair.h ****       /// Construct from two const lvalues, allowing implicit conversions.
 260:/opt/homebrew/Cellar/arm-none-eabi-gcc/10.3-2021.07/gcc/arm-none-eabi/include/c++/10.3.1/bits/stl_pair.h ****       template<typename _U1 = _T1, typename _U2=_T2, typename
 261:/opt/homebrew/Cellar/arm-none-eabi-gcc/10.3-2021.07/gcc/arm-none-eabi/include/c++/10.3.1/bits/stl_pair.h **** 	       enable_if<_PCCP::template
 262:/opt/homebrew/Cellar/arm-none-eabi-gcc/10.3-2021.07/gcc/arm-none-eabi/include/c++/10.3.1/bits/stl_pair.h **** 			   _ConstructiblePair<_U1, _U2>()
 263:/opt/homebrew/Cellar/arm-none-eabi-gcc/10.3-2021.07/gcc/arm-none-eabi/include/c++/10.3.1/bits/stl_pair.h **** 	                 && _PCCP::template
 264:/opt/homebrew/Cellar/arm-none-eabi-gcc/10.3-2021.07/gcc/arm-none-eabi/include/c++/10.3.1/bits/stl_pair.h **** 			   _ImplicitlyConvertiblePair<_U1, _U2>(),
 265:/opt/homebrew/Cellar/arm-none-eabi-gcc/10.3-2021.07/gcc/arm-none-eabi/include/c++/10.3.1/bits/stl_pair.h ****                          bool>::type=true>
 266:/opt/homebrew/Cellar/arm-none-eabi-gcc/10.3-2021.07/gcc/arm-none-eabi/include/c++/10.3.1/bits/stl_pair.h ****       constexpr pair(const _T1& __a, const _T2& __b)
 267:/opt/homebrew/Cellar/arm-none-eabi-gcc/10.3-2021.07/gcc/arm-none-eabi/include/c++/10.3.1/bits/stl_pair.h ****       : first(__a), second(__b) { }
 268:/opt/homebrew/Cellar/arm-none-eabi-gcc/10.3-2021.07/gcc/arm-none-eabi/include/c++/10.3.1/bits/stl_pair.h **** 
 269:/opt/homebrew/Cellar/arm-none-eabi-gcc/10.3-2021.07/gcc/arm-none-eabi/include/c++/10.3.1/bits/stl_pair.h ****       /// Construct from two const lvalues, disallowing implicit conversions.
 270:/opt/homebrew/Cellar/arm-none-eabi-gcc/10.3-2021.07/gcc/arm-none-eabi/include/c++/10.3.1/bits/stl_pair.h ****        template<typename _U1 = _T1, typename _U2=_T2, typename
ARM GAS  /var/folders/hl/qgbwny5j0fd895c2c41bk3tw0000gp/T//ccYZrJjP.s 			page 12


 271:/opt/homebrew/Cellar/arm-none-eabi-gcc/10.3-2021.07/gcc/arm-none-eabi/include/c++/10.3.1/bits/stl_pair.h **** 		enable_if<_PCCP::template
 272:/opt/homebrew/Cellar/arm-none-eabi-gcc/10.3-2021.07/gcc/arm-none-eabi/include/c++/10.3.1/bits/stl_pair.h **** 			    _ConstructiblePair<_U1, _U2>()
 273:/opt/homebrew/Cellar/arm-none-eabi-gcc/10.3-2021.07/gcc/arm-none-eabi/include/c++/10.3.1/bits/stl_pair.h **** 	                  && !_PCCP::template
 274:/opt/homebrew/Cellar/arm-none-eabi-gcc/10.3-2021.07/gcc/arm-none-eabi/include/c++/10.3.1/bits/stl_pair.h **** 			    _ImplicitlyConvertiblePair<_U1, _U2>(),
 275:/opt/homebrew/Cellar/arm-none-eabi-gcc/10.3-2021.07/gcc/arm-none-eabi/include/c++/10.3.1/bits/stl_pair.h ****                          bool>::type=false>
 276:/opt/homebrew/Cellar/arm-none-eabi-gcc/10.3-2021.07/gcc/arm-none-eabi/include/c++/10.3.1/bits/stl_pair.h ****       explicit constexpr pair(const _T1& __a, const _T2& __b)
 277:/opt/homebrew/Cellar/arm-none-eabi-gcc/10.3-2021.07/gcc/arm-none-eabi/include/c++/10.3.1/bits/stl_pair.h ****       : first(__a), second(__b) { }
 278:/opt/homebrew/Cellar/arm-none-eabi-gcc/10.3-2021.07/gcc/arm-none-eabi/include/c++/10.3.1/bits/stl_pair.h **** #endif
 279:/opt/homebrew/Cellar/arm-none-eabi-gcc/10.3-2021.07/gcc/arm-none-eabi/include/c++/10.3.1/bits/stl_pair.h **** 
 280:/opt/homebrew/Cellar/arm-none-eabi-gcc/10.3-2021.07/gcc/arm-none-eabi/include/c++/10.3.1/bits/stl_pair.h **** #if __cplusplus < 201103L
 281:/opt/homebrew/Cellar/arm-none-eabi-gcc/10.3-2021.07/gcc/arm-none-eabi/include/c++/10.3.1/bits/stl_pair.h ****       /// There is also a templated constructor to convert from other pairs.
 282:/opt/homebrew/Cellar/arm-none-eabi-gcc/10.3-2021.07/gcc/arm-none-eabi/include/c++/10.3.1/bits/stl_pair.h ****       template<typename _U1, typename _U2>
 283:/opt/homebrew/Cellar/arm-none-eabi-gcc/10.3-2021.07/gcc/arm-none-eabi/include/c++/10.3.1/bits/stl_pair.h **** 	pair(const pair<_U1, _U2>& __p)
 284:/opt/homebrew/Cellar/arm-none-eabi-gcc/10.3-2021.07/gcc/arm-none-eabi/include/c++/10.3.1/bits/stl_pair.h **** 	: first(__p.first), second(__p.second) { }
 285:/opt/homebrew/Cellar/arm-none-eabi-gcc/10.3-2021.07/gcc/arm-none-eabi/include/c++/10.3.1/bits/stl_pair.h **** #else
 286:/opt/homebrew/Cellar/arm-none-eabi-gcc/10.3-2021.07/gcc/arm-none-eabi/include/c++/10.3.1/bits/stl_pair.h ****       // Shortcut for constraining the templates that take pairs.
 287:/opt/homebrew/Cellar/arm-none-eabi-gcc/10.3-2021.07/gcc/arm-none-eabi/include/c++/10.3.1/bits/stl_pair.h ****       /// @cond undocumented
 288:/opt/homebrew/Cellar/arm-none-eabi-gcc/10.3-2021.07/gcc/arm-none-eabi/include/c++/10.3.1/bits/stl_pair.h ****       template <typename _U1, typename _U2>
 289:/opt/homebrew/Cellar/arm-none-eabi-gcc/10.3-2021.07/gcc/arm-none-eabi/include/c++/10.3.1/bits/stl_pair.h ****         using _PCCFP = _PCC<!is_same<_T1, _U1>::value
 290:/opt/homebrew/Cellar/arm-none-eabi-gcc/10.3-2021.07/gcc/arm-none-eabi/include/c++/10.3.1/bits/stl_pair.h **** 			    || !is_same<_T2, _U2>::value,
 291:/opt/homebrew/Cellar/arm-none-eabi-gcc/10.3-2021.07/gcc/arm-none-eabi/include/c++/10.3.1/bits/stl_pair.h **** 			    _T1, _T2>;
 292:/opt/homebrew/Cellar/arm-none-eabi-gcc/10.3-2021.07/gcc/arm-none-eabi/include/c++/10.3.1/bits/stl_pair.h ****       /// @endcond
 293:/opt/homebrew/Cellar/arm-none-eabi-gcc/10.3-2021.07/gcc/arm-none-eabi/include/c++/10.3.1/bits/stl_pair.h **** 
 294:/opt/homebrew/Cellar/arm-none-eabi-gcc/10.3-2021.07/gcc/arm-none-eabi/include/c++/10.3.1/bits/stl_pair.h ****       template<typename _U1, typename _U2, typename
 295:/opt/homebrew/Cellar/arm-none-eabi-gcc/10.3-2021.07/gcc/arm-none-eabi/include/c++/10.3.1/bits/stl_pair.h **** 	       enable_if<_PCCFP<_U1, _U2>::template
 296:/opt/homebrew/Cellar/arm-none-eabi-gcc/10.3-2021.07/gcc/arm-none-eabi/include/c++/10.3.1/bits/stl_pair.h **** 			   _ConstructiblePair<_U1, _U2>()
 297:/opt/homebrew/Cellar/arm-none-eabi-gcc/10.3-2021.07/gcc/arm-none-eabi/include/c++/10.3.1/bits/stl_pair.h **** 	                 && _PCCFP<_U1, _U2>::template
 298:/opt/homebrew/Cellar/arm-none-eabi-gcc/10.3-2021.07/gcc/arm-none-eabi/include/c++/10.3.1/bits/stl_pair.h **** 			   _ImplicitlyConvertiblePair<_U1, _U2>(),
 299:/opt/homebrew/Cellar/arm-none-eabi-gcc/10.3-2021.07/gcc/arm-none-eabi/include/c++/10.3.1/bits/stl_pair.h **** 			  bool>::type=true>
 300:/opt/homebrew/Cellar/arm-none-eabi-gcc/10.3-2021.07/gcc/arm-none-eabi/include/c++/10.3.1/bits/stl_pair.h ****         constexpr pair(const pair<_U1, _U2>& __p)
 301:/opt/homebrew/Cellar/arm-none-eabi-gcc/10.3-2021.07/gcc/arm-none-eabi/include/c++/10.3.1/bits/stl_pair.h ****         : first(__p.first), second(__p.second) { }
 302:/opt/homebrew/Cellar/arm-none-eabi-gcc/10.3-2021.07/gcc/arm-none-eabi/include/c++/10.3.1/bits/stl_pair.h **** 
 303:/opt/homebrew/Cellar/arm-none-eabi-gcc/10.3-2021.07/gcc/arm-none-eabi/include/c++/10.3.1/bits/stl_pair.h ****       template<typename _U1, typename _U2, typename
 304:/opt/homebrew/Cellar/arm-none-eabi-gcc/10.3-2021.07/gcc/arm-none-eabi/include/c++/10.3.1/bits/stl_pair.h **** 	       enable_if<_PCCFP<_U1, _U2>::template
 305:/opt/homebrew/Cellar/arm-none-eabi-gcc/10.3-2021.07/gcc/arm-none-eabi/include/c++/10.3.1/bits/stl_pair.h **** 			   _ConstructiblePair<_U1, _U2>()
 306:/opt/homebrew/Cellar/arm-none-eabi-gcc/10.3-2021.07/gcc/arm-none-eabi/include/c++/10.3.1/bits/stl_pair.h **** 			 && !_PCCFP<_U1, _U2>::template
 307:/opt/homebrew/Cellar/arm-none-eabi-gcc/10.3-2021.07/gcc/arm-none-eabi/include/c++/10.3.1/bits/stl_pair.h **** 			   _ImplicitlyConvertiblePair<_U1, _U2>(),
 308:/opt/homebrew/Cellar/arm-none-eabi-gcc/10.3-2021.07/gcc/arm-none-eabi/include/c++/10.3.1/bits/stl_pair.h ****                          bool>::type=false>
 309:/opt/homebrew/Cellar/arm-none-eabi-gcc/10.3-2021.07/gcc/arm-none-eabi/include/c++/10.3.1/bits/stl_pair.h **** 	explicit constexpr pair(const pair<_U1, _U2>& __p)
 310:/opt/homebrew/Cellar/arm-none-eabi-gcc/10.3-2021.07/gcc/arm-none-eabi/include/c++/10.3.1/bits/stl_pair.h **** 	: first(__p.first), second(__p.second) { }
 311:/opt/homebrew/Cellar/arm-none-eabi-gcc/10.3-2021.07/gcc/arm-none-eabi/include/c++/10.3.1/bits/stl_pair.h **** #endif
 312:/opt/homebrew/Cellar/arm-none-eabi-gcc/10.3-2021.07/gcc/arm-none-eabi/include/c++/10.3.1/bits/stl_pair.h **** 
 313:/opt/homebrew/Cellar/arm-none-eabi-gcc/10.3-2021.07/gcc/arm-none-eabi/include/c++/10.3.1/bits/stl_pair.h **** #if __cplusplus >= 201103L
 314:/opt/homebrew/Cellar/arm-none-eabi-gcc/10.3-2021.07/gcc/arm-none-eabi/include/c++/10.3.1/bits/stl_pair.h ****       constexpr pair(const pair&) = default;	///< Copy constructor
 315:/opt/homebrew/Cellar/arm-none-eabi-gcc/10.3-2021.07/gcc/arm-none-eabi/include/c++/10.3.1/bits/stl_pair.h ****       constexpr pair(pair&&) = default;		///< Move constructor
 316:/opt/homebrew/Cellar/arm-none-eabi-gcc/10.3-2021.07/gcc/arm-none-eabi/include/c++/10.3.1/bits/stl_pair.h **** 
 317:/opt/homebrew/Cellar/arm-none-eabi-gcc/10.3-2021.07/gcc/arm-none-eabi/include/c++/10.3.1/bits/stl_pair.h ****       // DR 811.
 318:/opt/homebrew/Cellar/arm-none-eabi-gcc/10.3-2021.07/gcc/arm-none-eabi/include/c++/10.3.1/bits/stl_pair.h ****       template<typename _U1, typename
 319:/opt/homebrew/Cellar/arm-none-eabi-gcc/10.3-2021.07/gcc/arm-none-eabi/include/c++/10.3.1/bits/stl_pair.h **** 	       enable_if<_PCCP::template
 320:/opt/homebrew/Cellar/arm-none-eabi-gcc/10.3-2021.07/gcc/arm-none-eabi/include/c++/10.3.1/bits/stl_pair.h **** 			   _MoveCopyPair<true, _U1, _T2>(),
 321:/opt/homebrew/Cellar/arm-none-eabi-gcc/10.3-2021.07/gcc/arm-none-eabi/include/c++/10.3.1/bits/stl_pair.h ****                          bool>::type=true>
 322:/opt/homebrew/Cellar/arm-none-eabi-gcc/10.3-2021.07/gcc/arm-none-eabi/include/c++/10.3.1/bits/stl_pair.h ****        constexpr pair(_U1&& __x, const _T2& __y)
 323:/opt/homebrew/Cellar/arm-none-eabi-gcc/10.3-2021.07/gcc/arm-none-eabi/include/c++/10.3.1/bits/stl_pair.h ****        : first(std::forward<_U1>(__x)), second(__y) { }
 324:/opt/homebrew/Cellar/arm-none-eabi-gcc/10.3-2021.07/gcc/arm-none-eabi/include/c++/10.3.1/bits/stl_pair.h **** 
 325:/opt/homebrew/Cellar/arm-none-eabi-gcc/10.3-2021.07/gcc/arm-none-eabi/include/c++/10.3.1/bits/stl_pair.h ****       template<typename _U1, typename
 326:/opt/homebrew/Cellar/arm-none-eabi-gcc/10.3-2021.07/gcc/arm-none-eabi/include/c++/10.3.1/bits/stl_pair.h **** 	       enable_if<_PCCP::template
 327:/opt/homebrew/Cellar/arm-none-eabi-gcc/10.3-2021.07/gcc/arm-none-eabi/include/c++/10.3.1/bits/stl_pair.h **** 			   _MoveCopyPair<false, _U1, _T2>(),
ARM GAS  /var/folders/hl/qgbwny5j0fd895c2c41bk3tw0000gp/T//ccYZrJjP.s 			page 13


 328:/opt/homebrew/Cellar/arm-none-eabi-gcc/10.3-2021.07/gcc/arm-none-eabi/include/c++/10.3.1/bits/stl_pair.h ****                          bool>::type=false>
 329:/opt/homebrew/Cellar/arm-none-eabi-gcc/10.3-2021.07/gcc/arm-none-eabi/include/c++/10.3.1/bits/stl_pair.h ****        explicit constexpr pair(_U1&& __x, const _T2& __y)
 330:/opt/homebrew/Cellar/arm-none-eabi-gcc/10.3-2021.07/gcc/arm-none-eabi/include/c++/10.3.1/bits/stl_pair.h ****        : first(std::forward<_U1>(__x)), second(__y) { }
 331:/opt/homebrew/Cellar/arm-none-eabi-gcc/10.3-2021.07/gcc/arm-none-eabi/include/c++/10.3.1/bits/stl_pair.h **** 
 332:/opt/homebrew/Cellar/arm-none-eabi-gcc/10.3-2021.07/gcc/arm-none-eabi/include/c++/10.3.1/bits/stl_pair.h ****       template<typename _U2, typename
 333:/opt/homebrew/Cellar/arm-none-eabi-gcc/10.3-2021.07/gcc/arm-none-eabi/include/c++/10.3.1/bits/stl_pair.h **** 	       enable_if<_PCCP::template
 334:/opt/homebrew/Cellar/arm-none-eabi-gcc/10.3-2021.07/gcc/arm-none-eabi/include/c++/10.3.1/bits/stl_pair.h **** 			   _CopyMovePair<true, _T1, _U2>(),
 335:/opt/homebrew/Cellar/arm-none-eabi-gcc/10.3-2021.07/gcc/arm-none-eabi/include/c++/10.3.1/bits/stl_pair.h ****                          bool>::type=true>
 336:/opt/homebrew/Cellar/arm-none-eabi-gcc/10.3-2021.07/gcc/arm-none-eabi/include/c++/10.3.1/bits/stl_pair.h ****        constexpr pair(const _T1& __x, _U2&& __y)
 337:/opt/homebrew/Cellar/arm-none-eabi-gcc/10.3-2021.07/gcc/arm-none-eabi/include/c++/10.3.1/bits/stl_pair.h ****        : first(__x), second(std::forward<_U2>(__y)) { }
 338:/opt/homebrew/Cellar/arm-none-eabi-gcc/10.3-2021.07/gcc/arm-none-eabi/include/c++/10.3.1/bits/stl_pair.h **** 
 339:/opt/homebrew/Cellar/arm-none-eabi-gcc/10.3-2021.07/gcc/arm-none-eabi/include/c++/10.3.1/bits/stl_pair.h ****       template<typename _U2, typename
 340:/opt/homebrew/Cellar/arm-none-eabi-gcc/10.3-2021.07/gcc/arm-none-eabi/include/c++/10.3.1/bits/stl_pair.h **** 	       enable_if<_PCCP::template
 341:/opt/homebrew/Cellar/arm-none-eabi-gcc/10.3-2021.07/gcc/arm-none-eabi/include/c++/10.3.1/bits/stl_pair.h **** 			   _CopyMovePair<false, _T1, _U2>(),
 342:/opt/homebrew/Cellar/arm-none-eabi-gcc/10.3-2021.07/gcc/arm-none-eabi/include/c++/10.3.1/bits/stl_pair.h ****                          bool>::type=false>
 343:/opt/homebrew/Cellar/arm-none-eabi-gcc/10.3-2021.07/gcc/arm-none-eabi/include/c++/10.3.1/bits/stl_pair.h ****        explicit pair(const _T1& __x, _U2&& __y)
 344:/opt/homebrew/Cellar/arm-none-eabi-gcc/10.3-2021.07/gcc/arm-none-eabi/include/c++/10.3.1/bits/stl_pair.h ****        : first(__x), second(std::forward<_U2>(__y)) { }
 345:/opt/homebrew/Cellar/arm-none-eabi-gcc/10.3-2021.07/gcc/arm-none-eabi/include/c++/10.3.1/bits/stl_pair.h **** 
 346:/opt/homebrew/Cellar/arm-none-eabi-gcc/10.3-2021.07/gcc/arm-none-eabi/include/c++/10.3.1/bits/stl_pair.h ****       template<typename _U1, typename _U2, typename
 347:/opt/homebrew/Cellar/arm-none-eabi-gcc/10.3-2021.07/gcc/arm-none-eabi/include/c++/10.3.1/bits/stl_pair.h **** 	       enable_if<_PCCP::template
 348:/opt/homebrew/Cellar/arm-none-eabi-gcc/10.3-2021.07/gcc/arm-none-eabi/include/c++/10.3.1/bits/stl_pair.h **** 			   _MoveConstructiblePair<_U1, _U2>()
 349:/opt/homebrew/Cellar/arm-none-eabi-gcc/10.3-2021.07/gcc/arm-none-eabi/include/c++/10.3.1/bits/stl_pair.h **** 			  && _PCCP::template
 350:/opt/homebrew/Cellar/arm-none-eabi-gcc/10.3-2021.07/gcc/arm-none-eabi/include/c++/10.3.1/bits/stl_pair.h **** 			   _ImplicitlyMoveConvertiblePair<_U1, _U2>(),
 351:/opt/homebrew/Cellar/arm-none-eabi-gcc/10.3-2021.07/gcc/arm-none-eabi/include/c++/10.3.1/bits/stl_pair.h ****                          bool>::type=true>
 352:/opt/homebrew/Cellar/arm-none-eabi-gcc/10.3-2021.07/gcc/arm-none-eabi/include/c++/10.3.1/bits/stl_pair.h **** 	constexpr pair(_U1&& __x, _U2&& __y)
 353:/opt/homebrew/Cellar/arm-none-eabi-gcc/10.3-2021.07/gcc/arm-none-eabi/include/c++/10.3.1/bits/stl_pair.h **** 	: first(std::forward<_U1>(__x)), second(std::forward<_U2>(__y)) { }
 354:/opt/homebrew/Cellar/arm-none-eabi-gcc/10.3-2021.07/gcc/arm-none-eabi/include/c++/10.3.1/bits/stl_pair.h **** 
 355:/opt/homebrew/Cellar/arm-none-eabi-gcc/10.3-2021.07/gcc/arm-none-eabi/include/c++/10.3.1/bits/stl_pair.h ****       template<typename _U1, typename _U2, typename
 356:/opt/homebrew/Cellar/arm-none-eabi-gcc/10.3-2021.07/gcc/arm-none-eabi/include/c++/10.3.1/bits/stl_pair.h **** 	       enable_if<_PCCP::template
 357:/opt/homebrew/Cellar/arm-none-eabi-gcc/10.3-2021.07/gcc/arm-none-eabi/include/c++/10.3.1/bits/stl_pair.h **** 			   _MoveConstructiblePair<_U1, _U2>()
 358:/opt/homebrew/Cellar/arm-none-eabi-gcc/10.3-2021.07/gcc/arm-none-eabi/include/c++/10.3.1/bits/stl_pair.h **** 			  && !_PCCP::template
 359:/opt/homebrew/Cellar/arm-none-eabi-gcc/10.3-2021.07/gcc/arm-none-eabi/include/c++/10.3.1/bits/stl_pair.h **** 			   _ImplicitlyMoveConvertiblePair<_U1, _U2>(),
 360:/opt/homebrew/Cellar/arm-none-eabi-gcc/10.3-2021.07/gcc/arm-none-eabi/include/c++/10.3.1/bits/stl_pair.h ****                          bool>::type=false>
 361:/opt/homebrew/Cellar/arm-none-eabi-gcc/10.3-2021.07/gcc/arm-none-eabi/include/c++/10.3.1/bits/stl_pair.h **** 	explicit constexpr pair(_U1&& __x, _U2&& __y)
 362:/opt/homebrew/Cellar/arm-none-eabi-gcc/10.3-2021.07/gcc/arm-none-eabi/include/c++/10.3.1/bits/stl_pair.h **** 	: first(std::forward<_U1>(__x)), second(std::forward<_U2>(__y)) { }
 363:/opt/homebrew/Cellar/arm-none-eabi-gcc/10.3-2021.07/gcc/arm-none-eabi/include/c++/10.3.1/bits/stl_pair.h **** 
 364:/opt/homebrew/Cellar/arm-none-eabi-gcc/10.3-2021.07/gcc/arm-none-eabi/include/c++/10.3.1/bits/stl_pair.h **** 
 365:/opt/homebrew/Cellar/arm-none-eabi-gcc/10.3-2021.07/gcc/arm-none-eabi/include/c++/10.3.1/bits/stl_pair.h ****       template<typename _U1, typename _U2, typename
 366:/opt/homebrew/Cellar/arm-none-eabi-gcc/10.3-2021.07/gcc/arm-none-eabi/include/c++/10.3.1/bits/stl_pair.h **** 	       enable_if<_PCCFP<_U1, _U2>::template
 367:/opt/homebrew/Cellar/arm-none-eabi-gcc/10.3-2021.07/gcc/arm-none-eabi/include/c++/10.3.1/bits/stl_pair.h **** 			   _MoveConstructiblePair<_U1, _U2>()
 368:/opt/homebrew/Cellar/arm-none-eabi-gcc/10.3-2021.07/gcc/arm-none-eabi/include/c++/10.3.1/bits/stl_pair.h **** 			  && _PCCFP<_U1, _U2>::template
 369:/opt/homebrew/Cellar/arm-none-eabi-gcc/10.3-2021.07/gcc/arm-none-eabi/include/c++/10.3.1/bits/stl_pair.h **** 			   _ImplicitlyMoveConvertiblePair<_U1, _U2>(),
 370:/opt/homebrew/Cellar/arm-none-eabi-gcc/10.3-2021.07/gcc/arm-none-eabi/include/c++/10.3.1/bits/stl_pair.h ****                          bool>::type=true>
 371:/opt/homebrew/Cellar/arm-none-eabi-gcc/10.3-2021.07/gcc/arm-none-eabi/include/c++/10.3.1/bits/stl_pair.h **** 	constexpr pair(pair<_U1, _U2>&& __p)
 372:/opt/homebrew/Cellar/arm-none-eabi-gcc/10.3-2021.07/gcc/arm-none-eabi/include/c++/10.3.1/bits/stl_pair.h **** 	: first(std::forward<_U1>(__p.first)),
 373:/opt/homebrew/Cellar/arm-none-eabi-gcc/10.3-2021.07/gcc/arm-none-eabi/include/c++/10.3.1/bits/stl_pair.h **** 	  second(std::forward<_U2>(__p.second)) { }
 374:/opt/homebrew/Cellar/arm-none-eabi-gcc/10.3-2021.07/gcc/arm-none-eabi/include/c++/10.3.1/bits/stl_pair.h **** 
 375:/opt/homebrew/Cellar/arm-none-eabi-gcc/10.3-2021.07/gcc/arm-none-eabi/include/c++/10.3.1/bits/stl_pair.h ****       template<typename _U1, typename _U2, typename
 376:/opt/homebrew/Cellar/arm-none-eabi-gcc/10.3-2021.07/gcc/arm-none-eabi/include/c++/10.3.1/bits/stl_pair.h **** 	       enable_if<_PCCFP<_U1, _U2>::template
 377:/opt/homebrew/Cellar/arm-none-eabi-gcc/10.3-2021.07/gcc/arm-none-eabi/include/c++/10.3.1/bits/stl_pair.h **** 			   _MoveConstructiblePair<_U1, _U2>()
 378:/opt/homebrew/Cellar/arm-none-eabi-gcc/10.3-2021.07/gcc/arm-none-eabi/include/c++/10.3.1/bits/stl_pair.h **** 			  && !_PCCFP<_U1, _U2>::template
 379:/opt/homebrew/Cellar/arm-none-eabi-gcc/10.3-2021.07/gcc/arm-none-eabi/include/c++/10.3.1/bits/stl_pair.h **** 			   _ImplicitlyMoveConvertiblePair<_U1, _U2>(),
 380:/opt/homebrew/Cellar/arm-none-eabi-gcc/10.3-2021.07/gcc/arm-none-eabi/include/c++/10.3.1/bits/stl_pair.h ****                          bool>::type=false>
 381:/opt/homebrew/Cellar/arm-none-eabi-gcc/10.3-2021.07/gcc/arm-none-eabi/include/c++/10.3.1/bits/stl_pair.h **** 	explicit constexpr pair(pair<_U1, _U2>&& __p)
 382:/opt/homebrew/Cellar/arm-none-eabi-gcc/10.3-2021.07/gcc/arm-none-eabi/include/c++/10.3.1/bits/stl_pair.h **** 	: first(std::forward<_U1>(__p.first)),
 383:/opt/homebrew/Cellar/arm-none-eabi-gcc/10.3-2021.07/gcc/arm-none-eabi/include/c++/10.3.1/bits/stl_pair.h **** 	  second(std::forward<_U2>(__p.second)) { }
 384:/opt/homebrew/Cellar/arm-none-eabi-gcc/10.3-2021.07/gcc/arm-none-eabi/include/c++/10.3.1/bits/stl_pair.h **** 
ARM GAS  /var/folders/hl/qgbwny5j0fd895c2c41bk3tw0000gp/T//ccYZrJjP.s 			page 14


 385:/opt/homebrew/Cellar/arm-none-eabi-gcc/10.3-2021.07/gcc/arm-none-eabi/include/c++/10.3.1/bits/stl_pair.h ****       template<typename... _Args1, typename... _Args2>
 386:/opt/homebrew/Cellar/arm-none-eabi-gcc/10.3-2021.07/gcc/arm-none-eabi/include/c++/10.3.1/bits/stl_pair.h **** 	_GLIBCXX20_CONSTEXPR
 387:/opt/homebrew/Cellar/arm-none-eabi-gcc/10.3-2021.07/gcc/arm-none-eabi/include/c++/10.3.1/bits/stl_pair.h ****         pair(piecewise_construct_t, tuple<_Args1...>, tuple<_Args2...>);
 388:/opt/homebrew/Cellar/arm-none-eabi-gcc/10.3-2021.07/gcc/arm-none-eabi/include/c++/10.3.1/bits/stl_pair.h **** 
 389:/opt/homebrew/Cellar/arm-none-eabi-gcc/10.3-2021.07/gcc/arm-none-eabi/include/c++/10.3.1/bits/stl_pair.h ****       _GLIBCXX20_CONSTEXPR pair&
 390:/opt/homebrew/Cellar/arm-none-eabi-gcc/10.3-2021.07/gcc/arm-none-eabi/include/c++/10.3.1/bits/stl_pair.h ****       operator=(typename conditional<
 391:/opt/homebrew/Cellar/arm-none-eabi-gcc/10.3-2021.07/gcc/arm-none-eabi/include/c++/10.3.1/bits/stl_pair.h **** 		__and_<is_copy_assignable<_T1>,
 392:/opt/homebrew/Cellar/arm-none-eabi-gcc/10.3-2021.07/gcc/arm-none-eabi/include/c++/10.3.1/bits/stl_pair.h **** 		       is_copy_assignable<_T2>>::value,
 393:/opt/homebrew/Cellar/arm-none-eabi-gcc/10.3-2021.07/gcc/arm-none-eabi/include/c++/10.3.1/bits/stl_pair.h **** 		const pair&, const __nonesuch&>::type __p)
 394:/opt/homebrew/Cellar/arm-none-eabi-gcc/10.3-2021.07/gcc/arm-none-eabi/include/c++/10.3.1/bits/stl_pair.h ****       {
 395:/opt/homebrew/Cellar/arm-none-eabi-gcc/10.3-2021.07/gcc/arm-none-eabi/include/c++/10.3.1/bits/stl_pair.h **** 	first = __p.first;
 396:/opt/homebrew/Cellar/arm-none-eabi-gcc/10.3-2021.07/gcc/arm-none-eabi/include/c++/10.3.1/bits/stl_pair.h **** 	second = __p.second;
 397:/opt/homebrew/Cellar/arm-none-eabi-gcc/10.3-2021.07/gcc/arm-none-eabi/include/c++/10.3.1/bits/stl_pair.h **** 	return *this;
 398:/opt/homebrew/Cellar/arm-none-eabi-gcc/10.3-2021.07/gcc/arm-none-eabi/include/c++/10.3.1/bits/stl_pair.h ****       }
 399:/opt/homebrew/Cellar/arm-none-eabi-gcc/10.3-2021.07/gcc/arm-none-eabi/include/c++/10.3.1/bits/stl_pair.h **** 
 400:/opt/homebrew/Cellar/arm-none-eabi-gcc/10.3-2021.07/gcc/arm-none-eabi/include/c++/10.3.1/bits/stl_pair.h ****       _GLIBCXX20_CONSTEXPR pair&
 401:/opt/homebrew/Cellar/arm-none-eabi-gcc/10.3-2021.07/gcc/arm-none-eabi/include/c++/10.3.1/bits/stl_pair.h ****       operator=(typename conditional<
 402:/opt/homebrew/Cellar/arm-none-eabi-gcc/10.3-2021.07/gcc/arm-none-eabi/include/c++/10.3.1/bits/stl_pair.h **** 		__and_<is_move_assignable<_T1>,
 403:/opt/homebrew/Cellar/arm-none-eabi-gcc/10.3-2021.07/gcc/arm-none-eabi/include/c++/10.3.1/bits/stl_pair.h **** 		       is_move_assignable<_T2>>::value,
 404:/opt/homebrew/Cellar/arm-none-eabi-gcc/10.3-2021.07/gcc/arm-none-eabi/include/c++/10.3.1/bits/stl_pair.h **** 		pair&&, __nonesuch&&>::type __p)
 405:/opt/homebrew/Cellar/arm-none-eabi-gcc/10.3-2021.07/gcc/arm-none-eabi/include/c++/10.3.1/bits/stl_pair.h ****       noexcept(__and_<is_nothrow_move_assignable<_T1>,
 406:/opt/homebrew/Cellar/arm-none-eabi-gcc/10.3-2021.07/gcc/arm-none-eabi/include/c++/10.3.1/bits/stl_pair.h **** 		      is_nothrow_move_assignable<_T2>>::value)
 407:/opt/homebrew/Cellar/arm-none-eabi-gcc/10.3-2021.07/gcc/arm-none-eabi/include/c++/10.3.1/bits/stl_pair.h ****       {
 408:/opt/homebrew/Cellar/arm-none-eabi-gcc/10.3-2021.07/gcc/arm-none-eabi/include/c++/10.3.1/bits/stl_pair.h **** 	first = std::forward<first_type>(__p.first);
 409:/opt/homebrew/Cellar/arm-none-eabi-gcc/10.3-2021.07/gcc/arm-none-eabi/include/c++/10.3.1/bits/stl_pair.h **** 	second = std::forward<second_type>(__p.second);
 410:/opt/homebrew/Cellar/arm-none-eabi-gcc/10.3-2021.07/gcc/arm-none-eabi/include/c++/10.3.1/bits/stl_pair.h **** 	return *this;
 411:/opt/homebrew/Cellar/arm-none-eabi-gcc/10.3-2021.07/gcc/arm-none-eabi/include/c++/10.3.1/bits/stl_pair.h ****       }
 412:/opt/homebrew/Cellar/arm-none-eabi-gcc/10.3-2021.07/gcc/arm-none-eabi/include/c++/10.3.1/bits/stl_pair.h **** 
 413:/opt/homebrew/Cellar/arm-none-eabi-gcc/10.3-2021.07/gcc/arm-none-eabi/include/c++/10.3.1/bits/stl_pair.h ****       template<typename _U1, typename _U2>
 414:/opt/homebrew/Cellar/arm-none-eabi-gcc/10.3-2021.07/gcc/arm-none-eabi/include/c++/10.3.1/bits/stl_pair.h **** 	_GLIBCXX20_CONSTEXPR
 415:/opt/homebrew/Cellar/arm-none-eabi-gcc/10.3-2021.07/gcc/arm-none-eabi/include/c++/10.3.1/bits/stl_pair.h **** 	typename enable_if<__and_<is_assignable<_T1&, const _U1&>,
 416:/opt/homebrew/Cellar/arm-none-eabi-gcc/10.3-2021.07/gcc/arm-none-eabi/include/c++/10.3.1/bits/stl_pair.h **** 				  is_assignable<_T2&, const _U2&>>::value,
 417:/opt/homebrew/Cellar/arm-none-eabi-gcc/10.3-2021.07/gcc/arm-none-eabi/include/c++/10.3.1/bits/stl_pair.h **** 			   pair&>::type
 418:/opt/homebrew/Cellar/arm-none-eabi-gcc/10.3-2021.07/gcc/arm-none-eabi/include/c++/10.3.1/bits/stl_pair.h **** 	operator=(const pair<_U1, _U2>& __p)
 419:/opt/homebrew/Cellar/arm-none-eabi-gcc/10.3-2021.07/gcc/arm-none-eabi/include/c++/10.3.1/bits/stl_pair.h **** 	{
 420:/opt/homebrew/Cellar/arm-none-eabi-gcc/10.3-2021.07/gcc/arm-none-eabi/include/c++/10.3.1/bits/stl_pair.h **** 	  first = __p.first;
 421:/opt/homebrew/Cellar/arm-none-eabi-gcc/10.3-2021.07/gcc/arm-none-eabi/include/c++/10.3.1/bits/stl_pair.h **** 	  second = __p.second;
 422:/opt/homebrew/Cellar/arm-none-eabi-gcc/10.3-2021.07/gcc/arm-none-eabi/include/c++/10.3.1/bits/stl_pair.h **** 	  return *this;
 423:/opt/homebrew/Cellar/arm-none-eabi-gcc/10.3-2021.07/gcc/arm-none-eabi/include/c++/10.3.1/bits/stl_pair.h **** 	}
 424:/opt/homebrew/Cellar/arm-none-eabi-gcc/10.3-2021.07/gcc/arm-none-eabi/include/c++/10.3.1/bits/stl_pair.h **** 
 425:/opt/homebrew/Cellar/arm-none-eabi-gcc/10.3-2021.07/gcc/arm-none-eabi/include/c++/10.3.1/bits/stl_pair.h ****       template<typename _U1, typename _U2>
 426:/opt/homebrew/Cellar/arm-none-eabi-gcc/10.3-2021.07/gcc/arm-none-eabi/include/c++/10.3.1/bits/stl_pair.h **** 	_GLIBCXX20_CONSTEXPR
 427:/opt/homebrew/Cellar/arm-none-eabi-gcc/10.3-2021.07/gcc/arm-none-eabi/include/c++/10.3.1/bits/stl_pair.h **** 	typename enable_if<__and_<is_assignable<_T1&, _U1&&>,
 428:/opt/homebrew/Cellar/arm-none-eabi-gcc/10.3-2021.07/gcc/arm-none-eabi/include/c++/10.3.1/bits/stl_pair.h **** 				  is_assignable<_T2&, _U2&&>>::value,
 429:/opt/homebrew/Cellar/arm-none-eabi-gcc/10.3-2021.07/gcc/arm-none-eabi/include/c++/10.3.1/bits/stl_pair.h **** 			   pair&>::type
 430:/opt/homebrew/Cellar/arm-none-eabi-gcc/10.3-2021.07/gcc/arm-none-eabi/include/c++/10.3.1/bits/stl_pair.h **** 	operator=(pair<_U1, _U2>&& __p)
 431:/opt/homebrew/Cellar/arm-none-eabi-gcc/10.3-2021.07/gcc/arm-none-eabi/include/c++/10.3.1/bits/stl_pair.h **** 	{
 432:/opt/homebrew/Cellar/arm-none-eabi-gcc/10.3-2021.07/gcc/arm-none-eabi/include/c++/10.3.1/bits/stl_pair.h **** 	  first = std::forward<_U1>(__p.first);
 433:/opt/homebrew/Cellar/arm-none-eabi-gcc/10.3-2021.07/gcc/arm-none-eabi/include/c++/10.3.1/bits/stl_pair.h **** 	  second = std::forward<_U2>(__p.second);
 434:/opt/homebrew/Cellar/arm-none-eabi-gcc/10.3-2021.07/gcc/arm-none-eabi/include/c++/10.3.1/bits/stl_pair.h **** 	  return *this;
 435:/opt/homebrew/Cellar/arm-none-eabi-gcc/10.3-2021.07/gcc/arm-none-eabi/include/c++/10.3.1/bits/stl_pair.h **** 	}
 436:/opt/homebrew/Cellar/arm-none-eabi-gcc/10.3-2021.07/gcc/arm-none-eabi/include/c++/10.3.1/bits/stl_pair.h **** 
 437:/opt/homebrew/Cellar/arm-none-eabi-gcc/10.3-2021.07/gcc/arm-none-eabi/include/c++/10.3.1/bits/stl_pair.h ****       /// Swap the first members and then the second members.
 438:/opt/homebrew/Cellar/arm-none-eabi-gcc/10.3-2021.07/gcc/arm-none-eabi/include/c++/10.3.1/bits/stl_pair.h ****       _GLIBCXX20_CONSTEXPR void
 439:/opt/homebrew/Cellar/arm-none-eabi-gcc/10.3-2021.07/gcc/arm-none-eabi/include/c++/10.3.1/bits/stl_pair.h ****       swap(pair& __p)
 440:/opt/homebrew/Cellar/arm-none-eabi-gcc/10.3-2021.07/gcc/arm-none-eabi/include/c++/10.3.1/bits/stl_pair.h ****       noexcept(__and_<__is_nothrow_swappable<_T1>,
 441:/opt/homebrew/Cellar/arm-none-eabi-gcc/10.3-2021.07/gcc/arm-none-eabi/include/c++/10.3.1/bits/stl_pair.h ****                       __is_nothrow_swappable<_T2>>::value)
ARM GAS  /var/folders/hl/qgbwny5j0fd895c2c41bk3tw0000gp/T//ccYZrJjP.s 			page 15


 442:/opt/homebrew/Cellar/arm-none-eabi-gcc/10.3-2021.07/gcc/arm-none-eabi/include/c++/10.3.1/bits/stl_pair.h ****       {
 443:/opt/homebrew/Cellar/arm-none-eabi-gcc/10.3-2021.07/gcc/arm-none-eabi/include/c++/10.3.1/bits/stl_pair.h **** 	using std::swap;
 444:/opt/homebrew/Cellar/arm-none-eabi-gcc/10.3-2021.07/gcc/arm-none-eabi/include/c++/10.3.1/bits/stl_pair.h **** 	swap(first, __p.first);
 445:/opt/homebrew/Cellar/arm-none-eabi-gcc/10.3-2021.07/gcc/arm-none-eabi/include/c++/10.3.1/bits/stl_pair.h **** 	swap(second, __p.second);
 446:/opt/homebrew/Cellar/arm-none-eabi-gcc/10.3-2021.07/gcc/arm-none-eabi/include/c++/10.3.1/bits/stl_pair.h ****       }
 447:/opt/homebrew/Cellar/arm-none-eabi-gcc/10.3-2021.07/gcc/arm-none-eabi/include/c++/10.3.1/bits/stl_pair.h **** 
 448:/opt/homebrew/Cellar/arm-none-eabi-gcc/10.3-2021.07/gcc/arm-none-eabi/include/c++/10.3.1/bits/stl_pair.h ****     private:
 449:/opt/homebrew/Cellar/arm-none-eabi-gcc/10.3-2021.07/gcc/arm-none-eabi/include/c++/10.3.1/bits/stl_pair.h ****       template<typename... _Args1, std::size_t... _Indexes1,
 450:/opt/homebrew/Cellar/arm-none-eabi-gcc/10.3-2021.07/gcc/arm-none-eabi/include/c++/10.3.1/bits/stl_pair.h ****                typename... _Args2, std::size_t... _Indexes2>
 451:/opt/homebrew/Cellar/arm-none-eabi-gcc/10.3-2021.07/gcc/arm-none-eabi/include/c++/10.3.1/bits/stl_pair.h **** 	_GLIBCXX20_CONSTEXPR
 452:/opt/homebrew/Cellar/arm-none-eabi-gcc/10.3-2021.07/gcc/arm-none-eabi/include/c++/10.3.1/bits/stl_pair.h ****         pair(tuple<_Args1...>&, tuple<_Args2...>&,
 453:/opt/homebrew/Cellar/arm-none-eabi-gcc/10.3-2021.07/gcc/arm-none-eabi/include/c++/10.3.1/bits/stl_pair.h ****              _Index_tuple<_Indexes1...>, _Index_tuple<_Indexes2...>);
 454:/opt/homebrew/Cellar/arm-none-eabi-gcc/10.3-2021.07/gcc/arm-none-eabi/include/c++/10.3.1/bits/stl_pair.h **** #endif // C++11
 455:/opt/homebrew/Cellar/arm-none-eabi-gcc/10.3-2021.07/gcc/arm-none-eabi/include/c++/10.3.1/bits/stl_pair.h ****     };
 456:/opt/homebrew/Cellar/arm-none-eabi-gcc/10.3-2021.07/gcc/arm-none-eabi/include/c++/10.3.1/bits/stl_pair.h **** 
 457:/opt/homebrew/Cellar/arm-none-eabi-gcc/10.3-2021.07/gcc/arm-none-eabi/include/c++/10.3.1/bits/stl_pair.h ****   /// @relates pair @{
 458:/opt/homebrew/Cellar/arm-none-eabi-gcc/10.3-2021.07/gcc/arm-none-eabi/include/c++/10.3.1/bits/stl_pair.h **** 
 459:/opt/homebrew/Cellar/arm-none-eabi-gcc/10.3-2021.07/gcc/arm-none-eabi/include/c++/10.3.1/bits/stl_pair.h **** #if __cpp_deduction_guides >= 201606
 460:/opt/homebrew/Cellar/arm-none-eabi-gcc/10.3-2021.07/gcc/arm-none-eabi/include/c++/10.3.1/bits/stl_pair.h ****   template<typename _T1, typename _T2> pair(_T1, _T2) -> pair<_T1, _T2>;
 461:/opt/homebrew/Cellar/arm-none-eabi-gcc/10.3-2021.07/gcc/arm-none-eabi/include/c++/10.3.1/bits/stl_pair.h **** #endif
 462:/opt/homebrew/Cellar/arm-none-eabi-gcc/10.3-2021.07/gcc/arm-none-eabi/include/c++/10.3.1/bits/stl_pair.h **** 
 463:/opt/homebrew/Cellar/arm-none-eabi-gcc/10.3-2021.07/gcc/arm-none-eabi/include/c++/10.3.1/bits/stl_pair.h ****   /// Two pairs of the same type are equal iff their members are equal.
 464:/opt/homebrew/Cellar/arm-none-eabi-gcc/10.3-2021.07/gcc/arm-none-eabi/include/c++/10.3.1/bits/stl_pair.h ****   template<typename _T1, typename _T2>
 465:/opt/homebrew/Cellar/arm-none-eabi-gcc/10.3-2021.07/gcc/arm-none-eabi/include/c++/10.3.1/bits/stl_pair.h ****     inline _GLIBCXX_CONSTEXPR bool
 466:/opt/homebrew/Cellar/arm-none-eabi-gcc/10.3-2021.07/gcc/arm-none-eabi/include/c++/10.3.1/bits/stl_pair.h ****     operator==(const pair<_T1, _T2>& __x, const pair<_T1, _T2>& __y)
 467:/opt/homebrew/Cellar/arm-none-eabi-gcc/10.3-2021.07/gcc/arm-none-eabi/include/c++/10.3.1/bits/stl_pair.h ****     { return __x.first == __y.first && __x.second == __y.second; }
 468:/opt/homebrew/Cellar/arm-none-eabi-gcc/10.3-2021.07/gcc/arm-none-eabi/include/c++/10.3.1/bits/stl_pair.h **** 
 469:/opt/homebrew/Cellar/arm-none-eabi-gcc/10.3-2021.07/gcc/arm-none-eabi/include/c++/10.3.1/bits/stl_pair.h **** #if __cpp_lib_three_way_comparison && __cpp_lib_concepts
 470:/opt/homebrew/Cellar/arm-none-eabi-gcc/10.3-2021.07/gcc/arm-none-eabi/include/c++/10.3.1/bits/stl_pair.h ****   template<typename _T1, typename _T2>
 471:/opt/homebrew/Cellar/arm-none-eabi-gcc/10.3-2021.07/gcc/arm-none-eabi/include/c++/10.3.1/bits/stl_pair.h ****     constexpr common_comparison_category_t<__detail::__synth3way_t<_T1>,
 472:/opt/homebrew/Cellar/arm-none-eabi-gcc/10.3-2021.07/gcc/arm-none-eabi/include/c++/10.3.1/bits/stl_pair.h **** 					   __detail::__synth3way_t<_T2>>
 473:/opt/homebrew/Cellar/arm-none-eabi-gcc/10.3-2021.07/gcc/arm-none-eabi/include/c++/10.3.1/bits/stl_pair.h ****     operator<=>(const pair<_T1, _T2>& __x, const pair<_T1, _T2>& __y)
 474:/opt/homebrew/Cellar/arm-none-eabi-gcc/10.3-2021.07/gcc/arm-none-eabi/include/c++/10.3.1/bits/stl_pair.h ****     {
 475:/opt/homebrew/Cellar/arm-none-eabi-gcc/10.3-2021.07/gcc/arm-none-eabi/include/c++/10.3.1/bits/stl_pair.h ****       if (auto __c = __detail::__synth3way(__x.first, __y.first); __c != 0)
 476:/opt/homebrew/Cellar/arm-none-eabi-gcc/10.3-2021.07/gcc/arm-none-eabi/include/c++/10.3.1/bits/stl_pair.h **** 	return __c;
 477:/opt/homebrew/Cellar/arm-none-eabi-gcc/10.3-2021.07/gcc/arm-none-eabi/include/c++/10.3.1/bits/stl_pair.h ****       return __detail::__synth3way(__x.second, __y.second);
 478:/opt/homebrew/Cellar/arm-none-eabi-gcc/10.3-2021.07/gcc/arm-none-eabi/include/c++/10.3.1/bits/stl_pair.h ****     }
 479:/opt/homebrew/Cellar/arm-none-eabi-gcc/10.3-2021.07/gcc/arm-none-eabi/include/c++/10.3.1/bits/stl_pair.h **** #else
 480:/opt/homebrew/Cellar/arm-none-eabi-gcc/10.3-2021.07/gcc/arm-none-eabi/include/c++/10.3.1/bits/stl_pair.h ****   /** Defines a lexicographical order for pairs.
 481:/opt/homebrew/Cellar/arm-none-eabi-gcc/10.3-2021.07/gcc/arm-none-eabi/include/c++/10.3.1/bits/stl_pair.h ****    *
 482:/opt/homebrew/Cellar/arm-none-eabi-gcc/10.3-2021.07/gcc/arm-none-eabi/include/c++/10.3.1/bits/stl_pair.h ****    * For two pairs of the same type, `P` is ordered before `Q` if
 483:/opt/homebrew/Cellar/arm-none-eabi-gcc/10.3-2021.07/gcc/arm-none-eabi/include/c++/10.3.1/bits/stl_pair.h ****    * `P.first` is less than `Q.first`, or if `P.first` and `Q.first`
 484:/opt/homebrew/Cellar/arm-none-eabi-gcc/10.3-2021.07/gcc/arm-none-eabi/include/c++/10.3.1/bits/stl_pair.h ****    * are equivalent (neither is less than the other) and `P.second` is less
 485:/opt/homebrew/Cellar/arm-none-eabi-gcc/10.3-2021.07/gcc/arm-none-eabi/include/c++/10.3.1/bits/stl_pair.h ****    * than `Q.second`.
 486:/opt/homebrew/Cellar/arm-none-eabi-gcc/10.3-2021.07/gcc/arm-none-eabi/include/c++/10.3.1/bits/stl_pair.h ****   */
 487:/opt/homebrew/Cellar/arm-none-eabi-gcc/10.3-2021.07/gcc/arm-none-eabi/include/c++/10.3.1/bits/stl_pair.h ****   template<typename _T1, typename _T2>
 488:/opt/homebrew/Cellar/arm-none-eabi-gcc/10.3-2021.07/gcc/arm-none-eabi/include/c++/10.3.1/bits/stl_pair.h ****     inline _GLIBCXX_CONSTEXPR bool
 489:/opt/homebrew/Cellar/arm-none-eabi-gcc/10.3-2021.07/gcc/arm-none-eabi/include/c++/10.3.1/bits/stl_pair.h ****     operator<(const pair<_T1, _T2>& __x, const pair<_T1, _T2>& __y)
 490:/opt/homebrew/Cellar/arm-none-eabi-gcc/10.3-2021.07/gcc/arm-none-eabi/include/c++/10.3.1/bits/stl_pair.h ****     { return __x.first < __y.first
 491:/opt/homebrew/Cellar/arm-none-eabi-gcc/10.3-2021.07/gcc/arm-none-eabi/include/c++/10.3.1/bits/stl_pair.h **** 	     || (!(__y.first < __x.first) && __x.second < __y.second); }
 492:/opt/homebrew/Cellar/arm-none-eabi-gcc/10.3-2021.07/gcc/arm-none-eabi/include/c++/10.3.1/bits/stl_pair.h **** 
 493:/opt/homebrew/Cellar/arm-none-eabi-gcc/10.3-2021.07/gcc/arm-none-eabi/include/c++/10.3.1/bits/stl_pair.h ****   /// Uses @c operator== to find the result.
 494:/opt/homebrew/Cellar/arm-none-eabi-gcc/10.3-2021.07/gcc/arm-none-eabi/include/c++/10.3.1/bits/stl_pair.h ****   template<typename _T1, typename _T2>
 495:/opt/homebrew/Cellar/arm-none-eabi-gcc/10.3-2021.07/gcc/arm-none-eabi/include/c++/10.3.1/bits/stl_pair.h ****     inline _GLIBCXX_CONSTEXPR bool
 496:/opt/homebrew/Cellar/arm-none-eabi-gcc/10.3-2021.07/gcc/arm-none-eabi/include/c++/10.3.1/bits/stl_pair.h ****     operator!=(const pair<_T1, _T2>& __x, const pair<_T1, _T2>& __y)
 497:/opt/homebrew/Cellar/arm-none-eabi-gcc/10.3-2021.07/gcc/arm-none-eabi/include/c++/10.3.1/bits/stl_pair.h ****     { return !(__x == __y); }
 498:/opt/homebrew/Cellar/arm-none-eabi-gcc/10.3-2021.07/gcc/arm-none-eabi/include/c++/10.3.1/bits/stl_pair.h **** 
ARM GAS  /var/folders/hl/qgbwny5j0fd895c2c41bk3tw0000gp/T//ccYZrJjP.s 			page 16


 499:/opt/homebrew/Cellar/arm-none-eabi-gcc/10.3-2021.07/gcc/arm-none-eabi/include/c++/10.3.1/bits/stl_pair.h ****   /// Uses @c operator< to find the result.
 500:/opt/homebrew/Cellar/arm-none-eabi-gcc/10.3-2021.07/gcc/arm-none-eabi/include/c++/10.3.1/bits/stl_pair.h ****   template<typename _T1, typename _T2>
 501:/opt/homebrew/Cellar/arm-none-eabi-gcc/10.3-2021.07/gcc/arm-none-eabi/include/c++/10.3.1/bits/stl_pair.h ****     inline _GLIBCXX_CONSTEXPR bool
 502:/opt/homebrew/Cellar/arm-none-eabi-gcc/10.3-2021.07/gcc/arm-none-eabi/include/c++/10.3.1/bits/stl_pair.h ****     operator>(const pair<_T1, _T2>& __x, const pair<_T1, _T2>& __y)
 503:/opt/homebrew/Cellar/arm-none-eabi-gcc/10.3-2021.07/gcc/arm-none-eabi/include/c++/10.3.1/bits/stl_pair.h ****     { return __y < __x; }
 504:/opt/homebrew/Cellar/arm-none-eabi-gcc/10.3-2021.07/gcc/arm-none-eabi/include/c++/10.3.1/bits/stl_pair.h **** 
 505:/opt/homebrew/Cellar/arm-none-eabi-gcc/10.3-2021.07/gcc/arm-none-eabi/include/c++/10.3.1/bits/stl_pair.h ****   /// Uses @c operator< to find the result.
 506:/opt/homebrew/Cellar/arm-none-eabi-gcc/10.3-2021.07/gcc/arm-none-eabi/include/c++/10.3.1/bits/stl_pair.h ****   template<typename _T1, typename _T2>
 507:/opt/homebrew/Cellar/arm-none-eabi-gcc/10.3-2021.07/gcc/arm-none-eabi/include/c++/10.3.1/bits/stl_pair.h ****     inline _GLIBCXX_CONSTEXPR bool
 508:/opt/homebrew/Cellar/arm-none-eabi-gcc/10.3-2021.07/gcc/arm-none-eabi/include/c++/10.3.1/bits/stl_pair.h ****     operator<=(const pair<_T1, _T2>& __x, const pair<_T1, _T2>& __y)
 509:/opt/homebrew/Cellar/arm-none-eabi-gcc/10.3-2021.07/gcc/arm-none-eabi/include/c++/10.3.1/bits/stl_pair.h ****     { return !(__y < __x); }
 510:/opt/homebrew/Cellar/arm-none-eabi-gcc/10.3-2021.07/gcc/arm-none-eabi/include/c++/10.3.1/bits/stl_pair.h **** 
 511:/opt/homebrew/Cellar/arm-none-eabi-gcc/10.3-2021.07/gcc/arm-none-eabi/include/c++/10.3.1/bits/stl_pair.h ****   /// Uses @c operator< to find the result.
 512:/opt/homebrew/Cellar/arm-none-eabi-gcc/10.3-2021.07/gcc/arm-none-eabi/include/c++/10.3.1/bits/stl_pair.h ****   template<typename _T1, typename _T2>
 513:/opt/homebrew/Cellar/arm-none-eabi-gcc/10.3-2021.07/gcc/arm-none-eabi/include/c++/10.3.1/bits/stl_pair.h ****     inline _GLIBCXX_CONSTEXPR bool
 514:/opt/homebrew/Cellar/arm-none-eabi-gcc/10.3-2021.07/gcc/arm-none-eabi/include/c++/10.3.1/bits/stl_pair.h ****     operator>=(const pair<_T1, _T2>& __x, const pair<_T1, _T2>& __y)
 515:/opt/homebrew/Cellar/arm-none-eabi-gcc/10.3-2021.07/gcc/arm-none-eabi/include/c++/10.3.1/bits/stl_pair.h ****     { return !(__x < __y); }
 516:/opt/homebrew/Cellar/arm-none-eabi-gcc/10.3-2021.07/gcc/arm-none-eabi/include/c++/10.3.1/bits/stl_pair.h **** #endif // !(three_way_comparison && concepts)
 517:/opt/homebrew/Cellar/arm-none-eabi-gcc/10.3-2021.07/gcc/arm-none-eabi/include/c++/10.3.1/bits/stl_pair.h **** 
 518:/opt/homebrew/Cellar/arm-none-eabi-gcc/10.3-2021.07/gcc/arm-none-eabi/include/c++/10.3.1/bits/stl_pair.h **** #if __cplusplus >= 201103L
 519:/opt/homebrew/Cellar/arm-none-eabi-gcc/10.3-2021.07/gcc/arm-none-eabi/include/c++/10.3.1/bits/stl_pair.h ****   /** Swap overload for pairs. Calls std::pair::swap().
 520:/opt/homebrew/Cellar/arm-none-eabi-gcc/10.3-2021.07/gcc/arm-none-eabi/include/c++/10.3.1/bits/stl_pair.h ****    *
 521:/opt/homebrew/Cellar/arm-none-eabi-gcc/10.3-2021.07/gcc/arm-none-eabi/include/c++/10.3.1/bits/stl_pair.h ****    * @note This std::swap overload is not declared in C++03 mode,
 522:/opt/homebrew/Cellar/arm-none-eabi-gcc/10.3-2021.07/gcc/arm-none-eabi/include/c++/10.3.1/bits/stl_pair.h ****    * which has performance implications, e.g. see https://gcc.gnu.org/PR38466
 523:/opt/homebrew/Cellar/arm-none-eabi-gcc/10.3-2021.07/gcc/arm-none-eabi/include/c++/10.3.1/bits/stl_pair.h ****   */
 524:/opt/homebrew/Cellar/arm-none-eabi-gcc/10.3-2021.07/gcc/arm-none-eabi/include/c++/10.3.1/bits/stl_pair.h ****   template<typename _T1, typename _T2>
 525:/opt/homebrew/Cellar/arm-none-eabi-gcc/10.3-2021.07/gcc/arm-none-eabi/include/c++/10.3.1/bits/stl_pair.h ****     _GLIBCXX20_CONSTEXPR inline
 526:/opt/homebrew/Cellar/arm-none-eabi-gcc/10.3-2021.07/gcc/arm-none-eabi/include/c++/10.3.1/bits/stl_pair.h **** #if __cplusplus > 201402L || !defined(__STRICT_ANSI__) // c++1z or gnu++11
 527:/opt/homebrew/Cellar/arm-none-eabi-gcc/10.3-2021.07/gcc/arm-none-eabi/include/c++/10.3.1/bits/stl_pair.h ****     // Constrained free swap overload, see p0185r1
 528:/opt/homebrew/Cellar/arm-none-eabi-gcc/10.3-2021.07/gcc/arm-none-eabi/include/c++/10.3.1/bits/stl_pair.h ****     typename enable_if<__and_<__is_swappable<_T1>,
 529:/opt/homebrew/Cellar/arm-none-eabi-gcc/10.3-2021.07/gcc/arm-none-eabi/include/c++/10.3.1/bits/stl_pair.h ****                               __is_swappable<_T2>>::value>::type
 530:/opt/homebrew/Cellar/arm-none-eabi-gcc/10.3-2021.07/gcc/arm-none-eabi/include/c++/10.3.1/bits/stl_pair.h **** #else
 531:/opt/homebrew/Cellar/arm-none-eabi-gcc/10.3-2021.07/gcc/arm-none-eabi/include/c++/10.3.1/bits/stl_pair.h ****     void
 532:/opt/homebrew/Cellar/arm-none-eabi-gcc/10.3-2021.07/gcc/arm-none-eabi/include/c++/10.3.1/bits/stl_pair.h **** #endif
 533:/opt/homebrew/Cellar/arm-none-eabi-gcc/10.3-2021.07/gcc/arm-none-eabi/include/c++/10.3.1/bits/stl_pair.h ****     swap(pair<_T1, _T2>& __x, pair<_T1, _T2>& __y)
 534:/opt/homebrew/Cellar/arm-none-eabi-gcc/10.3-2021.07/gcc/arm-none-eabi/include/c++/10.3.1/bits/stl_pair.h ****     noexcept(noexcept(__x.swap(__y)))
 535:/opt/homebrew/Cellar/arm-none-eabi-gcc/10.3-2021.07/gcc/arm-none-eabi/include/c++/10.3.1/bits/stl_pair.h ****     { __x.swap(__y); }
 536:/opt/homebrew/Cellar/arm-none-eabi-gcc/10.3-2021.07/gcc/arm-none-eabi/include/c++/10.3.1/bits/stl_pair.h **** 
 537:/opt/homebrew/Cellar/arm-none-eabi-gcc/10.3-2021.07/gcc/arm-none-eabi/include/c++/10.3.1/bits/stl_pair.h **** #if __cplusplus > 201402L || !defined(__STRICT_ANSI__) // c++1z or gnu++11
 538:/opt/homebrew/Cellar/arm-none-eabi-gcc/10.3-2021.07/gcc/arm-none-eabi/include/c++/10.3.1/bits/stl_pair.h ****   template<typename _T1, typename _T2>
 539:/opt/homebrew/Cellar/arm-none-eabi-gcc/10.3-2021.07/gcc/arm-none-eabi/include/c++/10.3.1/bits/stl_pair.h ****     typename enable_if<!__and_<__is_swappable<_T1>,
 540:/opt/homebrew/Cellar/arm-none-eabi-gcc/10.3-2021.07/gcc/arm-none-eabi/include/c++/10.3.1/bits/stl_pair.h **** 			       __is_swappable<_T2>>::value>::type
 541:/opt/homebrew/Cellar/arm-none-eabi-gcc/10.3-2021.07/gcc/arm-none-eabi/include/c++/10.3.1/bits/stl_pair.h ****     swap(pair<_T1, _T2>&, pair<_T1, _T2>&) = delete;
 542:/opt/homebrew/Cellar/arm-none-eabi-gcc/10.3-2021.07/gcc/arm-none-eabi/include/c++/10.3.1/bits/stl_pair.h **** #endif
 543:/opt/homebrew/Cellar/arm-none-eabi-gcc/10.3-2021.07/gcc/arm-none-eabi/include/c++/10.3.1/bits/stl_pair.h **** #endif // __cplusplus >= 201103L
 544:/opt/homebrew/Cellar/arm-none-eabi-gcc/10.3-2021.07/gcc/arm-none-eabi/include/c++/10.3.1/bits/stl_pair.h **** 
 545:/opt/homebrew/Cellar/arm-none-eabi-gcc/10.3-2021.07/gcc/arm-none-eabi/include/c++/10.3.1/bits/stl_pair.h ****   /// @} relates pair
 546:/opt/homebrew/Cellar/arm-none-eabi-gcc/10.3-2021.07/gcc/arm-none-eabi/include/c++/10.3.1/bits/stl_pair.h **** 
 547:/opt/homebrew/Cellar/arm-none-eabi-gcc/10.3-2021.07/gcc/arm-none-eabi/include/c++/10.3.1/bits/stl_pair.h ****   /**
 548:/opt/homebrew/Cellar/arm-none-eabi-gcc/10.3-2021.07/gcc/arm-none-eabi/include/c++/10.3.1/bits/stl_pair.h ****    *  @brief A convenience wrapper for creating a pair from two objects.
 549:/opt/homebrew/Cellar/arm-none-eabi-gcc/10.3-2021.07/gcc/arm-none-eabi/include/c++/10.3.1/bits/stl_pair.h ****    *  @param  __x  The first object.
 550:/opt/homebrew/Cellar/arm-none-eabi-gcc/10.3-2021.07/gcc/arm-none-eabi/include/c++/10.3.1/bits/stl_pair.h ****    *  @param  __y  The second object.
 551:/opt/homebrew/Cellar/arm-none-eabi-gcc/10.3-2021.07/gcc/arm-none-eabi/include/c++/10.3.1/bits/stl_pair.h ****    *  @return   A newly-constructed pair<> object of the appropriate type.
 552:/opt/homebrew/Cellar/arm-none-eabi-gcc/10.3-2021.07/gcc/arm-none-eabi/include/c++/10.3.1/bits/stl_pair.h ****    *
 553:/opt/homebrew/Cellar/arm-none-eabi-gcc/10.3-2021.07/gcc/arm-none-eabi/include/c++/10.3.1/bits/stl_pair.h ****    *  The C++98 standard says the objects are passed by reference-to-const,
 554:/opt/homebrew/Cellar/arm-none-eabi-gcc/10.3-2021.07/gcc/arm-none-eabi/include/c++/10.3.1/bits/stl_pair.h ****    *  but C++03 says they are passed by value (this was LWG issue #181).
 555:/opt/homebrew/Cellar/arm-none-eabi-gcc/10.3-2021.07/gcc/arm-none-eabi/include/c++/10.3.1/bits/stl_pair.h ****    *
ARM GAS  /var/folders/hl/qgbwny5j0fd895c2c41bk3tw0000gp/T//ccYZrJjP.s 			page 17


 556:/opt/homebrew/Cellar/arm-none-eabi-gcc/10.3-2021.07/gcc/arm-none-eabi/include/c++/10.3.1/bits/stl_pair.h ****    *  Since C++11 they have been passed by forwarding reference and then
 557:/opt/homebrew/Cellar/arm-none-eabi-gcc/10.3-2021.07/gcc/arm-none-eabi/include/c++/10.3.1/bits/stl_pair.h ****    *  forwarded to the new members of the pair. To create a pair with a
 558:/opt/homebrew/Cellar/arm-none-eabi-gcc/10.3-2021.07/gcc/arm-none-eabi/include/c++/10.3.1/bits/stl_pair.h ****    *  member of reference type, pass a `reference_wrapper` to this function.
 559:/opt/homebrew/Cellar/arm-none-eabi-gcc/10.3-2021.07/gcc/arm-none-eabi/include/c++/10.3.1/bits/stl_pair.h ****    */
 560:/opt/homebrew/Cellar/arm-none-eabi-gcc/10.3-2021.07/gcc/arm-none-eabi/include/c++/10.3.1/bits/stl_pair.h ****   // _GLIBCXX_RESOLVE_LIB_DEFECTS
 561:/opt/homebrew/Cellar/arm-none-eabi-gcc/10.3-2021.07/gcc/arm-none-eabi/include/c++/10.3.1/bits/stl_pair.h ****   // 181.  make_pair() unintended behavior
 562:/opt/homebrew/Cellar/arm-none-eabi-gcc/10.3-2021.07/gcc/arm-none-eabi/include/c++/10.3.1/bits/stl_pair.h **** #if __cplusplus >= 201103L
 563:/opt/homebrew/Cellar/arm-none-eabi-gcc/10.3-2021.07/gcc/arm-none-eabi/include/c++/10.3.1/bits/stl_pair.h ****   // NB: DR 706.
 564:/opt/homebrew/Cellar/arm-none-eabi-gcc/10.3-2021.07/gcc/arm-none-eabi/include/c++/10.3.1/bits/stl_pair.h ****   template<typename _T1, typename _T2>
 565:/opt/homebrew/Cellar/arm-none-eabi-gcc/10.3-2021.07/gcc/arm-none-eabi/include/c++/10.3.1/bits/stl_pair.h ****     constexpr pair<typename __decay_and_strip<_T1>::__type,
 566:/opt/homebrew/Cellar/arm-none-eabi-gcc/10.3-2021.07/gcc/arm-none-eabi/include/c++/10.3.1/bits/stl_pair.h ****                    typename __decay_and_strip<_T2>::__type>
 567:/opt/homebrew/Cellar/arm-none-eabi-gcc/10.3-2021.07/gcc/arm-none-eabi/include/c++/10.3.1/bits/stl_pair.h ****     make_pair(_T1&& __x, _T2&& __y)
 287              		.loc 2 567 5 view .LVU86
 288              	.LBB38:
 289              	.LBB39:
 290              	.LBI39:
 352:/opt/homebrew/Cellar/arm-none-eabi-gcc/10.3-2021.07/gcc/arm-none-eabi/include/c++/10.3.1/bits/stl_pair.h **** 	: first(std::forward<_U1>(__x)), second(std::forward<_U2>(__y)) { }
 291              		.loc 2 352 12 view .LVU87
 292              	.LBB40:
 293              	.LBB41:
 294              	.LBB42:
 295              	.LBI42:
 296              		.file 3 "/opt/homebrew/Cellar/arm-none-eabi-gcc/10.3-2021.07/gcc/arm-none-eabi/include/c++/10.3.1/
   1:/opt/homebrew/Cellar/arm-none-eabi-gcc/10.3-2021.07/gcc/arm-none-eabi/include/c++/10.3.1/bits/move.h **** // Move, forward and identity for C++11 + swap -*- C++ -*-
   2:/opt/homebrew/Cellar/arm-none-eabi-gcc/10.3-2021.07/gcc/arm-none-eabi/include/c++/10.3.1/bits/move.h **** 
   3:/opt/homebrew/Cellar/arm-none-eabi-gcc/10.3-2021.07/gcc/arm-none-eabi/include/c++/10.3.1/bits/move.h **** // Copyright (C) 2007-2020 Free Software Foundation, Inc.
   4:/opt/homebrew/Cellar/arm-none-eabi-gcc/10.3-2021.07/gcc/arm-none-eabi/include/c++/10.3.1/bits/move.h **** //
   5:/opt/homebrew/Cellar/arm-none-eabi-gcc/10.3-2021.07/gcc/arm-none-eabi/include/c++/10.3.1/bits/move.h **** // This file is part of the GNU ISO C++ Library.  This library is free
   6:/opt/homebrew/Cellar/arm-none-eabi-gcc/10.3-2021.07/gcc/arm-none-eabi/include/c++/10.3.1/bits/move.h **** // software; you can redistribute it and/or modify it under the
   7:/opt/homebrew/Cellar/arm-none-eabi-gcc/10.3-2021.07/gcc/arm-none-eabi/include/c++/10.3.1/bits/move.h **** // terms of the GNU General Public License as published by the
   8:/opt/homebrew/Cellar/arm-none-eabi-gcc/10.3-2021.07/gcc/arm-none-eabi/include/c++/10.3.1/bits/move.h **** // Free Software Foundation; either version 3, or (at your option)
   9:/opt/homebrew/Cellar/arm-none-eabi-gcc/10.3-2021.07/gcc/arm-none-eabi/include/c++/10.3.1/bits/move.h **** // any later version.
  10:/opt/homebrew/Cellar/arm-none-eabi-gcc/10.3-2021.07/gcc/arm-none-eabi/include/c++/10.3.1/bits/move.h **** 
  11:/opt/homebrew/Cellar/arm-none-eabi-gcc/10.3-2021.07/gcc/arm-none-eabi/include/c++/10.3.1/bits/move.h **** // This library is distributed in the hope that it will be useful,
  12:/opt/homebrew/Cellar/arm-none-eabi-gcc/10.3-2021.07/gcc/arm-none-eabi/include/c++/10.3.1/bits/move.h **** // but WITHOUT ANY WARRANTY; without even the implied warranty of
  13:/opt/homebrew/Cellar/arm-none-eabi-gcc/10.3-2021.07/gcc/arm-none-eabi/include/c++/10.3.1/bits/move.h **** // MERCHANTABILITY or FITNESS FOR A PARTICULAR PURPOSE.  See the
  14:/opt/homebrew/Cellar/arm-none-eabi-gcc/10.3-2021.07/gcc/arm-none-eabi/include/c++/10.3.1/bits/move.h **** // GNU General Public License for more details.
  15:/opt/homebrew/Cellar/arm-none-eabi-gcc/10.3-2021.07/gcc/arm-none-eabi/include/c++/10.3.1/bits/move.h **** 
  16:/opt/homebrew/Cellar/arm-none-eabi-gcc/10.3-2021.07/gcc/arm-none-eabi/include/c++/10.3.1/bits/move.h **** // Under Section 7 of GPL version 3, you are granted additional
  17:/opt/homebrew/Cellar/arm-none-eabi-gcc/10.3-2021.07/gcc/arm-none-eabi/include/c++/10.3.1/bits/move.h **** // permissions described in the GCC Runtime Library Exception, version
  18:/opt/homebrew/Cellar/arm-none-eabi-gcc/10.3-2021.07/gcc/arm-none-eabi/include/c++/10.3.1/bits/move.h **** // 3.1, as published by the Free Software Foundation.
  19:/opt/homebrew/Cellar/arm-none-eabi-gcc/10.3-2021.07/gcc/arm-none-eabi/include/c++/10.3.1/bits/move.h **** 
  20:/opt/homebrew/Cellar/arm-none-eabi-gcc/10.3-2021.07/gcc/arm-none-eabi/include/c++/10.3.1/bits/move.h **** // You should have received a copy of the GNU General Public License and
  21:/opt/homebrew/Cellar/arm-none-eabi-gcc/10.3-2021.07/gcc/arm-none-eabi/include/c++/10.3.1/bits/move.h **** // a copy of the GCC Runtime Library Exception along with this program;
  22:/opt/homebrew/Cellar/arm-none-eabi-gcc/10.3-2021.07/gcc/arm-none-eabi/include/c++/10.3.1/bits/move.h **** // see the files COPYING3 and COPYING.RUNTIME respectively.  If not, see
  23:/opt/homebrew/Cellar/arm-none-eabi-gcc/10.3-2021.07/gcc/arm-none-eabi/include/c++/10.3.1/bits/move.h **** // <http://www.gnu.org/licenses/>.
  24:/opt/homebrew/Cellar/arm-none-eabi-gcc/10.3-2021.07/gcc/arm-none-eabi/include/c++/10.3.1/bits/move.h **** 
  25:/opt/homebrew/Cellar/arm-none-eabi-gcc/10.3-2021.07/gcc/arm-none-eabi/include/c++/10.3.1/bits/move.h **** /** @file bits/move.h
  26:/opt/homebrew/Cellar/arm-none-eabi-gcc/10.3-2021.07/gcc/arm-none-eabi/include/c++/10.3.1/bits/move.h ****  *  This is an internal header file, included by other library headers.
  27:/opt/homebrew/Cellar/arm-none-eabi-gcc/10.3-2021.07/gcc/arm-none-eabi/include/c++/10.3.1/bits/move.h ****  *  Do not attempt to use it directly. @headername{utility}
  28:/opt/homebrew/Cellar/arm-none-eabi-gcc/10.3-2021.07/gcc/arm-none-eabi/include/c++/10.3.1/bits/move.h ****  */
  29:/opt/homebrew/Cellar/arm-none-eabi-gcc/10.3-2021.07/gcc/arm-none-eabi/include/c++/10.3.1/bits/move.h **** 
  30:/opt/homebrew/Cellar/arm-none-eabi-gcc/10.3-2021.07/gcc/arm-none-eabi/include/c++/10.3.1/bits/move.h **** #ifndef _MOVE_H
  31:/opt/homebrew/Cellar/arm-none-eabi-gcc/10.3-2021.07/gcc/arm-none-eabi/include/c++/10.3.1/bits/move.h **** #define _MOVE_H 1
  32:/opt/homebrew/Cellar/arm-none-eabi-gcc/10.3-2021.07/gcc/arm-none-eabi/include/c++/10.3.1/bits/move.h **** 
  33:/opt/homebrew/Cellar/arm-none-eabi-gcc/10.3-2021.07/gcc/arm-none-eabi/include/c++/10.3.1/bits/move.h **** #include <bits/c++config.h>
  34:/opt/homebrew/Cellar/arm-none-eabi-gcc/10.3-2021.07/gcc/arm-none-eabi/include/c++/10.3.1/bits/move.h **** #if __cplusplus < 201103L
ARM GAS  /var/folders/hl/qgbwny5j0fd895c2c41bk3tw0000gp/T//ccYZrJjP.s 			page 18


  35:/opt/homebrew/Cellar/arm-none-eabi-gcc/10.3-2021.07/gcc/arm-none-eabi/include/c++/10.3.1/bits/move.h **** # include <bits/concept_check.h>
  36:/opt/homebrew/Cellar/arm-none-eabi-gcc/10.3-2021.07/gcc/arm-none-eabi/include/c++/10.3.1/bits/move.h **** #endif
  37:/opt/homebrew/Cellar/arm-none-eabi-gcc/10.3-2021.07/gcc/arm-none-eabi/include/c++/10.3.1/bits/move.h **** 
  38:/opt/homebrew/Cellar/arm-none-eabi-gcc/10.3-2021.07/gcc/arm-none-eabi/include/c++/10.3.1/bits/move.h **** namespace std _GLIBCXX_VISIBILITY(default)
  39:/opt/homebrew/Cellar/arm-none-eabi-gcc/10.3-2021.07/gcc/arm-none-eabi/include/c++/10.3.1/bits/move.h **** {
  40:/opt/homebrew/Cellar/arm-none-eabi-gcc/10.3-2021.07/gcc/arm-none-eabi/include/c++/10.3.1/bits/move.h **** _GLIBCXX_BEGIN_NAMESPACE_VERSION
  41:/opt/homebrew/Cellar/arm-none-eabi-gcc/10.3-2021.07/gcc/arm-none-eabi/include/c++/10.3.1/bits/move.h **** 
  42:/opt/homebrew/Cellar/arm-none-eabi-gcc/10.3-2021.07/gcc/arm-none-eabi/include/c++/10.3.1/bits/move.h ****   // Used, in C++03 mode too, by allocators, etc.
  43:/opt/homebrew/Cellar/arm-none-eabi-gcc/10.3-2021.07/gcc/arm-none-eabi/include/c++/10.3.1/bits/move.h ****   /**
  44:/opt/homebrew/Cellar/arm-none-eabi-gcc/10.3-2021.07/gcc/arm-none-eabi/include/c++/10.3.1/bits/move.h ****    *  @brief Same as C++11 std::addressof
  45:/opt/homebrew/Cellar/arm-none-eabi-gcc/10.3-2021.07/gcc/arm-none-eabi/include/c++/10.3.1/bits/move.h ****    *  @ingroup utilities
  46:/opt/homebrew/Cellar/arm-none-eabi-gcc/10.3-2021.07/gcc/arm-none-eabi/include/c++/10.3.1/bits/move.h ****    */
  47:/opt/homebrew/Cellar/arm-none-eabi-gcc/10.3-2021.07/gcc/arm-none-eabi/include/c++/10.3.1/bits/move.h ****   template<typename _Tp>
  48:/opt/homebrew/Cellar/arm-none-eabi-gcc/10.3-2021.07/gcc/arm-none-eabi/include/c++/10.3.1/bits/move.h ****     inline _GLIBCXX_CONSTEXPR _Tp*
  49:/opt/homebrew/Cellar/arm-none-eabi-gcc/10.3-2021.07/gcc/arm-none-eabi/include/c++/10.3.1/bits/move.h ****     __addressof(_Tp& __r) _GLIBCXX_NOEXCEPT
  50:/opt/homebrew/Cellar/arm-none-eabi-gcc/10.3-2021.07/gcc/arm-none-eabi/include/c++/10.3.1/bits/move.h ****     { return __builtin_addressof(__r); }
  51:/opt/homebrew/Cellar/arm-none-eabi-gcc/10.3-2021.07/gcc/arm-none-eabi/include/c++/10.3.1/bits/move.h **** 
  52:/opt/homebrew/Cellar/arm-none-eabi-gcc/10.3-2021.07/gcc/arm-none-eabi/include/c++/10.3.1/bits/move.h **** #if __cplusplus >= 201103L
  53:/opt/homebrew/Cellar/arm-none-eabi-gcc/10.3-2021.07/gcc/arm-none-eabi/include/c++/10.3.1/bits/move.h **** 
  54:/opt/homebrew/Cellar/arm-none-eabi-gcc/10.3-2021.07/gcc/arm-none-eabi/include/c++/10.3.1/bits/move.h **** _GLIBCXX_END_NAMESPACE_VERSION
  55:/opt/homebrew/Cellar/arm-none-eabi-gcc/10.3-2021.07/gcc/arm-none-eabi/include/c++/10.3.1/bits/move.h **** } // namespace
  56:/opt/homebrew/Cellar/arm-none-eabi-gcc/10.3-2021.07/gcc/arm-none-eabi/include/c++/10.3.1/bits/move.h **** 
  57:/opt/homebrew/Cellar/arm-none-eabi-gcc/10.3-2021.07/gcc/arm-none-eabi/include/c++/10.3.1/bits/move.h **** #include <type_traits> // Brings in std::declval too.
  58:/opt/homebrew/Cellar/arm-none-eabi-gcc/10.3-2021.07/gcc/arm-none-eabi/include/c++/10.3.1/bits/move.h **** 
  59:/opt/homebrew/Cellar/arm-none-eabi-gcc/10.3-2021.07/gcc/arm-none-eabi/include/c++/10.3.1/bits/move.h **** namespace std _GLIBCXX_VISIBILITY(default)
  60:/opt/homebrew/Cellar/arm-none-eabi-gcc/10.3-2021.07/gcc/arm-none-eabi/include/c++/10.3.1/bits/move.h **** {
  61:/opt/homebrew/Cellar/arm-none-eabi-gcc/10.3-2021.07/gcc/arm-none-eabi/include/c++/10.3.1/bits/move.h **** _GLIBCXX_BEGIN_NAMESPACE_VERSION
  62:/opt/homebrew/Cellar/arm-none-eabi-gcc/10.3-2021.07/gcc/arm-none-eabi/include/c++/10.3.1/bits/move.h **** 
  63:/opt/homebrew/Cellar/arm-none-eabi-gcc/10.3-2021.07/gcc/arm-none-eabi/include/c++/10.3.1/bits/move.h ****   /**
  64:/opt/homebrew/Cellar/arm-none-eabi-gcc/10.3-2021.07/gcc/arm-none-eabi/include/c++/10.3.1/bits/move.h ****    *  @addtogroup utilities
  65:/opt/homebrew/Cellar/arm-none-eabi-gcc/10.3-2021.07/gcc/arm-none-eabi/include/c++/10.3.1/bits/move.h ****    *  @{
  66:/opt/homebrew/Cellar/arm-none-eabi-gcc/10.3-2021.07/gcc/arm-none-eabi/include/c++/10.3.1/bits/move.h ****    */
  67:/opt/homebrew/Cellar/arm-none-eabi-gcc/10.3-2021.07/gcc/arm-none-eabi/include/c++/10.3.1/bits/move.h **** 
  68:/opt/homebrew/Cellar/arm-none-eabi-gcc/10.3-2021.07/gcc/arm-none-eabi/include/c++/10.3.1/bits/move.h ****   /**
  69:/opt/homebrew/Cellar/arm-none-eabi-gcc/10.3-2021.07/gcc/arm-none-eabi/include/c++/10.3.1/bits/move.h ****    *  @brief  Forward an lvalue.
  70:/opt/homebrew/Cellar/arm-none-eabi-gcc/10.3-2021.07/gcc/arm-none-eabi/include/c++/10.3.1/bits/move.h ****    *  @return The parameter cast to the specified type.
  71:/opt/homebrew/Cellar/arm-none-eabi-gcc/10.3-2021.07/gcc/arm-none-eabi/include/c++/10.3.1/bits/move.h ****    *
  72:/opt/homebrew/Cellar/arm-none-eabi-gcc/10.3-2021.07/gcc/arm-none-eabi/include/c++/10.3.1/bits/move.h ****    *  This function is used to implement "perfect forwarding".
  73:/opt/homebrew/Cellar/arm-none-eabi-gcc/10.3-2021.07/gcc/arm-none-eabi/include/c++/10.3.1/bits/move.h ****    */
  74:/opt/homebrew/Cellar/arm-none-eabi-gcc/10.3-2021.07/gcc/arm-none-eabi/include/c++/10.3.1/bits/move.h ****   template<typename _Tp>
  75:/opt/homebrew/Cellar/arm-none-eabi-gcc/10.3-2021.07/gcc/arm-none-eabi/include/c++/10.3.1/bits/move.h ****     constexpr _Tp&&
  76:/opt/homebrew/Cellar/arm-none-eabi-gcc/10.3-2021.07/gcc/arm-none-eabi/include/c++/10.3.1/bits/move.h ****     forward(typename std::remove_reference<_Tp>::type& __t) noexcept
 297              		.loc 3 76 5 view .LVU88
 298              		.loc 3 76 5 is_stmt 0 view .LVU89
 299              	.LBE42:
 300              	.LBE41:
 301              	.LBE40:
 302              	.LBE39:
 303              	.LBE38:
 304              	.LBE37:
  32:keypad.cpp    **** }...
 305              		.loc 1 32 1 view .LVU90
 306 0056 5846     		mov	r0, fp
 307              	.LBB52:
 308              	.LBB50:
 309              	.LBB48:
 310              	.LBB46:
ARM GAS  /var/folders/hl/qgbwny5j0fd895c2c41bk3tw0000gp/T//ccYZrJjP.s 			page 19


 311              	.LBB44:
 353:/opt/homebrew/Cellar/arm-none-eabi-gcc/10.3-2021.07/gcc/arm-none-eabi/include/c++/10.3.1/bits/stl_pair.h **** 
 312              		.loc 2 353 64 view .LVU91
 313 0058 CBE900A9 		strd	r10, r9, [fp]
 314              	.LVL21:
 353:/opt/homebrew/Cellar/arm-none-eabi-gcc/10.3-2021.07/gcc/arm-none-eabi/include/c++/10.3.1/bits/stl_pair.h **** 
 315              		.loc 2 353 64 view .LVU92
 316              	.LBE44:
 317              	.LBE46:
 318              	.LBE48:
 319              	.LBE50:
 320              	.LBE52:
 321              		.loc 1 32 1 view .LVU93
 322 005c BDE8F88F 		pop	{r3, r4, r5, r6, r7, r8, r9, r10, fp, pc}
 323              	.LVL22:
 324              	.L21:
  20:keypad.cpp    ****     int row = 99;
 325              		.loc 1 20 9 view .LVU94
 326 0060 4FF06309 		mov	r9, #99
 327              		.loc 1 32 1 view .LVU95
 328 0064 5846     		mov	r0, fp
 329              	.LVL23:
  19:keypad.cpp    ****     int column = 99;
 330              		.loc 1 19 9 view .LVU96
 331 0066 CA46     		mov	r10, r9
  31:keypad.cpp    ****     return std::make_pair(column, row);
 332              		.loc 1 31 5 is_stmt 1 view .LVU97
 333              	.LVL24:
 334              	.LBB53:
 335              		.loc 2 567 5 view .LVU98
 336              	.LBB51:
 337              	.LBB49:
 352:/opt/homebrew/Cellar/arm-none-eabi-gcc/10.3-2021.07/gcc/arm-none-eabi/include/c++/10.3.1/bits/stl_pair.h **** 	: first(std::forward<_U1>(__x)), second(std::forward<_U2>(__y)) { }
 338              		.loc 2 352 12 view .LVU99
 339              	.LBB47:
 340              	.LBB45:
 341              	.LBB43:
 342              		.loc 3 76 5 view .LVU100
 343              		.loc 3 76 5 is_stmt 0 view .LVU101
 344              	.LBE43:
 353:/opt/homebrew/Cellar/arm-none-eabi-gcc/10.3-2021.07/gcc/arm-none-eabi/include/c++/10.3.1/bits/stl_pair.h **** 
 345              		.loc 2 353 64 view .LVU102
 346 0068 CBE900A9 		strd	r10, r9, [fp]
 347              	.LVL25:
 353:/opt/homebrew/Cellar/arm-none-eabi-gcc/10.3-2021.07/gcc/arm-none-eabi/include/c++/10.3.1/bits/stl_pair.h **** 
 348              		.loc 2 353 64 view .LVU103
 349              	.LBE45:
 350              	.LBE47:
 351              	.LBE49:
 352              	.LBE51:
 353              	.LBE53:
 354              		.loc 1 32 1 view .LVU104
 355 006c BDE8F88F 		pop	{r3, r4, r5, r6, r7, r8, r9, r10, fp, pc}
 356              		.loc 1 32 1 view .LVU105
 357              		.cfi_endproc
 358              	.LFE2540:
 360              		.text
ARM GAS  /var/folders/hl/qgbwny5j0fd895c2c41bk3tw0000gp/T//ccYZrJjP.s 			page 20


 361              	.Letext0:
 362              		.file 4 "/opt/homebrew/Cellar/arm-none-eabi-gcc/10.3-2021.07/gcc/arm-none-eabi/include/machine/_de
 363              		.file 5 "/opt/homebrew/Cellar/arm-none-eabi-gcc/10.3-2021.07/gcc/arm-none-eabi/include/sys/_stdint
 364              		.file 6 "/opt/homebrew/Cellar/arm-none-eabi-gcc/10.3-2021.07/gcc/arm-none-eabi/include/stdint.h"
 365              		.file 7 "/opt/homebrew/Cellar/arm-none-eabi-gcc/10.3-2021.07/gcc/lib/gcc/arm-none-eabi/10.3.1/incl
 366              		.file 8 "/opt/homebrew/Cellar/arm-none-eabi-gcc/10.3-2021.07/gcc/arm-none-eabi/include/c++/10.3.1/
 367              		.file 9 "/opt/homebrew/Cellar/arm-none-eabi-gcc/10.3-2021.07/gcc/arm-none-eabi/include/c++/10.3.1/
 368              		.file 10 "/opt/homebrew/Cellar/arm-none-eabi-gcc/10.3-2021.07/gcc/arm-none-eabi/include/c++/10.3.1
 369              		.file 11 "/opt/homebrew/Cellar/arm-none-eabi-gcc/10.3-2021.07/gcc/arm-none-eabi/include/c++/10.3.1
 370              		.file 12 "/opt/homebrew/Cellar/arm-none-eabi-gcc/10.3-2021.07/gcc/arm-none-eabi/include/c++/10.3.1
 371              		.file 13 "/opt/homebrew/Cellar/arm-none-eabi-gcc/10.3-2021.07/gcc/arm-none-eabi/include/c++/10.3.1
 372              		.file 14 "/opt/homebrew/Cellar/arm-none-eabi-gcc/10.3-2021.07/gcc/arm-none-eabi/include/c++/10.3.1
 373              		.file 15 "/opt/homebrew/Cellar/arm-none-eabi-gcc/10.3-2021.07/gcc/arm-none-eabi/include/c++/10.3.1
 374              		.file 16 "/opt/homebrew/Cellar/arm-none-eabi-gcc/10.3-2021.07/gcc/arm-none-eabi/include/c++/10.3.1
 375              		.file 17 "/opt/homebrew/Cellar/arm-none-eabi-gcc/10.3-2021.07/gcc/arm-none-eabi/include/c++/10.3.1
 376              		.file 18 "/opt/homebrew/Cellar/arm-none-eabi-gcc/10.3-2021.07/gcc/arm-none-eabi/include/c++/10.3.1
 377              		.file 19 "/opt/homebrew/Cellar/arm-none-eabi-gcc/10.3-2021.07/gcc/arm-none-eabi/include/c++/10.3.1
 378              		.file 20 "/opt/homebrew/Cellar/arm-none-eabi-gcc/10.3-2021.07/gcc/arm-none-eabi/include/c++/10.3.1
 379              		.file 21 "/opt/homebrew/Cellar/arm-none-eabi-gcc/10.3-2021.07/gcc/arm-none-eabi/include/sys/_types
 380              		.file 22 "/opt/homebrew/Cellar/arm-none-eabi-gcc/10.3-2021.07/gcc/arm-none-eabi/include/sys/reent.
 381              		.file 23 "/opt/homebrew/Cellar/arm-none-eabi-gcc/10.3-2021.07/gcc/arm-none-eabi/include/sys/lock.h
 382              		.file 24 "/opt/homebrew/Cellar/arm-none-eabi-gcc/10.3-2021.07/gcc/arm-none-eabi/include/math.h"
 383              		.file 25 "/opt/homebrew/Cellar/arm-none-eabi-gcc/10.3-2021.07/gcc/arm-none-eabi/include/stdlib.h"
 384              		.file 26 "/opt/homebrew/Cellar/arm-none-eabi-gcc/10.3-2021.07/gcc/arm-none-eabi/include/c++/10.3.1
 385              		.file 27 "/opt/homebrew/Cellar/arm-none-eabi-gcc/10.3-2021.07/gcc/arm-none-eabi/include/c++/10.3.1
 386              		.file 28 "../../libDaisy//src/daisy_core.h"
 387              		.file 29 "../../libDaisy//src/per/tim.h"
 388              		.file 30 "../../libDaisy//src/sys/system.h"
 389              		.file 31 "../../libDaisy//src/per/qspi.h"
 390              		.file 32 "../../libDaisy//src/per/dac.h"
 391              		.file 33 "../../libDaisy//src/per/sai.h"
 392              		.file 34 "../../libDaisy//src/hid/audio.h"
 393              		.file 35 "../../libDaisy//src/per/adc.h"
 394              		.file 36 "../../libDaisy//src/hid/usb.h"
 395              		.file 37 "../../libDaisy//src/util/wav_format.h"
 396              		.file 38 "../../libDaisy//src/dev/max11300.h"
 397              		.file 39 "../../libDaisy//src/daisy_seed.h"
 398              		.file 40 "../../libDaisy//src/per/gpio.h"
 399              		.file 41 "../../libDaisy//src/dev/sdram.h"
 400              		.file 42 "/opt/homebrew/Cellar/arm-none-eabi-gcc/10.3-2021.07/gcc/lib/gcc/arm-none-eabi/10.3.1/inc
 401              		.file 43 "/opt/homebrew/Cellar/arm-none-eabi-gcc/10.3-2021.07/gcc/arm-none-eabi/include/stdio.h"
 402              		.file 44 "/opt/homebrew/Cellar/arm-none-eabi-gcc/10.3-2021.07/gcc/arm-none-eabi/include/string.h"
 403              		.file 45 "keypad.h"
 404              		.file 46 "<built-in>"
 405              		.file 47 "../../libDaisy//src/dev/sr_595.h"
ARM GAS  /var/folders/hl/qgbwny5j0fd895c2c41bk3tw0000gp/T//ccYZrJjP.s 			page 21

