ARM GAS  /var/folders/hl/qgbwny5j0fd895c2c41bk3tw0000gp/T//cckqgw4a.s 			page 1


   1              		.cpu cortex-m7
   2              		.eabi_attribute 28, 1
   3              		.eabi_attribute 20, 1
   4              		.eabi_attribute 21, 1
   5              		.eabi_attribute 23, 3
   6              		.eabi_attribute 24, 1
   7              		.eabi_attribute 25, 1
   8              		.eabi_attribute 26, 1
   9              		.eabi_attribute 30, 2
  10              		.eabi_attribute 34, 1
  11              		.eabi_attribute 18, 4
  12              		.file	"OmniSeed.cpp"
  13              		.text
  14              	.Ltext0:
  15              		.cfi_sections	.debug_frame
  16              		.section	.text._ZN5daisy6SwitchD2Ev,"axG",%progbits,_ZN5daisy6SwitchD5Ev,comdat
  17              		.align	1
  18              		.p2align 2,,3
  19              		.weak	_ZN5daisy6SwitchD2Ev
  20              		.arch armv7e-m
  21              		.syntax unified
  22              		.thumb
  23              		.thumb_func
  24              		.fpu fpv5-d16
  26              	_ZN5daisy6SwitchD2Ev:
  27              	.LVL0:
  28              	.LFB1606:
  29              		.file 1 "../../libDaisy//src/hid/switch.h"
   1:../../libDaisy//src/hid/switch.h **** #pragma once
   2:../../libDaisy//src/hid/switch.h **** #ifndef DSY_SWITCH_H
   3:../../libDaisy//src/hid/switch.h **** #define DSY_SWITCH_H
   4:../../libDaisy//src/hid/switch.h **** #include "daisy_core.h"
   5:../../libDaisy//src/hid/switch.h **** #include "per/gpio.h"
   6:../../libDaisy//src/hid/switch.h **** #include "sys/system.h"
   7:../../libDaisy//src/hid/switch.h **** 
   8:../../libDaisy//src/hid/switch.h **** namespace daisy
   9:../../libDaisy//src/hid/switch.h **** {
  10:../../libDaisy//src/hid/switch.h **** /** 
  11:../../libDaisy//src/hid/switch.h ****     Generic Class for handling momentary/latching switches \n 
  12:../../libDaisy//src/hid/switch.h ****     Inspired/influenced by Mutable Instruments (pichenettes) Switch classes
  13:../../libDaisy//src/hid/switch.h ****     @author Stephen Hensley
  14:../../libDaisy//src/hid/switch.h ****     @date December 2019
  15:../../libDaisy//src/hid/switch.h ****     @ingroup controls
  16:../../libDaisy//src/hid/switch.h **** */
  17:../../libDaisy//src/hid/switch.h **** class Switch
  18:../../libDaisy//src/hid/switch.h **** {
  19:../../libDaisy//src/hid/switch.h ****   public:
  20:../../libDaisy//src/hid/switch.h ****     /** Specifies the expected behavior of the switch */
  21:../../libDaisy//src/hid/switch.h ****     enum Type
  22:../../libDaisy//src/hid/switch.h ****     {
  23:../../libDaisy//src/hid/switch.h ****         TYPE_TOGGLE,    /**< & */
  24:../../libDaisy//src/hid/switch.h ****         TYPE_MOMENTARY, /**< & */
  25:../../libDaisy//src/hid/switch.h ****     };
  26:../../libDaisy//src/hid/switch.h ****     /** Specifies whether the pressed is HIGH or LOW. */
  27:../../libDaisy//src/hid/switch.h ****     enum Polarity
  28:../../libDaisy//src/hid/switch.h ****     {
  29:../../libDaisy//src/hid/switch.h ****         POLARITY_NORMAL,   /**< & */
ARM GAS  /var/folders/hl/qgbwny5j0fd895c2c41bk3tw0000gp/T//cckqgw4a.s 			page 2


  30:../../libDaisy//src/hid/switch.h ****         POLARITY_INVERTED, /**< & */
  31:../../libDaisy//src/hid/switch.h ****     };
  32:../../libDaisy//src/hid/switch.h **** 
  33:../../libDaisy//src/hid/switch.h ****     /** Specifies whether to use built-in Pull Up/Down resistors to hold button at a given state wh
  34:../../libDaisy//src/hid/switch.h ****     enum Pull
  35:../../libDaisy//src/hid/switch.h ****     {
  36:../../libDaisy//src/hid/switch.h ****         PULL_UP,   /**< & */
  37:../../libDaisy//src/hid/switch.h ****         PULL_DOWN, /**< & */
  38:../../libDaisy//src/hid/switch.h ****         PULL_NONE, /**< & */
  39:../../libDaisy//src/hid/switch.h ****     };
  40:../../libDaisy//src/hid/switch.h **** 
  41:../../libDaisy//src/hid/switch.h ****     Switch() {}
  42:../../libDaisy//src/hid/switch.h ****     ~Switch() {}
  30              		.loc 1 42 5 view -0
  31              		.cfi_startproc
  32              		@ args = 0, pretend = 0, frame = 0
  33              		@ frame_needed = 0, uses_anonymous_args = 0
  34              		@ link register save eliminated.
  35              		.loc 1 42 16 is_stmt 0 view .LVU1
  36 0000 7047     		bx	lr
  37              		.cfi_endproc
  38              	.LFE1606:
  40              		.weak	_ZN5daisy6SwitchD1Ev
  41              		.thumb_set _ZN5daisy6SwitchD1Ev,_ZN5daisy6SwitchD2Ev
  42 0002 00BF     		.section	.text._ZN5daisy15WaveTableLoaderD2Ev,"axG",%progbits,_ZN5daisy15WaveTableLoaderD5Ev,comda
  43              		.align	1
  44              		.p2align 2,,3
  45              		.weak	_ZN5daisy15WaveTableLoaderD2Ev
  46              		.syntax unified
  47              		.thumb
  48              		.thumb_func
  49              		.fpu fpv5-d16
  51              	_ZN5daisy15WaveTableLoaderD2Ev:
  52              	.LVL1:
  53              	.LFB2511:
  54              		.file 2 "../../libDaisy//src/util/WaveTableLoader.h"
   1:../../libDaisy//src/util/WaveTableLoader.h **** #pragma once
   2:../../libDaisy//src/util/WaveTableLoader.h **** #include "fatfs.h"
   3:../../libDaisy//src/util/WaveTableLoader.h **** #include "util/wav_format.h"
   4:../../libDaisy//src/util/WaveTableLoader.h **** namespace daisy
   5:../../libDaisy//src/util/WaveTableLoader.h **** {
   6:../../libDaisy//src/util/WaveTableLoader.h **** /** Loads a bank of wavetables into memory. 
   7:../../libDaisy//src/util/WaveTableLoader.h ****  ** Pointers to the start of each waveform will be provided, 
   8:../../libDaisy//src/util/WaveTableLoader.h ****  ** but the user can do whatever they want with the data once
   9:../../libDaisy//src/util/WaveTableLoader.h ****  ** it's imported. 
  10:../../libDaisy//src/util/WaveTableLoader.h ****  **
  11:../../libDaisy//src/util/WaveTableLoader.h ****  ** A internal 4kB workspace is used for reading from the file, and conveting to the correct memory
  12:../../libDaisy//src/util/WaveTableLoader.h ****  ** */
  13:../../libDaisy//src/util/WaveTableLoader.h **** class WaveTableLoader
  14:../../libDaisy//src/util/WaveTableLoader.h **** {
  15:../../libDaisy//src/util/WaveTableLoader.h ****   public:
  16:../../libDaisy//src/util/WaveTableLoader.h ****     enum class Result
  17:../../libDaisy//src/util/WaveTableLoader.h ****     {
  18:../../libDaisy//src/util/WaveTableLoader.h ****         OK,
  19:../../libDaisy//src/util/WaveTableLoader.h ****         ERR_TABLE_INFO_OVERFLOW,
  20:../../libDaisy//src/util/WaveTableLoader.h ****         ERR_FILE_READ,
  21:../../libDaisy//src/util/WaveTableLoader.h ****         ERR_GENERIC,
ARM GAS  /var/folders/hl/qgbwny5j0fd895c2c41bk3tw0000gp/T//cckqgw4a.s 			page 3


  22:../../libDaisy//src/util/WaveTableLoader.h ****     };
  23:../../libDaisy//src/util/WaveTableLoader.h ****     WaveTableLoader() {}
  24:../../libDaisy//src/util/WaveTableLoader.h ****     ~WaveTableLoader() {}
  55              		.loc 2 24 5 is_stmt 1 view -0
  56              		.cfi_startproc
  57              		@ args = 0, pretend = 0, frame = 0
  58              		@ frame_needed = 0, uses_anonymous_args = 0
  59              		@ link register save eliminated.
  60              		.loc 2 24 25 is_stmt 0 view .LVU3
  61 0000 7047     		bx	lr
  62              		.cfi_endproc
  63              	.LFE2511:
  65              		.weak	_ZN5daisy15WaveTableLoaderD1Ev
  66              		.thumb_set _ZN5daisy15WaveTableLoaderD1Ev,_ZN5daisy15WaveTableLoaderD2Ev
  67 0002 00BF     		.section	.text._ZN5daisy9DaisySeedD2Ev,"axG",%progbits,_ZN5daisy9DaisySeedD5Ev,comdat
  68              		.align	1
  69              		.p2align 2,,3
  70              		.weak	_ZN5daisy9DaisySeedD2Ev
  71              		.syntax unified
  72              		.thumb
  73              		.thumb_func
  74              		.fpu fpv5-d16
  76              	_ZN5daisy9DaisySeedD2Ev:
  77              	.LVL2:
  78              	.LFB2529:
  79              		.file 3 "../../libDaisy//src/daisy_seed.h"
   1:../../libDaisy//src/daisy_seed.h **** #pragma once
   2:../../libDaisy//src/daisy_seed.h **** #ifndef DSY_SEED_H
   3:../../libDaisy//src/daisy_seed.h **** #define DSY_SEED_H
   4:../../libDaisy//src/daisy_seed.h **** 
   5:../../libDaisy//src/daisy_seed.h **** #include "daisy.h"
   6:../../libDaisy//src/daisy_seed.h **** 
   7:../../libDaisy//src/daisy_seed.h **** //Uncomment this out if you're still using the rev2 hardware
   8:../../libDaisy//src/daisy_seed.h **** //#define SEED_REV2
   9:../../libDaisy//src/daisy_seed.h **** 
  10:../../libDaisy//src/daisy_seed.h **** namespace daisy
  11:../../libDaisy//src/daisy_seed.h **** {
  12:../../libDaisy//src/daisy_seed.h **** /**
  13:../../libDaisy//src/daisy_seed.h ****    @brief This is the higher-level interface for the Daisy board. \n 
  14:../../libDaisy//src/daisy_seed.h ****     All basic peripheral configuration/initialization is setup here. \n
  15:../../libDaisy//src/daisy_seed.h **** 
  16:../../libDaisy//src/daisy_seed.h ****    @ingroup boards
  17:../../libDaisy//src/daisy_seed.h **** */
  18:../../libDaisy//src/daisy_seed.h **** class DaisySeed
  19:../../libDaisy//src/daisy_seed.h **** {
  20:../../libDaisy//src/daisy_seed.h ****   public:
  21:../../libDaisy//src/daisy_seed.h ****     DaisySeed() {}
  22:../../libDaisy//src/daisy_seed.h ****     ~DaisySeed() {}
  80              		.loc 3 22 5 is_stmt 1 view -0
  81              		.cfi_startproc
  82              		@ args = 0, pretend = 0, frame = 0
  83              		@ frame_needed = 0, uses_anonymous_args = 0
  84              		@ link register save eliminated.
  85              	.LBB591:
  86              	.LBI591:
  87              		.file 4 "../../libDaisy//src/sys/system.h"
   1:../../libDaisy//src/sys/system.h **** #ifndef DSY_SYSTEM_H
ARM GAS  /var/folders/hl/qgbwny5j0fd895c2c41bk3tw0000gp/T//cckqgw4a.s 			page 4


   2:../../libDaisy//src/sys/system.h **** #define DSY_SYSTEM_H
   3:../../libDaisy//src/sys/system.h **** 
   4:../../libDaisy//src/sys/system.h **** #ifndef UNIT_TEST // for unit tests, a dummy implementation is provided below
   5:../../libDaisy//src/sys/system.h **** 
   6:../../libDaisy//src/sys/system.h **** #include <cstdint>
   7:../../libDaisy//src/sys/system.h **** #include "per/tim.h"
   8:../../libDaisy//src/sys/system.h **** 
   9:../../libDaisy//src/sys/system.h **** namespace daisy
  10:../../libDaisy//src/sys/system.h **** {
  11:../../libDaisy//src/sys/system.h **** /** A handle for interacting with the Core System. 
  12:../../libDaisy//src/sys/system.h ****  ** This includes the Clock tree, MPU, global DMA initialization,
  13:../../libDaisy//src/sys/system.h ****  ** cache handling, and any other necessary global initiailzation
  14:../../libDaisy//src/sys/system.h ****  **
  15:../../libDaisy//src/sys/system.h ****  ** @author shensley
  16:../../libDaisy//src/sys/system.h ****  ** @ingroup system
  17:../../libDaisy//src/sys/system.h ****  */
  18:../../libDaisy//src/sys/system.h **** class System
  19:../../libDaisy//src/sys/system.h **** {
  20:../../libDaisy//src/sys/system.h ****   public:
  21:../../libDaisy//src/sys/system.h ****     /** Contains settings for initializing the System */
  22:../../libDaisy//src/sys/system.h ****     struct Config
  23:../../libDaisy//src/sys/system.h ****     {
  24:../../libDaisy//src/sys/system.h ****         /** Specifies the system clock frequency that feeds APB/AHB clocks, etc. */
  25:../../libDaisy//src/sys/system.h ****         enum class SysClkFreq
  26:../../libDaisy//src/sys/system.h ****         {
  27:../../libDaisy//src/sys/system.h ****             FREQ_400MHZ,
  28:../../libDaisy//src/sys/system.h ****             FREQ_480MHZ,
  29:../../libDaisy//src/sys/system.h ****         };
  30:../../libDaisy//src/sys/system.h **** 
  31:../../libDaisy//src/sys/system.h ****         /** Method to call on the struct to set to defaults
  32:../../libDaisy//src/sys/system.h ****          ** CPU Freq set to 400MHz
  33:../../libDaisy//src/sys/system.h ****          ** Cache Enabled 
  34:../../libDaisy//src/sys/system.h ****          ** */
  35:../../libDaisy//src/sys/system.h ****         void Defaults()
  36:../../libDaisy//src/sys/system.h ****         {
  37:../../libDaisy//src/sys/system.h ****             cpu_freq    = SysClkFreq::FREQ_400MHZ;
  38:../../libDaisy//src/sys/system.h ****             use_dcache  = true;
  39:../../libDaisy//src/sys/system.h ****             use_icache  = true;
  40:../../libDaisy//src/sys/system.h ****             skip_clocks = false;
  41:../../libDaisy//src/sys/system.h ****         }
  42:../../libDaisy//src/sys/system.h **** 
  43:../../libDaisy//src/sys/system.h ****         /** Method to call on the struct to set to boost mode:
  44:../../libDaisy//src/sys/system.h ****          ** CPU Freq set to 480MHz
  45:../../libDaisy//src/sys/system.h ****          ** Cache Enabled 
  46:../../libDaisy//src/sys/system.h ****          ** */
  47:../../libDaisy//src/sys/system.h ****         void Boost()
  48:../../libDaisy//src/sys/system.h ****         {
  49:../../libDaisy//src/sys/system.h ****             cpu_freq    = SysClkFreq::FREQ_480MHZ;
  50:../../libDaisy//src/sys/system.h ****             use_dcache  = true;
  51:../../libDaisy//src/sys/system.h ****             use_icache  = true;
  52:../../libDaisy//src/sys/system.h ****             skip_clocks = false;
  53:../../libDaisy//src/sys/system.h ****         }
  54:../../libDaisy//src/sys/system.h **** 
  55:../../libDaisy//src/sys/system.h ****         SysClkFreq cpu_freq;
  56:../../libDaisy//src/sys/system.h ****         bool       use_dcache;
  57:../../libDaisy//src/sys/system.h ****         bool       use_icache;
  58:../../libDaisy//src/sys/system.h ****         bool       skip_clocks;
ARM GAS  /var/folders/hl/qgbwny5j0fd895c2c41bk3tw0000gp/T//cckqgw4a.s 			page 5


  59:../../libDaisy//src/sys/system.h ****     };
  60:../../libDaisy//src/sys/system.h **** 
  61:../../libDaisy//src/sys/system.h ****     /** Describes the different regions of memory available to the Daisy
  62:../../libDaisy//src/sys/system.h ****      * 
  63:../../libDaisy//src/sys/system.h ****      */
  64:../../libDaisy//src/sys/system.h ****     enum MemoryRegion
  65:../../libDaisy//src/sys/system.h ****     {
  66:../../libDaisy//src/sys/system.h ****         INTERNAL_FLASH = 0,
  67:../../libDaisy//src/sys/system.h ****         ITCMRAM,
  68:../../libDaisy//src/sys/system.h ****         DTCMRAM,
  69:../../libDaisy//src/sys/system.h ****         SRAM_D1,
  70:../../libDaisy//src/sys/system.h ****         SRAM_D2,
  71:../../libDaisy//src/sys/system.h ****         SRAM_D3,
  72:../../libDaisy//src/sys/system.h ****         SDRAM,
  73:../../libDaisy//src/sys/system.h ****         QSPI,
  74:../../libDaisy//src/sys/system.h ****         INVALID_ADDRESS,
  75:../../libDaisy//src/sys/system.h ****     };
  76:../../libDaisy//src/sys/system.h **** 
  77:../../libDaisy//src/sys/system.h ****     System() {}
  78:../../libDaisy//src/sys/system.h ****     ~System() {}
  88              		.loc 4 78 5 view .LVU5
  89              		.loc 4 78 5 is_stmt 0 view .LVU6
  90              	.LBE591:
  91              	.LBB592:
  92              	.LBI592:
  93              		.file 5 "../../libDaisy//src/hid/usb.h"
   1:../../libDaisy//src/hid/usb.h **** #pragma once
   2:../../libDaisy//src/hid/usb.h **** #ifndef DSY_HID_USB_H
   3:../../libDaisy//src/hid/usb.h **** #define DSY_HID_USB_H
   4:../../libDaisy//src/hid/usb.h **** #include <stdint.h>
   5:../../libDaisy//src/hid/usb.h **** #include <stdlib.h>
   6:../../libDaisy//src/hid/usb.h **** 
   7:../../libDaisy//src/hid/usb.h **** namespace daisy
   8:../../libDaisy//src/hid/usb.h **** /** @addtogroup human_interface
   9:../../libDaisy//src/hid/usb.h ****     @{
  10:../../libDaisy//src/hid/usb.h **** */
  11:../../libDaisy//src/hid/usb.h **** 
  12:../../libDaisy//src/hid/usb.h **** {
  13:../../libDaisy//src/hid/usb.h **** /** 
  14:../../libDaisy//src/hid/usb.h ****     @brief Interface for initializing and using the USB Peripherals on the daisy
  15:../../libDaisy//src/hid/usb.h ****     @author Stephen Hensley
  16:../../libDaisy//src/hid/usb.h ****     @date December 2019
  17:../../libDaisy//src/hid/usb.h **** */
  18:../../libDaisy//src/hid/usb.h **** class UsbHandle
  19:../../libDaisy//src/hid/usb.h **** {
  20:../../libDaisy//src/hid/usb.h ****   public:
  21:../../libDaisy//src/hid/usb.h ****     /** Return values for USBHandle Functions */
  22:../../libDaisy//src/hid/usb.h ****     enum class Result
  23:../../libDaisy//src/hid/usb.h ****     {
  24:../../libDaisy//src/hid/usb.h ****         OK,
  25:../../libDaisy//src/hid/usb.h ****         ERR,
  26:../../libDaisy//src/hid/usb.h ****     };
  27:../../libDaisy//src/hid/usb.h **** 
  28:../../libDaisy//src/hid/usb.h ****     /** Specified which of the two USB Peripherals to initialize. */
  29:../../libDaisy//src/hid/usb.h ****     enum UsbPeriph
  30:../../libDaisy//src/hid/usb.h ****     {
  31:../../libDaisy//src/hid/usb.h ****         FS_INTERNAL, /**< Internal pin */
ARM GAS  /var/folders/hl/qgbwny5j0fd895c2c41bk3tw0000gp/T//cckqgw4a.s 			page 6


  32:../../libDaisy//src/hid/usb.h ****         FS_EXTERNAL, /**< FS External D+ pin is Pin 38 (GPIO32). FS External D- pin is Pin 37 (GPIO
  33:../../libDaisy//src/hid/usb.h ****         FS_BOTH,     /**< Both */
  34:../../libDaisy//src/hid/usb.h ****     };
  35:../../libDaisy//src/hid/usb.h **** 
  36:../../libDaisy//src/hid/usb.h **** 
  37:../../libDaisy//src/hid/usb.h ****     /** Function called upon reception of a buffer */
  38:../../libDaisy//src/hid/usb.h ****     typedef void (*ReceiveCallback)(uint8_t* buff, uint32_t* len);
  39:../../libDaisy//src/hid/usb.h **** 
  40:../../libDaisy//src/hid/usb.h ****     UsbHandle() {}
  41:../../libDaisy//src/hid/usb.h **** 
  42:../../libDaisy//src/hid/usb.h ****     ~UsbHandle() {}
  94              		.loc 5 42 5 is_stmt 1 view .LVU7
  95              		.loc 5 42 5 is_stmt 0 view .LVU8
  96              	.LBE592:
  97              	.LBB593:
  98              	.LBI593:
  99              		.file 6 "../../libDaisy//src/per/adc.h"
   1:../../libDaisy//src/per/adc.h **** #pragma once
   2:../../libDaisy//src/per/adc.h **** #ifndef DSY_ADC_H
   3:../../libDaisy//src/per/adc.h **** #define DSY_ADC_H /**< Macro */
   4:../../libDaisy//src/per/adc.h **** #include <stdint.h>
   5:../../libDaisy//src/per/adc.h **** #include <stdlib.h>
   6:../../libDaisy//src/per/adc.h **** #include "daisy_core.h"
   7:../../libDaisy//src/per/adc.h **** #include "per/gpio.h"
   8:../../libDaisy//src/per/adc.h **** 
   9:../../libDaisy//src/per/adc.h **** #define DSY_ADC_MAX_CHANNELS 16 /**< Maximum number of ADC channels */
  10:../../libDaisy//src/per/adc.h **** 
  11:../../libDaisy//src/per/adc.h **** namespace daisy
  12:../../libDaisy//src/per/adc.h **** {
  13:../../libDaisy//src/per/adc.h **** /** @addtogroup per_analog
  14:../../libDaisy//src/per/adc.h ****     @{
  15:../../libDaisy//src/per/adc.h **** */
  16:../../libDaisy//src/per/adc.h **** 
  17:../../libDaisy//src/per/adc.h **** /* While there may not be many configuration options here,
  18:../../libDaisy//src/per/adc.h **** using a struct like this allows us to add more configuration
  19:../../libDaisy//src/per/adc.h **** later without breaking existing functionality.
  20:../../libDaisy//src/per/adc.h **** */
  21:../../libDaisy//src/per/adc.h **** 
  22:../../libDaisy//src/per/adc.h **** /** @brief   Configuration Structure for an ADC Channel 
  23:../../libDaisy//src/per/adc.h ****  *  @details This can be used to configure a a single input, 
  24:../../libDaisy//src/per/adc.h ****  *           or a multiplexed input, allowing up to 8 inputs on 
  25:../../libDaisy//src/per/adc.h ****  *           one channel.
  26:../../libDaisy//src/per/adc.h ****  *  @note    Sharing data lines to multiple muxes _is_ possible, but
  27:../../libDaisy//src/per/adc.h ****  *           each channel sharing data lines must be set to the maximum
  28:../../libDaisy//src/per/adc.h ****  *           number of channels, even if some multiplexers have fewer
  29:../../libDaisy//src/per/adc.h ****  *           inputs connected.
  30:../../libDaisy//src/per/adc.h **** */
  31:../../libDaisy//src/per/adc.h **** struct AdcChannelConfig
  32:../../libDaisy//src/per/adc.h **** {
  33:../../libDaisy//src/per/adc.h ****     /** Which pin to use for multiplexing */
  34:../../libDaisy//src/per/adc.h ****     enum MuxPin
  35:../../libDaisy//src/per/adc.h ****     {
  36:../../libDaisy//src/per/adc.h ****         MUX_SEL_0,    /**< & */
  37:../../libDaisy//src/per/adc.h ****         MUX_SEL_1,    /**< & */
  38:../../libDaisy//src/per/adc.h ****         MUX_SEL_2,    /**< & */
  39:../../libDaisy//src/per/adc.h ****         MUX_SEL_LAST, /**< & */
  40:../../libDaisy//src/per/adc.h ****     };
ARM GAS  /var/folders/hl/qgbwny5j0fd895c2c41bk3tw0000gp/T//cckqgw4a.s 			page 7


  41:../../libDaisy//src/per/adc.h **** 
  42:../../libDaisy//src/per/adc.h ****     /** Initializes a single ADC pin as an ADC. 
  43:../../libDaisy//src/per/adc.h ****     \param pin Pin to init.
  44:../../libDaisy//src/per/adc.h ****      */
  45:../../libDaisy//src/per/adc.h ****     void InitSingle(dsy_gpio_pin pin);
  46:../../libDaisy//src/per/adc.h **** 
  47:../../libDaisy//src/per/adc.h ****     /** 
  48:../../libDaisy//src/per/adc.h ****     Initializes a single ADC pin as a Multiplexed ADC.
  49:../../libDaisy//src/per/adc.h ****     Requires a CD405X Multiplexer connected to the pin.
  50:../../libDaisy//src/per/adc.h ****     You only need to supply the mux pins that are required,
  51:../../libDaisy//src/per/adc.h ****     e.g. a 4052 mux would only require mux_0 and mux_1.
  52:../../libDaisy//src/per/adc.h ****     Internal Callbacks handle the pin addressing.
  53:../../libDaisy//src/per/adc.h ****     \param mux_channels must be 1-8
  54:../../libDaisy//src/per/adc.h ****     \param mux_0 First mux pin
  55:../../libDaisy//src/per/adc.h ****     \param mux_1 Second mux pin
  56:../../libDaisy//src/per/adc.h ****     \param mux_2 Third mux pin
  57:../../libDaisy//src/per/adc.h ****     \param adc_pin &
  58:../../libDaisy//src/per/adc.h ****     */
  59:../../libDaisy//src/per/adc.h ****     void InitMux(dsy_gpio_pin adc_pin,
  60:../../libDaisy//src/per/adc.h ****                  size_t       mux_channels,
  61:../../libDaisy//src/per/adc.h ****                  dsy_gpio_pin mux_0,
  62:../../libDaisy//src/per/adc.h ****                  dsy_gpio_pin mux_1 = {DSY_GPIOX, 0},
  63:../../libDaisy//src/per/adc.h ****                  dsy_gpio_pin mux_2 = {DSY_GPIOX, 0});
  64:../../libDaisy//src/per/adc.h **** 
  65:../../libDaisy//src/per/adc.h ****     dsy_gpio pin_;                   /**< & */
  66:../../libDaisy//src/per/adc.h ****     dsy_gpio mux_pin_[MUX_SEL_LAST]; /**< & */
  67:../../libDaisy//src/per/adc.h ****     uint8_t  mux_channels_;          /**< & */
  68:../../libDaisy//src/per/adc.h **** };
  69:../../libDaisy//src/per/adc.h **** 
  70:../../libDaisy//src/per/adc.h **** /**
  71:../../libDaisy//src/per/adc.h ****    @brief Handler for analog to digital conversion
  72:../../libDaisy//src/per/adc.h **** */
  73:../../libDaisy//src/per/adc.h **** class AdcHandle
  74:../../libDaisy//src/per/adc.h **** {
  75:../../libDaisy//src/per/adc.h ****   public:
  76:../../libDaisy//src/per/adc.h ****     /** Supported oversampling amounts */
  77:../../libDaisy//src/per/adc.h ****     enum OverSampling
  78:../../libDaisy//src/per/adc.h ****     {
  79:../../libDaisy//src/per/adc.h ****         OVS_NONE, /**< & */
  80:../../libDaisy//src/per/adc.h ****         OVS_4,    /**< & */
  81:../../libDaisy//src/per/adc.h ****         OVS_8,    /**< & */
  82:../../libDaisy//src/per/adc.h ****         OVS_16,   /**< & */
  83:../../libDaisy//src/per/adc.h ****         OVS_32,   /**< & */
  84:../../libDaisy//src/per/adc.h ****         OVS_64,   /**< & */
  85:../../libDaisy//src/per/adc.h ****         OVS_128,  /**< & */
  86:../../libDaisy//src/per/adc.h ****         OVS_256,  /**< & */
  87:../../libDaisy//src/per/adc.h ****         OVS_512,  /**< & */
  88:../../libDaisy//src/per/adc.h ****         OVS_1024, /**< & */
  89:../../libDaisy//src/per/adc.h ****         OVS_LAST, /**< & */
  90:../../libDaisy//src/per/adc.h ****     };
  91:../../libDaisy//src/per/adc.h **** 
  92:../../libDaisy//src/per/adc.h ****     AdcHandle() {}
  93:../../libDaisy//src/per/adc.h ****     ~AdcHandle() {}
 100              		.loc 6 93 5 is_stmt 1 view .LVU9
 101              		.loc 6 93 5 is_stmt 0 view .LVU10
 102              	.LBE593:
 103              	.LBB594:
ARM GAS  /var/folders/hl/qgbwny5j0fd895c2c41bk3tw0000gp/T//cckqgw4a.s 			page 8


 104              	.LBI594:
 105              		.file 7 "../../libDaisy//src/hid/audio.h"
   1:../../libDaisy//src/hid/audio.h **** #ifndef DSY_AUDIO_H
   2:../../libDaisy//src/hid/audio.h **** #define DSY_AUDIO_H /**< & */
   3:../../libDaisy//src/hid/audio.h **** 
   4:../../libDaisy//src/hid/audio.h **** #include "per/sai.h"
   5:../../libDaisy//src/hid/audio.h **** 
   6:../../libDaisy//src/hid/audio.h **** namespace daisy
   7:../../libDaisy//src/hid/audio.h **** {
   8:../../libDaisy//src/hid/audio.h **** /** @brief Audio Engine Handle
   9:../../libDaisy//src/hid/audio.h ****  *  @ingroup audio 
  10:../../libDaisy//src/hid/audio.h ****  *  @details This class allows for higher level access to an audio engine.
  11:../../libDaisy//src/hid/audio.h ****  *           If you're using a SOM like the DaisySeed or DaisyPatchSM (or any 
  12:../../libDaisy//src/hid/audio.h ****  *            board that includes one of those objects) then the intialization
  13:../../libDaisy//src/hid/audio.h ****  *            is already taken  care of.
  14:../../libDaisy//src/hid/audio.h ****  *           If you're setting up your own custom hardware, or need to make changes
  15:../../libDaisy//src/hid/audio.h ****  *           you will have to take the following steps:
  16:../../libDaisy//src/hid/audio.h ****  *             1. Create and Initialize an SaiHandle or two depending on your requirements
  17:../../libDaisy//src/hid/audio.h ****  *             2. Initialize the Audio Handle with the desired settings and the Initialized SaiHand
  18:../../libDaisy//src/hid/audio.h ****  *             3. If the connected codec requires special configuration or initialization, do so
  19:../../libDaisy//src/hid/audio.h ****  *             4. Write a callback method using either the AudioCallback or the InterleavingAudioCa
  20:../../libDaisy//src/hid/audio.h ****  *             5. Start the Audio using one of the StartAudio function
  21:../../libDaisy//src/hid/audio.h ****  */
  22:../../libDaisy//src/hid/audio.h **** class AudioHandle
  23:../../libDaisy//src/hid/audio.h **** {
  24:../../libDaisy//src/hid/audio.h ****   public:
  25:../../libDaisy//src/hid/audio.h ****     /** Manually configurable details about the Audio Engine */
  26:../../libDaisy//src/hid/audio.h ****     /** TODO: Figure out how to get samplerate in here. */
  27:../../libDaisy//src/hid/audio.h ****     struct Config
  28:../../libDaisy//src/hid/audio.h ****     {
  29:../../libDaisy//src/hid/audio.h ****         /** number of samples to process per callback */
  30:../../libDaisy//src/hid/audio.h ****         size_t blocksize;
  31:../../libDaisy//src/hid/audio.h **** 
  32:../../libDaisy//src/hid/audio.h ****         /**< Sample rate of audio */
  33:../../libDaisy//src/hid/audio.h ****         SaiHandle::Config::SampleRate samplerate;
  34:../../libDaisy//src/hid/audio.h **** 
  35:../../libDaisy//src/hid/audio.h ****         /** factor for adjustment before and after callback for hardware that may have extra headro
  36:../../libDaisy//src/hid/audio.h ****         float postgain;
  37:../../libDaisy//src/hid/audio.h **** 
  38:../../libDaisy//src/hid/audio.h ****         /** factor for additional one-sided compensation to audio path for hardware that may
  39:../../libDaisy//src/hid/audio.h ****          *  have unequal input/output ranges
  40:../../libDaisy//src/hid/audio.h ****          */
  41:../../libDaisy//src/hid/audio.h ****         float output_compensation;
  42:../../libDaisy//src/hid/audio.h **** 
  43:../../libDaisy//src/hid/audio.h ****         /** Sets default values for config struct */
  44:../../libDaisy//src/hid/audio.h ****         Config()
  45:../../libDaisy//src/hid/audio.h ****         : blocksize(48),
  46:../../libDaisy//src/hid/audio.h ****           samplerate(SaiHandle::Config::SampleRate::SAI_48KHZ),
  47:../../libDaisy//src/hid/audio.h ****           postgain(1.f),
  48:../../libDaisy//src/hid/audio.h ****           output_compensation(1.f)
  49:../../libDaisy//src/hid/audio.h ****         {
  50:../../libDaisy//src/hid/audio.h ****         }
  51:../../libDaisy//src/hid/audio.h ****     };
  52:../../libDaisy//src/hid/audio.h **** 
  53:../../libDaisy//src/hid/audio.h ****     enum class Result
  54:../../libDaisy//src/hid/audio.h ****     {
  55:../../libDaisy//src/hid/audio.h ****         OK,
ARM GAS  /var/folders/hl/qgbwny5j0fd895c2c41bk3tw0000gp/T//cckqgw4a.s 			page 9


  56:../../libDaisy//src/hid/audio.h ****         ERR,
  57:../../libDaisy//src/hid/audio.h ****     };
  58:../../libDaisy//src/hid/audio.h **** 
  59:../../libDaisy//src/hid/audio.h ****     /** Non-Interleaving input buffer
  60:../../libDaisy//src/hid/audio.h ****      * Buffer arranged by float[chn][sample] 
  61:../../libDaisy//src/hid/audio.h ****      * const so that the user can't modify the input
  62:../../libDaisy//src/hid/audio.h ****      */
  63:../../libDaisy//src/hid/audio.h ****     typedef const float* const* InputBuffer;
  64:../../libDaisy//src/hid/audio.h **** 
  65:../../libDaisy//src/hid/audio.h ****     /** Non-Interleaving output buffer
  66:../../libDaisy//src/hid/audio.h ****      * Arranged by float[chn][sample] 
  67:../../libDaisy//src/hid/audio.h ****      */
  68:../../libDaisy//src/hid/audio.h ****     typedef float** OutputBuffer;
  69:../../libDaisy//src/hid/audio.h **** 
  70:../../libDaisy//src/hid/audio.h ****     /** Type for a Non-Interleaving audio callback 
  71:../../libDaisy//src/hid/audio.h ****      * Non-Interleaving audio callbacks in daisy will be of this type
  72:../../libDaisy//src/hid/audio.h ****      */
  73:../../libDaisy//src/hid/audio.h ****     typedef void (*AudioCallback)(InputBuffer  in,
  74:../../libDaisy//src/hid/audio.h ****                                   OutputBuffer out,
  75:../../libDaisy//src/hid/audio.h ****                                   size_t       size);
  76:../../libDaisy//src/hid/audio.h **** 
  77:../../libDaisy//src/hid/audio.h ****     /** Interleaving Input buffer
  78:../../libDaisy//src/hid/audio.h ****      ** audio is prepared as { L0, R0, L1, R1, . . . LN, RN }]
  79:../../libDaisy//src/hid/audio.h ****      ** this is const, as the user shouldn't modify it
  80:../../libDaisy//src/hid/audio.h ****     */
  81:../../libDaisy//src/hid/audio.h ****     typedef const float* InterleavingInputBuffer;
  82:../../libDaisy//src/hid/audio.h **** 
  83:../../libDaisy//src/hid/audio.h ****     /** Interleaving Output buffer 
  84:../../libDaisy//src/hid/audio.h ****      ** audio is prepared as { L0, R0, L1, R1, . . . LN, RN }
  85:../../libDaisy//src/hid/audio.h ****     */
  86:../../libDaisy//src/hid/audio.h ****     typedef float* InterleavingOutputBuffer;
  87:../../libDaisy//src/hid/audio.h **** 
  88:../../libDaisy//src/hid/audio.h ****     /** Interleaving Audio Callback 
  89:../../libDaisy//src/hid/audio.h ****      * Interleaving audio callbacks in daisy must be of this type
  90:../../libDaisy//src/hid/audio.h ****      */
  91:../../libDaisy//src/hid/audio.h ****     typedef void (*InterleavingAudioCallback)(InterleavingInputBuffer  in,
  92:../../libDaisy//src/hid/audio.h ****                                               InterleavingOutputBuffer out,
  93:../../libDaisy//src/hid/audio.h ****                                               size_t                   size);
  94:../../libDaisy//src/hid/audio.h **** 
  95:../../libDaisy//src/hid/audio.h ****     AudioHandle() : pimpl_(nullptr) {}
  96:../../libDaisy//src/hid/audio.h ****     ~AudioHandle() {}
 106              		.loc 7 96 5 is_stmt 1 view .LVU11
 107              		.loc 7 96 5 is_stmt 0 view .LVU12
 108              	.LBE594:
 109              		.loc 3 22 19 view .LVU13
 110 0000 7047     		bx	lr
 111              		.cfi_endproc
 112              	.LFE2529:
 114              		.weak	_ZN5daisy9DaisySeedD1Ev
 115              		.thumb_set _ZN5daisy9DaisySeedD1Ev,_ZN5daisy9DaisySeedD2Ev
 116 0002 00BF     		.section	.text._ZN7daisysp9ResonatorD2Ev,"axG",%progbits,_ZN7daisysp9ResonatorD5Ev,comdat
 117              		.align	1
 118              		.p2align 2,,3
 119              		.weak	_ZN7daisysp9ResonatorD2Ev
 120              		.syntax unified
 121              		.thumb
 122              		.thumb_func
ARM GAS  /var/folders/hl/qgbwny5j0fd895c2c41bk3tw0000gp/T//cckqgw4a.s 			page 10


 123              		.fpu fpv5-d16
 125              	_ZN7daisysp9ResonatorD2Ev:
 126              	.LVL3:
 127              	.LFB4614:
 128              		.file 8 "../../DaisySP//Source/PhysicalModeling/resonator.h"
   1:../../DaisySP//Source/PhysicalModeling/resonator.h **** #pragma once
   2:../../DaisySP//Source/PhysicalModeling/resonator.h **** #ifndef DSY_RESONATOR_H
   3:../../DaisySP//Source/PhysicalModeling/resonator.h **** #define DSY_RESONATOR_H
   4:../../DaisySP//Source/PhysicalModeling/resonator.h **** 
   5:../../DaisySP//Source/PhysicalModeling/resonator.h **** #include <stdint.h>
   6:../../DaisySP//Source/PhysicalModeling/resonator.h **** #include <stddef.h>
   7:../../DaisySP//Source/PhysicalModeling/resonator.h **** #include "Utility/dsp.h"
   8:../../DaisySP//Source/PhysicalModeling/resonator.h **** #ifdef __cplusplus
   9:../../DaisySP//Source/PhysicalModeling/resonator.h **** 
  10:../../DaisySP//Source/PhysicalModeling/resonator.h **** 
  11:../../DaisySP//Source/PhysicalModeling/resonator.h **** /** @file resonator.h */
  12:../../DaisySP//Source/PhysicalModeling/resonator.h **** 
  13:../../DaisySP//Source/PhysicalModeling/resonator.h **** namespace daisysp
  14:../../DaisySP//Source/PhysicalModeling/resonator.h **** {
  15:../../DaisySP//Source/PhysicalModeling/resonator.h **** // We render 4 modes simultaneously since there are enough registers to hold
  16:../../DaisySP//Source/PhysicalModeling/resonator.h **** // all state variables.
  17:../../DaisySP//Source/PhysicalModeling/resonator.h **** /**  
  18:../../DaisySP//Source/PhysicalModeling/resonator.h ****        @brief SVF for use in the Resonator Class \n 
  19:../../DaisySP//Source/PhysicalModeling/resonator.h ****        @author Ported by Ben Sergentanis 
  20:../../DaisySP//Source/PhysicalModeling/resonator.h ****        @date Jan 2021 
  21:../../DaisySP//Source/PhysicalModeling/resonator.h ****        Ported from pichenettes/eurorack/plaits/dsp/physical_modelling/resonator.h \n
  22:../../DaisySP//Source/PhysicalModeling/resonator.h ****        to an independent module. \n
  23:../../DaisySP//Source/PhysicalModeling/resonator.h ****        Original code written by Emilie Gillet in 2016. \n
  24:../../DaisySP//Source/PhysicalModeling/resonator.h **** */
  25:../../DaisySP//Source/PhysicalModeling/resonator.h **** template <int batch_size>
  26:../../DaisySP//Source/PhysicalModeling/resonator.h **** class ResonatorSvf
  27:../../DaisySP//Source/PhysicalModeling/resonator.h **** {
  28:../../DaisySP//Source/PhysicalModeling/resonator.h ****   public:
  29:../../DaisySP//Source/PhysicalModeling/resonator.h ****     enum FilterMode
  30:../../DaisySP//Source/PhysicalModeling/resonator.h ****     {
  31:../../DaisySP//Source/PhysicalModeling/resonator.h ****         LOW_PASS,
  32:../../DaisySP//Source/PhysicalModeling/resonator.h ****         BAND_PASS,
  33:../../DaisySP//Source/PhysicalModeling/resonator.h ****         BAND_PASS_NORMALIZED,
  34:../../DaisySP//Source/PhysicalModeling/resonator.h ****         HIGH_PASS
  35:../../DaisySP//Source/PhysicalModeling/resonator.h ****     };
  36:../../DaisySP//Source/PhysicalModeling/resonator.h **** 
  37:../../DaisySP//Source/PhysicalModeling/resonator.h ****     ResonatorSvf() {}
  38:../../DaisySP//Source/PhysicalModeling/resonator.h ****     ~ResonatorSvf() {}
  39:../../DaisySP//Source/PhysicalModeling/resonator.h **** 
  40:../../DaisySP//Source/PhysicalModeling/resonator.h ****     void Init()
  41:../../DaisySP//Source/PhysicalModeling/resonator.h ****     {
  42:../../DaisySP//Source/PhysicalModeling/resonator.h ****         for(int i = 0; i < batch_size; ++i)
  43:../../DaisySP//Source/PhysicalModeling/resonator.h ****         {
  44:../../DaisySP//Source/PhysicalModeling/resonator.h ****             state_1_[i] = state_2_[i] = 0.0f;
  45:../../DaisySP//Source/PhysicalModeling/resonator.h ****         }
  46:../../DaisySP//Source/PhysicalModeling/resonator.h ****     }
  47:../../DaisySP//Source/PhysicalModeling/resonator.h **** 
  48:../../DaisySP//Source/PhysicalModeling/resonator.h ****     template <FilterMode mode, bool add>
  49:../../DaisySP//Source/PhysicalModeling/resonator.h ****     void Process(const float* f,
  50:../../DaisySP//Source/PhysicalModeling/resonator.h ****                  const float* q,
  51:../../DaisySP//Source/PhysicalModeling/resonator.h ****                  const float* gain,
  52:../../DaisySP//Source/PhysicalModeling/resonator.h ****                  const float  in,
ARM GAS  /var/folders/hl/qgbwny5j0fd895c2c41bk3tw0000gp/T//cckqgw4a.s 			page 11


  53:../../DaisySP//Source/PhysicalModeling/resonator.h ****                  float*       out)
  54:../../DaisySP//Source/PhysicalModeling/resonator.h ****     {
  55:../../DaisySP//Source/PhysicalModeling/resonator.h ****         float g[batch_size];
  56:../../DaisySP//Source/PhysicalModeling/resonator.h ****         float r[batch_size];
  57:../../DaisySP//Source/PhysicalModeling/resonator.h ****         float r_plus_g[batch_size];
  58:../../DaisySP//Source/PhysicalModeling/resonator.h ****         float h[batch_size];
  59:../../DaisySP//Source/PhysicalModeling/resonator.h ****         float state_1[batch_size];
  60:../../DaisySP//Source/PhysicalModeling/resonator.h ****         float state_2[batch_size];
  61:../../DaisySP//Source/PhysicalModeling/resonator.h ****         float gains[batch_size];
  62:../../DaisySP//Source/PhysicalModeling/resonator.h ****         for(int i = 0; i < batch_size; ++i)
  63:../../DaisySP//Source/PhysicalModeling/resonator.h ****         {
  64:../../DaisySP//Source/PhysicalModeling/resonator.h ****             g[i]        = fasttan(f[i]);
  65:../../DaisySP//Source/PhysicalModeling/resonator.h ****             r[i]        = 1.0f / q[i];
  66:../../DaisySP//Source/PhysicalModeling/resonator.h ****             h[i]        = 1.0f / (1.0f + r[i] * g[i] + g[i] * g[i]);
  67:../../DaisySP//Source/PhysicalModeling/resonator.h ****             r_plus_g[i] = r[i] + g[i];
  68:../../DaisySP//Source/PhysicalModeling/resonator.h ****             state_1[i]  = state_1_[i];
  69:../../DaisySP//Source/PhysicalModeling/resonator.h ****             state_2[i]  = state_2_[i];
  70:../../DaisySP//Source/PhysicalModeling/resonator.h ****             gains[i]    = gain[i];
  71:../../DaisySP//Source/PhysicalModeling/resonator.h ****         }
  72:../../DaisySP//Source/PhysicalModeling/resonator.h **** 
  73:../../DaisySP//Source/PhysicalModeling/resonator.h ****         float s_in  = in;
  74:../../DaisySP//Source/PhysicalModeling/resonator.h ****         float s_out = 0.0f;
  75:../../DaisySP//Source/PhysicalModeling/resonator.h ****         for(int i = 0; i < batch_size; ++i)
  76:../../DaisySP//Source/PhysicalModeling/resonator.h ****         {
  77:../../DaisySP//Source/PhysicalModeling/resonator.h ****             const float hp
  78:../../DaisySP//Source/PhysicalModeling/resonator.h ****                 = (s_in - r_plus_g[i] * state_1[i] - state_2[i]) * h[i];
  79:../../DaisySP//Source/PhysicalModeling/resonator.h ****             const float bp = g[i] * hp + state_1[i];
  80:../../DaisySP//Source/PhysicalModeling/resonator.h ****             state_1[i]     = g[i] * hp + bp;
  81:../../DaisySP//Source/PhysicalModeling/resonator.h ****             const float lp = g[i] * bp + state_2[i];
  82:../../DaisySP//Source/PhysicalModeling/resonator.h ****             state_2[i]     = g[i] * bp + lp;
  83:../../DaisySP//Source/PhysicalModeling/resonator.h ****             s_out += gains[i] * ((mode == LOW_PASS) ? lp : bp);
  84:../../DaisySP//Source/PhysicalModeling/resonator.h ****         }
  85:../../DaisySP//Source/PhysicalModeling/resonator.h ****         if(add)
  86:../../DaisySP//Source/PhysicalModeling/resonator.h ****         {
  87:../../DaisySP//Source/PhysicalModeling/resonator.h ****             *out++ += s_out;
  88:../../DaisySP//Source/PhysicalModeling/resonator.h ****         }
  89:../../DaisySP//Source/PhysicalModeling/resonator.h ****         else
  90:../../DaisySP//Source/PhysicalModeling/resonator.h ****         {
  91:../../DaisySP//Source/PhysicalModeling/resonator.h ****             *out++ = s_out;
  92:../../DaisySP//Source/PhysicalModeling/resonator.h ****         }
  93:../../DaisySP//Source/PhysicalModeling/resonator.h **** 
  94:../../DaisySP//Source/PhysicalModeling/resonator.h ****         for(int i = 0; i < batch_size; ++i)
  95:../../DaisySP//Source/PhysicalModeling/resonator.h ****         {
  96:../../DaisySP//Source/PhysicalModeling/resonator.h ****             state_1_[i] = state_1[i];
  97:../../DaisySP//Source/PhysicalModeling/resonator.h ****             state_2_[i] = state_2[i];
  98:../../DaisySP//Source/PhysicalModeling/resonator.h ****         }
  99:../../DaisySP//Source/PhysicalModeling/resonator.h ****     }
 100:../../DaisySP//Source/PhysicalModeling/resonator.h **** 
 101:../../DaisySP//Source/PhysicalModeling/resonator.h ****   private:
 102:../../DaisySP//Source/PhysicalModeling/resonator.h ****     static constexpr float kPiPow3 = PI_F * PI_F * PI_F;
 103:../../DaisySP//Source/PhysicalModeling/resonator.h ****     static constexpr float kPiPow5 = kPiPow3 * PI_F * PI_F;
 104:../../DaisySP//Source/PhysicalModeling/resonator.h ****     static inline float    fasttan(float f)
 105:../../DaisySP//Source/PhysicalModeling/resonator.h ****     {
 106:../../DaisySP//Source/PhysicalModeling/resonator.h ****         const float a  = 3.260e-01 * kPiPow3;
 107:../../DaisySP//Source/PhysicalModeling/resonator.h ****         const float b  = 1.823e-01 * kPiPow5;
 108:../../DaisySP//Source/PhysicalModeling/resonator.h ****         float       f2 = f * f;
 109:../../DaisySP//Source/PhysicalModeling/resonator.h ****         return f * (PI_F + f2 * (a + b * f2));
ARM GAS  /var/folders/hl/qgbwny5j0fd895c2c41bk3tw0000gp/T//cckqgw4a.s 			page 12


 110:../../DaisySP//Source/PhysicalModeling/resonator.h ****     }
 111:../../DaisySP//Source/PhysicalModeling/resonator.h **** 
 112:../../DaisySP//Source/PhysicalModeling/resonator.h ****     float state_1_[batch_size];
 113:../../DaisySP//Source/PhysicalModeling/resonator.h ****     float state_2_[batch_size];
 114:../../DaisySP//Source/PhysicalModeling/resonator.h **** };
 115:../../DaisySP//Source/PhysicalModeling/resonator.h **** 
 116:../../DaisySP//Source/PhysicalModeling/resonator.h **** 
 117:../../DaisySP//Source/PhysicalModeling/resonator.h **** /**         
 118:../../DaisySP//Source/PhysicalModeling/resonator.h ****        @brief Resonant Body Simulation
 119:../../DaisySP//Source/PhysicalModeling/resonator.h ****        @author Ported by Ben Sergentanis 
 120:../../DaisySP//Source/PhysicalModeling/resonator.h ****        @date Jan 2021 
 121:../../DaisySP//Source/PhysicalModeling/resonator.h ****        Ported from pichenettes/eurorack/plaits/dsp/physical_modelling/resonator.h \n
 122:../../DaisySP//Source/PhysicalModeling/resonator.h ****        to an independent module. \n
 123:../../DaisySP//Source/PhysicalModeling/resonator.h ****        Original code written by Emilie Gillet in 2016. \n 
 124:../../DaisySP//Source/PhysicalModeling/resonator.h **** */
 125:../../DaisySP//Source/PhysicalModeling/resonator.h **** class Resonator
 126:../../DaisySP//Source/PhysicalModeling/resonator.h **** {
 127:../../DaisySP//Source/PhysicalModeling/resonator.h ****   public:
 128:../../DaisySP//Source/PhysicalModeling/resonator.h ****     Resonator() {}
 129:../../DaisySP//Source/PhysicalModeling/resonator.h ****     ~Resonator() {}
 129              		.loc 8 129 5 is_stmt 1 view -0
 130              		.cfi_startproc
 131              		@ args = 0, pretend = 0, frame = 0
 132              		@ frame_needed = 0, uses_anonymous_args = 0
 133              		@ link register save eliminated.
 134              		.loc 8 129 19 is_stmt 0 view .LVU15
 135 0000 7047     		bx	lr
 136              		.cfi_endproc
 137              	.LFE4614:
 139              		.weak	_ZN7daisysp9ResonatorD1Ev
 140              		.thumb_set _ZN7daisysp9ResonatorD1Ev,_ZN7daisysp9ResonatorD2Ev
 141 0002 00BF     		.section	.text._ZN7daisysp11PolyPluck_pILj24EED2Ev,"axG",%progbits,_ZN7daisysp11PolyPluck_pILj24EE
 142              		.align	1
 143              		.p2align 2,,3
 144              		.weak	_ZN7daisysp11PolyPluck_pILj24EED2Ev
 145              		.syntax unified
 146              		.thumb
 147              		.thumb_func
 148              		.fpu fpv5-d16
 150              	_ZN7daisysp11PolyPluck_pILj24EED2Ev:
 151              	.LVL4:
 152              	.LFB5405:
 153              		.file 9 "PolyPluck_p.h"
   1:PolyPluck_p.h **** #pragma once
   2:PolyPluck_p.h **** #ifndef POLYPLUCK_D_H
   3:PolyPluck_p.h **** #define POLYPLUCK_D_H
   4:PolyPluck_p.h **** 
   5:PolyPluck_p.h **** #include <stdlib.h>
   6:PolyPluck_p.h **** #include "Utility/dsp.h"
   7:PolyPluck_p.h **** #include "PhysicalModeling/pluck.h"
   8:PolyPluck_p.h **** #include "Utility/dcblock.h"
   9:PolyPluck_p.h **** 
  10:PolyPluck_p.h **** namespace daisysp
  11:PolyPluck_p.h **** {
  12:PolyPluck_p.h **** /** Simplified Pseudo-Polyphonic Pluck Voice
  13:PolyPluck_p.h **** 
  14:PolyPluck_p.h **** Template Based Pluck Voice, with configurable number of voices and simple pseudo-polyphony.
ARM GAS  /var/folders/hl/qgbwny5j0fd895c2c41bk3tw0000gp/T//cckqgw4a.s 			page 13


  15:PolyPluck_p.h **** 
  16:PolyPluck_p.h **** DC Blocking included to prevent biases from causing unwanted saturation distortion.
  17:PolyPluck_p.h **** 
  18:PolyPluck_p.h **** adding some extra functions for finer control of the available parameters
  19:PolyPluck_p.h **** 
  20:PolyPluck_p.h **** **Changes**
  21:PolyPluck_p.h **** added set damp
  22:PolyPluck_p.h **** 
  23:PolyPluck_p.h **** **Author**: shensley
  24:PolyPluck_p.h **** **Modified by**: daniel lawler
  25:PolyPluck_p.h **** 
  26:PolyPluck_p.h **** **Date Added**: March 2020
  27:PolyPluck_p.h **** */
  28:PolyPluck_p.h **** template <size_t num_voices>
  29:PolyPluck_p.h **** class PolyPluck_p
 154              		.loc 9 29 7 is_stmt 1 view -0
 155              		.cfi_startproc
 156              		@ args = 0, pretend = 0, frame = 0
 157              		@ frame_needed = 0, uses_anonymous_args = 0
 158              		@ link register save eliminated.
 159              	.LBB595:
 160              	.LBI595:
 161              		.file 10 "../../DaisySP//Source/Utility/dcblock.h"
   1:../../DaisySP//Source/Utility/dcblock.h **** 
   2:../../DaisySP//Source/Utility/dcblock.h **** #pragma once
   3:../../DaisySP//Source/Utility/dcblock.h **** #ifndef DSY_DCBLOCK_H
   4:../../DaisySP//Source/Utility/dcblock.h **** #define DSY_DCBLOCK_H
   5:../../DaisySP//Source/Utility/dcblock.h **** #ifdef __cplusplus
   6:../../DaisySP//Source/Utility/dcblock.h **** 
   7:../../DaisySP//Source/Utility/dcblock.h **** namespace daisysp
   8:../../DaisySP//Source/Utility/dcblock.h **** {
   9:../../DaisySP//Source/Utility/dcblock.h **** /** Removes DC component of a signal
  10:../../DaisySP//Source/Utility/dcblock.h ****     */
  11:../../DaisySP//Source/Utility/dcblock.h **** class DcBlock
  12:../../DaisySP//Source/Utility/dcblock.h **** {
  13:../../DaisySP//Source/Utility/dcblock.h ****   public:
  14:../../DaisySP//Source/Utility/dcblock.h ****     DcBlock(){};
  15:../../DaisySP//Source/Utility/dcblock.h ****     ~DcBlock(){};
 162              		.loc 10 15 5 view .LVU17
 163              		.loc 10 15 5 is_stmt 0 view .LVU18
 164              	.LBE595:
 165              		.loc 9 29 7 view .LVU19
 166 0000 7047     		bx	lr
 167              		.cfi_endproc
 168              	.LFE5405:
 170              		.weak	_ZN7daisysp11PolyPluck_pILj24EED1Ev
 171              		.thumb_set _ZN7daisysp11PolyPluck_pILj24EED1Ev,_ZN7daisysp11PolyPluck_pILj24EED2Ev
 172 0002 00BF     		.section	.text._ZN7daisysp14PolyOscillatorD2Ev,"axG",%progbits,_ZN7daisysp14PolyOscillatorD5Ev,com
 173              		.align	1
 174              		.p2align 2,,3
 175              		.weak	_ZN7daisysp14PolyOscillatorD2Ev
 176              		.syntax unified
 177              		.thumb
 178              		.thumb_func
 179              		.fpu fpv5-d16
 181              	_ZN7daisysp14PolyOscillatorD2Ev:
 182              	.LVL5:
ARM GAS  /var/folders/hl/qgbwny5j0fd895c2c41bk3tw0000gp/T//cckqgw4a.s 			page 14


 183              	.LFB5408:
 184              		.file 11 "PolyOsc.h"
   1:PolyOsc.h     **** #pragma once
   2:PolyOsc.h     **** #ifndef POLYOSC_H_
   3:PolyOsc.h     **** #define POLYOSC_H_
   4:PolyOsc.h     **** 
   5:PolyOsc.h     **** #include "Synthesis/Oscillator.h"
   6:PolyOsc.h     **** #include "daisy_seed.h"
   7:PolyOsc.h     **** 
   8:PolyOsc.h     **** using namespace daisy;
   9:PolyOsc.h     **** 
  10:PolyOsc.h     **** const int NUM_OSC = 12;
  11:PolyOsc.h     **** 
  12:PolyOsc.h     **** namespace daisysp {
  13:PolyOsc.h     **** class PolyOscillator
 185              		.loc 11 13 7 is_stmt 1 view -0
 186              		.cfi_startproc
 187              		@ args = 0, pretend = 0, frame = 0
 188              		@ frame_needed = 0, uses_anonymous_args = 0
 189              		@ link register save eliminated.
 190              	.LBB596:
 191              	.LBI596:
 192              		.file 12 "../../DaisySP//Source/Effects/reverbsc.h"
   1:../../DaisySP//Source/Effects/reverbsc.h **** #pragma once
   2:../../DaisySP//Source/Effects/reverbsc.h **** #ifndef DSYSP_REVERBSC_H
   3:../../DaisySP//Source/Effects/reverbsc.h **** #define DSYSP_REVERBSC_H
   4:../../DaisySP//Source/Effects/reverbsc.h **** 
   5:../../DaisySP//Source/Effects/reverbsc.h **** #define DSY_REVERBSC_MAX_SIZE 98936
   6:../../DaisySP//Source/Effects/reverbsc.h **** 
   7:../../DaisySP//Source/Effects/reverbsc.h **** namespace daisysp
   8:../../DaisySP//Source/Effects/reverbsc.h **** {
   9:../../DaisySP//Source/Effects/reverbsc.h **** /**Delay line for internal reverb use
  10:../../DaisySP//Source/Effects/reverbsc.h **** */
  11:../../DaisySP//Source/Effects/reverbsc.h **** typedef struct
  12:../../DaisySP//Source/Effects/reverbsc.h **** {
  13:../../DaisySP//Source/Effects/reverbsc.h ****     int    write_pos;         /**< write position */
  14:../../DaisySP//Source/Effects/reverbsc.h ****     int    buffer_size;       /**< buffer size */
  15:../../DaisySP//Source/Effects/reverbsc.h ****     int    read_pos;          /**< read position */
  16:../../DaisySP//Source/Effects/reverbsc.h ****     int    read_pos_frac;     /**< fractional component of read pos */
  17:../../DaisySP//Source/Effects/reverbsc.h ****     int    read_pos_frac_inc; /**< increment for fractional */
  18:../../DaisySP//Source/Effects/reverbsc.h ****     int    dummy;             /**<  dummy var */
  19:../../DaisySP//Source/Effects/reverbsc.h ****     int    seed_val;          /**< randseed */
  20:../../DaisySP//Source/Effects/reverbsc.h ****     int    rand_line_cnt;     /**< number of random lines */
  21:../../DaisySP//Source/Effects/reverbsc.h ****     float  filter_state;      /**< state of filter */
  22:../../DaisySP//Source/Effects/reverbsc.h ****     float *buf;               /**< buffer ptr */
  23:../../DaisySP//Source/Effects/reverbsc.h **** } ReverbScDl;
  24:../../DaisySP//Source/Effects/reverbsc.h **** 
  25:../../DaisySP//Source/Effects/reverbsc.h **** /** Stereo Reverb
  26:../../DaisySP//Source/Effects/reverbsc.h **** 
  27:../../DaisySP//Source/Effects/reverbsc.h **** Reverb SC:               Ported from csound/soundpipe
  28:../../DaisySP//Source/Effects/reverbsc.h **** 
  29:../../DaisySP//Source/Effects/reverbsc.h **** Original author(s):        Sean Costello, Istvan Varga
  30:../../DaisySP//Source/Effects/reverbsc.h **** 
  31:../../DaisySP//Source/Effects/reverbsc.h **** Year:                    1999, 2005
  32:../../DaisySP//Source/Effects/reverbsc.h **** 
  33:../../DaisySP//Source/Effects/reverbsc.h **** Ported to soundpipe by:  Paul Batchelor
  34:../../DaisySP//Source/Effects/reverbsc.h **** 
ARM GAS  /var/folders/hl/qgbwny5j0fd895c2c41bk3tw0000gp/T//cckqgw4a.s 			page 15


  35:../../DaisySP//Source/Effects/reverbsc.h **** Ported by:                Stephen Hensley
  36:../../DaisySP//Source/Effects/reverbsc.h **** */
  37:../../DaisySP//Source/Effects/reverbsc.h **** class ReverbSc
  38:../../DaisySP//Source/Effects/reverbsc.h **** {
  39:../../DaisySP//Source/Effects/reverbsc.h ****   public:
  40:../../DaisySP//Source/Effects/reverbsc.h ****     ReverbSc() {}
  41:../../DaisySP//Source/Effects/reverbsc.h ****     ~ReverbSc() {}
 193              		.loc 12 41 5 view .LVU21
 194              		.loc 12 41 5 is_stmt 0 view .LVU22
 195              	.LBE596:
 196              		.loc 11 13 7 view .LVU23
 197 0000 7047     		bx	lr
 198              		.cfi_endproc
 199              	.LFE5408:
 201              		.weak	_ZN7daisysp14PolyOscillatorD1Ev
 202              		.thumb_set _ZN7daisysp14PolyOscillatorD1Ev,_ZN7daisysp14PolyOscillatorD2Ev
 203 0002 00BF     		.section	.text._ZN5daisy6Mpr121INS_18Mpr121I2CTransportEED2Ev,"axG",%progbits,_ZN5daisy6Mpr121INS_
 204              		.align	1
 205              		.p2align 2,,3
 206              		.weak	_ZN5daisy6Mpr121INS_18Mpr121I2CTransportEED2Ev
 207              		.syntax unified
 208              		.thumb
 209              		.thumb_func
 210              		.fpu fpv5-d16
 212              	_ZN5daisy6Mpr121INS_18Mpr121I2CTransportEED2Ev:
 213              	.LVL6:
 214              	.LFB5411:
 215              		.file 13 "../../libDaisy//src/dev/mpr121.h"
   1:../../libDaisy//src/dev/mpr121.h **** #pragma once
   2:../../libDaisy//src/dev/mpr121.h **** #ifndef DSY_MPR121_H
   3:../../libDaisy//src/dev/mpr121.h **** #define DSY_MPR121_H
   4:../../libDaisy//src/dev/mpr121.h **** 
   5:../../libDaisy//src/dev/mpr121.h **** // The default I2C address
   6:../../libDaisy//src/dev/mpr121.h **** #define MPR121_I2CADDR_DEFAULT 0x5A        ///< default I2C address
   7:../../libDaisy//src/dev/mpr121.h **** #define MPR121_TOUCH_THRESHOLD_DEFAULT 12  ///< default touch threshold value
   8:../../libDaisy//src/dev/mpr121.h **** #define MPR121_RELEASE_THRESHOLD_DEFAULT 6 ///< default relese threshold value
   9:../../libDaisy//src/dev/mpr121.h **** 
  10:../../libDaisy//src/dev/mpr121.h **** namespace daisy
  11:../../libDaisy//src/dev/mpr121.h **** {
  12:../../libDaisy//src/dev/mpr121.h **** /** @addtogroup external 
  13:../../libDaisy//src/dev/mpr121.h ****     @{ 
  14:../../libDaisy//src/dev/mpr121.h **** */
  15:../../libDaisy//src/dev/mpr121.h **** 
  16:../../libDaisy//src/dev/mpr121.h **** /** I2C Transport for MPR121 */
  17:../../libDaisy//src/dev/mpr121.h **** class Mpr121I2CTransport
  18:../../libDaisy//src/dev/mpr121.h **** {
  19:../../libDaisy//src/dev/mpr121.h ****   public:
  20:../../libDaisy//src/dev/mpr121.h ****     Mpr121I2CTransport() {}
  21:../../libDaisy//src/dev/mpr121.h ****     ~Mpr121I2CTransport() {}
  22:../../libDaisy//src/dev/mpr121.h **** 
  23:../../libDaisy//src/dev/mpr121.h ****     struct Config
  24:../../libDaisy//src/dev/mpr121.h ****     {
  25:../../libDaisy//src/dev/mpr121.h ****         I2CHandle::Config::Peripheral periph;
  26:../../libDaisy//src/dev/mpr121.h ****         I2CHandle::Config::Speed      speed;
  27:../../libDaisy//src/dev/mpr121.h ****         Pin                           scl;
  28:../../libDaisy//src/dev/mpr121.h ****         Pin                           sda;
  29:../../libDaisy//src/dev/mpr121.h **** 
ARM GAS  /var/folders/hl/qgbwny5j0fd895c2c41bk3tw0000gp/T//cckqgw4a.s 			page 16


  30:../../libDaisy//src/dev/mpr121.h ****         I2CHandle::Config::Mode mode;
  31:../../libDaisy//src/dev/mpr121.h **** 
  32:../../libDaisy//src/dev/mpr121.h ****         uint8_t dev_addr;
  33:../../libDaisy//src/dev/mpr121.h **** 
  34:../../libDaisy//src/dev/mpr121.h ****         Config()
  35:../../libDaisy//src/dev/mpr121.h ****         {
  36:../../libDaisy//src/dev/mpr121.h ****             periph = I2CHandle::Config::Peripheral::I2C_1;
  37:../../libDaisy//src/dev/mpr121.h ****             speed  = I2CHandle::Config::Speed::I2C_400KHZ;
  38:../../libDaisy//src/dev/mpr121.h **** 
  39:../../libDaisy//src/dev/mpr121.h ****             scl = Pin(PORTB, 8);
  40:../../libDaisy//src/dev/mpr121.h ****             sda = Pin(PORTB, 9);
  41:../../libDaisy//src/dev/mpr121.h **** 
  42:../../libDaisy//src/dev/mpr121.h ****             dev_addr = MPR121_I2CADDR_DEFAULT;
  43:../../libDaisy//src/dev/mpr121.h ****         }
  44:../../libDaisy//src/dev/mpr121.h ****     };
  45:../../libDaisy//src/dev/mpr121.h **** 
  46:../../libDaisy//src/dev/mpr121.h ****     /** \return Did the transaction error? i.e. Return true if error, false if ok */
  47:../../libDaisy//src/dev/mpr121.h ****     inline bool Init(Config config)
  48:../../libDaisy//src/dev/mpr121.h ****     {
  49:../../libDaisy//src/dev/mpr121.h ****         config_ = config;
  50:../../libDaisy//src/dev/mpr121.h **** 
  51:../../libDaisy//src/dev/mpr121.h ****         I2CHandle::Config i2c_conf;
  52:../../libDaisy//src/dev/mpr121.h ****         i2c_conf.mode   = I2CHandle::Config::Mode::I2C_MASTER;
  53:../../libDaisy//src/dev/mpr121.h ****         i2c_conf.periph = config.periph;
  54:../../libDaisy//src/dev/mpr121.h ****         i2c_conf.speed  = config.speed;
  55:../../libDaisy//src/dev/mpr121.h **** 
  56:../../libDaisy//src/dev/mpr121.h ****         i2c_conf.pin_config.scl = config.scl;
  57:../../libDaisy//src/dev/mpr121.h ****         i2c_conf.pin_config.sda = config.sda;
  58:../../libDaisy//src/dev/mpr121.h **** 
  59:../../libDaisy//src/dev/mpr121.h ****         return I2CHandle::Result::OK != i2c_.Init(i2c_conf);
  60:../../libDaisy//src/dev/mpr121.h ****     }
  61:../../libDaisy//src/dev/mpr121.h **** 
  62:../../libDaisy//src/dev/mpr121.h ****     /** \return Did the transaction error? i.e. Return true if error, false if ok */
  63:../../libDaisy//src/dev/mpr121.h ****     bool Write(uint8_t *data, uint16_t size)
  64:../../libDaisy//src/dev/mpr121.h ****     {
  65:../../libDaisy//src/dev/mpr121.h ****         return I2CHandle::Result::OK
  66:../../libDaisy//src/dev/mpr121.h ****                != i2c_.TransmitBlocking(config_.dev_addr, data, size, 10);
  67:../../libDaisy//src/dev/mpr121.h ****     }
  68:../../libDaisy//src/dev/mpr121.h **** 
  69:../../libDaisy//src/dev/mpr121.h ****     /** \return Did the transaction error? i.e. Return true if error, false if ok */
  70:../../libDaisy//src/dev/mpr121.h ****     bool Read(uint8_t *data, uint16_t size)
  71:../../libDaisy//src/dev/mpr121.h ****     {
  72:../../libDaisy//src/dev/mpr121.h ****         return I2CHandle::Result::OK
  73:../../libDaisy//src/dev/mpr121.h ****                != i2c_.ReceiveBlocking(config_.dev_addr, data, size, 10);
  74:../../libDaisy//src/dev/mpr121.h ****     }
  75:../../libDaisy//src/dev/mpr121.h **** 
  76:../../libDaisy//src/dev/mpr121.h ****   private:
  77:../../libDaisy//src/dev/mpr121.h ****     I2CHandle i2c_;
  78:../../libDaisy//src/dev/mpr121.h ****     Config    config_;
  79:../../libDaisy//src/dev/mpr121.h **** };
  80:../../libDaisy//src/dev/mpr121.h **** 
  81:../../libDaisy//src/dev/mpr121.h **** 
  82:../../libDaisy//src/dev/mpr121.h **** /** @brief Device support for MPR121 12x Capacitive Touch Sensor
  83:../../libDaisy//src/dev/mpr121.h ****     @author beserge
  84:../../libDaisy//src/dev/mpr121.h ****     @date December 2021
  85:../../libDaisy//src/dev/mpr121.h **** */
  86:../../libDaisy//src/dev/mpr121.h **** template <typename Transport>
ARM GAS  /var/folders/hl/qgbwny5j0fd895c2c41bk3tw0000gp/T//cckqgw4a.s 			page 17


  87:../../libDaisy//src/dev/mpr121.h **** class Mpr121
  88:../../libDaisy//src/dev/mpr121.h **** {
  89:../../libDaisy//src/dev/mpr121.h ****   public:
  90:../../libDaisy//src/dev/mpr121.h ****     Mpr121() {}
  91:../../libDaisy//src/dev/mpr121.h ****     ~Mpr121() {}
 216              		.loc 13 91 5 is_stmt 1 view -0
 217              		.cfi_startproc
 218              		@ args = 0, pretend = 0, frame = 0
 219              		@ frame_needed = 0, uses_anonymous_args = 0
 220              		@ link register save eliminated.
 221              	.LBB597:
 222              	.LBI597:
  21:../../libDaisy//src/dev/mpr121.h **** 
 223              		.loc 13 21 5 view .LVU25
  21:../../libDaisy//src/dev/mpr121.h **** 
 224              		.loc 13 21 5 is_stmt 0 view .LVU26
 225              	.LBE597:
 226              		.loc 13 91 16 view .LVU27
 227 0000 7047     		bx	lr
 228              		.cfi_endproc
 229              	.LFE5411:
 231              		.weak	_ZN5daisy6Mpr121INS_18Mpr121I2CTransportEED1Ev
 232              		.thumb_set _ZN5daisy6Mpr121INS_18Mpr121I2CTransportEED1Ev,_ZN5daisy6Mpr121INS_18Mpr121I2CTransport
 233 0002 00BF     		.section	.text._Z7Init121v,"ax",%progbits
 234              		.align	1
 235              		.p2align 2,,3
 236              		.global	_Z7Init121v
 237              		.syntax unified
 238              		.thumb
 239              		.thumb_func
 240              		.fpu fpv5-d16
 242              	_Z7Init121v:
 243              	.LFB4792:
 244              		.file 14 "touchEvent.h"
   1:touchEvent.h  **** #pragma once
   2:touchEvent.h  **** #ifndef TOUCHEVENT_H
   3:touchEvent.h  **** #define TOUCHEVENT_H 
   4:touchEvent.h  **** 
   5:touchEvent.h  **** #include "daisy.h"
   6:touchEvent.h  **** #include "daisy_seed.h"
   7:touchEvent.h  **** 
   8:touchEvent.h  **** extern daisy::DaisySeed hw;
   9:touchEvent.h  **** 
  10:touchEvent.h  **** using Mpr121a = daisy::Mpr121<daisy::Mpr121I2CTransport>;
  11:touchEvent.h  **** Mpr121a			touch1;
  12:touchEvent.h  **** 
  13:touchEvent.h  **** uint16_t lasttouched = 0;
  14:touchEvent.h  **** uint16_t currtouched = 0;
  15:touchEvent.h  **** int pad;
  16:touchEvent.h  **** 
  17:touchEvent.h  **** #ifndef _BV
  18:touchEvent.h  **** #define _BV(bit) (1 << (bit)) 
  19:touchEvent.h  **** #endif
  20:touchEvent.h  **** 
  21:touchEvent.h  **** void Init121(){
 245              		.loc 14 21 15 is_stmt 1 view -0
 246              		.cfi_startproc
ARM GAS  /var/folders/hl/qgbwny5j0fd895c2c41bk3tw0000gp/T//cckqgw4a.s 			page 18


 247              		@ args = 0, pretend = 0, frame = 40
 248              		@ frame_needed = 0, uses_anonymous_args = 0
  22:touchEvent.h  ****     // touch stuff
  23:touchEvent.h  **** 	Mpr121a::Config	touch_cfg;
 249              		.loc 14 23 2 view .LVU29
 250              	.LVL7:
 251              	.LBB1045:
 252              	.LBI1045:
  92:../../libDaisy//src/dev/mpr121.h **** 
  93:../../libDaisy//src/dev/mpr121.h ****     struct Config
  94:../../libDaisy//src/dev/mpr121.h ****     {
  95:../../libDaisy//src/dev/mpr121.h ****         typename Transport::Config transport_config;
  96:../../libDaisy//src/dev/mpr121.h ****         uint8_t                    touch_threshold;
  97:../../libDaisy//src/dev/mpr121.h ****         uint8_t                    release_threshold;
  98:../../libDaisy//src/dev/mpr121.h **** 
  99:../../libDaisy//src/dev/mpr121.h ****         Config()
 253              		.loc 13 99 9 view .LVU30
 254              	.LBB1046:
 255              	.LBI1046:
  34:../../libDaisy//src/dev/mpr121.h ****         {
 256              		.loc 13 34 9 view .LVU31
 257              	.LBB1047:
 258              	.LBI1047:
 259              		.file 15 "../../libDaisy//src/daisy_core.h"
   1:../../libDaisy//src/daisy_core.h **** #pragma once
   2:../../libDaisy//src/daisy_core.h **** #ifndef DSY_CORE_HW_H
   3:../../libDaisy//src/daisy_core.h **** #define DSY_CORE_HW_H /**< & */
   4:../../libDaisy//src/daisy_core.h **** #include <stdint.h>
   5:../../libDaisy//src/daisy_core.h **** #include <stdlib.h>
   6:../../libDaisy//src/daisy_core.h **** 
   7:../../libDaisy//src/daisy_core.h **** #if defined(_MSC_VER)
   8:../../libDaisy//src/daisy_core.h **** #define FORCE_INLINE __forceinline /**< & */
   9:../../libDaisy//src/daisy_core.h **** #elif defined(__clang__)
  10:../../libDaisy//src/daisy_core.h **** #define FORCE_INLINE inline __attribute__((always_inline)) /**< & */
  11:../../libDaisy//src/daisy_core.h **** #pragma clang diagnostic ignored "-Wduplicate-decl-specifier"
  12:../../libDaisy//src/daisy_core.h **** #elif defined(__GNUC__)
  13:../../libDaisy//src/daisy_core.h **** #define FORCE_INLINE inline __attribute__((always_inline)) /**< & */
  14:../../libDaisy//src/daisy_core.h **** #else
  15:../../libDaisy//src/daisy_core.h **** #error unknown compiler
  16:../../libDaisy//src/daisy_core.h **** #endif
  17:../../libDaisy//src/daisy_core.h **** 
  18:../../libDaisy//src/daisy_core.h **** /** @addtogroup utility
  19:../../libDaisy//src/daisy_core.h ****     @{
  20:../../libDaisy//src/daisy_core.h **** */
  21:../../libDaisy//src/daisy_core.h **** 
  22:../../libDaisy//src/daisy_core.h **** /** Macro for area of memory that is configured as cacheless
  23:../../libDaisy//src/daisy_core.h **** This should be used primarily for DMA buffers, and the like.
  24:../../libDaisy//src/daisy_core.h **** */
  25:../../libDaisy//src/daisy_core.h **** #define DMA_BUFFER_MEM_SECTION __attribute__((section(".sram1_bss")))
  26:../../libDaisy//src/daisy_core.h **** /** 
  27:../../libDaisy//src/daisy_core.h **** THE DTCM RAM section is also non-cached. However, is not suitable 
  28:../../libDaisy//src/daisy_core.h **** for DMA transfers. Performance is on par with internal SRAM w/ 
  29:../../libDaisy//src/daisy_core.h **** cache enabled.
  30:../../libDaisy//src/daisy_core.h **** */
  31:../../libDaisy//src/daisy_core.h **** #define DTCM_MEM_SECTION __attribute__((section(".dtcmram_bss")))
  32:../../libDaisy//src/daisy_core.h **** 
  33:../../libDaisy//src/daisy_core.h **** #define FBIPMAX 0.999985f             /**< close to 1.0f-LSB at 16 bit */
ARM GAS  /var/folders/hl/qgbwny5j0fd895c2c41bk3tw0000gp/T//cckqgw4a.s 			page 19


  34:../../libDaisy//src/daisy_core.h **** #define FBIPMIN (-FBIPMAX)            /**< - (1 - LSB) */
  35:../../libDaisy//src/daisy_core.h **** #define U82F_SCALE 0.0078740f         /**< 1 / 127 */
  36:../../libDaisy//src/daisy_core.h **** #define F2U8_SCALE 127.0f             /**< 128 - 1 */
  37:../../libDaisy//src/daisy_core.h **** #define S82F_SCALE 0.0078125f         /**< 1 / (2**7) */
  38:../../libDaisy//src/daisy_core.h **** #define F2S8_SCALE 127.0f             /**< (2 ** 7) - 1 */
  39:../../libDaisy//src/daisy_core.h **** #define S162F_SCALE 3.0517578125e-05f /**< 1 / (2** 15) */
  40:../../libDaisy//src/daisy_core.h **** #define F2S16_SCALE 32767.0f          /**< (2 ** 15) - 1 */
  41:../../libDaisy//src/daisy_core.h **** #define F2S24_SCALE 8388608.0f        /**< 2 ** 23 */
  42:../../libDaisy//src/daisy_core.h **** #define S242F_SCALE 1.192092896e-07f  /**< 1 / (2 ** 23) */
  43:../../libDaisy//src/daisy_core.h **** #define S24SIGN 0x800000              /**< 2 ** 23 */
  44:../../libDaisy//src/daisy_core.h **** #define S322F_SCALE 4.6566129e-10f    /**< 1 / (2** 31) */
  45:../../libDaisy//src/daisy_core.h **** #define F2S32_SCALE 2147483647.f      /**< (2 ** 31) - 1 */
  46:../../libDaisy//src/daisy_core.h **** 
  47:../../libDaisy//src/daisy_core.h **** 
  48:../../libDaisy//src/daisy_core.h **** /** shorthand macro for simplifying the reading of the left 
  49:../../libDaisy//src/daisy_core.h ****  *  channel of a non-interleaved output buffer named out */
  50:../../libDaisy//src/daisy_core.h **** #define OUT_L out[0]
  51:../../libDaisy//src/daisy_core.h **** 
  52:../../libDaisy//src/daisy_core.h **** /** shorthand macro for simplifying the reading of the right 
  53:../../libDaisy//src/daisy_core.h ****  *  channel of a non-interleaved output buffer named out */
  54:../../libDaisy//src/daisy_core.h **** #define OUT_R out[1]
  55:../../libDaisy//src/daisy_core.h **** 
  56:../../libDaisy//src/daisy_core.h **** /** shorthand macro for simplifying the reading of the left 
  57:../../libDaisy//src/daisy_core.h ****  *  channel of a non-interleaved input buffer named in */
  58:../../libDaisy//src/daisy_core.h **** #define IN_L in[0]
  59:../../libDaisy//src/daisy_core.h **** 
  60:../../libDaisy//src/daisy_core.h **** /** shorthand macro for simplifying the reading of the right 
  61:../../libDaisy//src/daisy_core.h ****  *  channel of a non-interleaved input buffer named in */
  62:../../libDaisy//src/daisy_core.h **** #define IN_R in[1]
  63:../../libDaisy//src/daisy_core.h **** 
  64:../../libDaisy//src/daisy_core.h **** /** 
  65:../../libDaisy//src/daisy_core.h ****     Computes cube.
  66:../../libDaisy//src/daisy_core.h ****     \param x Number to be cubed
  67:../../libDaisy//src/daisy_core.h ****     \return x ^ 3
  68:../../libDaisy//src/daisy_core.h **** */
  69:../../libDaisy//src/daisy_core.h **** FORCE_INLINE float cube(float x)
  70:../../libDaisy//src/daisy_core.h **** {
  71:../../libDaisy//src/daisy_core.h ****     return (x * x) * x;
  72:../../libDaisy//src/daisy_core.h **** }
  73:../../libDaisy//src/daisy_core.h **** 
  74:../../libDaisy//src/daisy_core.h **** /** 
  75:../../libDaisy//src/daisy_core.h ****     Converts unsigned 8-bit to float
  76:../../libDaisy//src/daisy_core.h ****     \param x Number to be scaled.
  77:../../libDaisy//src/daisy_core.h ****     \return Scaled number.
  78:../../libDaisy//src/daisy_core.h **** */
  79:../../libDaisy//src/daisy_core.h **** FORCE_INLINE float u82f(uint8_t x)
  80:../../libDaisy//src/daisy_core.h **** {
  81:../../libDaisy//src/daisy_core.h ****     return ((float)x - 127.f) * U82F_SCALE;
  82:../../libDaisy//src/daisy_core.h **** }
  83:../../libDaisy//src/daisy_core.h **** 
  84:../../libDaisy//src/daisy_core.h **** /**
  85:../../libDaisy//src/daisy_core.h ****     Converts float to unsigned 8-bit
  86:../../libDaisy//src/daisy_core.h **** */
  87:../../libDaisy//src/daisy_core.h **** FORCE_INLINE uint8_t f2u8(float x)
  88:../../libDaisy//src/daisy_core.h **** {
  89:../../libDaisy//src/daisy_core.h ****     x = x <= FBIPMIN ? FBIPMIN : x;
  90:../../libDaisy//src/daisy_core.h ****     x = x >= FBIPMAX ? FBIPMAX : x;
ARM GAS  /var/folders/hl/qgbwny5j0fd895c2c41bk3tw0000gp/T//cckqgw4a.s 			page 20


  91:../../libDaisy//src/daisy_core.h ****     return (uint8_t)((x * F2U8_SCALE) + F2U8_SCALE);
  92:../../libDaisy//src/daisy_core.h **** }
  93:../../libDaisy//src/daisy_core.h **** 
  94:../../libDaisy//src/daisy_core.h **** 
  95:../../libDaisy//src/daisy_core.h **** /** 
  96:../../libDaisy//src/daisy_core.h ****     Converts Signed 8-bit to float
  97:../../libDaisy//src/daisy_core.h ****     \param x Number to be scaled.
  98:../../libDaisy//src/daisy_core.h ****     \return Scaled number.
  99:../../libDaisy//src/daisy_core.h **** */
 100:../../libDaisy//src/daisy_core.h **** FORCE_INLINE float s82f(int8_t x)
 101:../../libDaisy//src/daisy_core.h **** {
 102:../../libDaisy//src/daisy_core.h ****     return (float)x * S82F_SCALE;
 103:../../libDaisy//src/daisy_core.h **** }
 104:../../libDaisy//src/daisy_core.h **** 
 105:../../libDaisy//src/daisy_core.h **** /**
 106:../../libDaisy//src/daisy_core.h ****     Converts float to Signed 8-bit
 107:../../libDaisy//src/daisy_core.h **** */
 108:../../libDaisy//src/daisy_core.h **** FORCE_INLINE int8_t f2s8(float x)
 109:../../libDaisy//src/daisy_core.h **** {
 110:../../libDaisy//src/daisy_core.h ****     x = x <= FBIPMIN ? FBIPMIN : x;
 111:../../libDaisy//src/daisy_core.h ****     x = x >= FBIPMAX ? FBIPMAX : x;
 112:../../libDaisy//src/daisy_core.h ****     return (int32_t)(x * F2S8_SCALE);
 113:../../libDaisy//src/daisy_core.h **** }
 114:../../libDaisy//src/daisy_core.h **** 
 115:../../libDaisy//src/daisy_core.h **** /** 
 116:../../libDaisy//src/daisy_core.h ****     Converts Signed 16-bit to float
 117:../../libDaisy//src/daisy_core.h ****     \param x Number to be scaled.
 118:../../libDaisy//src/daisy_core.h ****     \return Scaled number.
 119:../../libDaisy//src/daisy_core.h **** */
 120:../../libDaisy//src/daisy_core.h **** FORCE_INLINE float s162f(int16_t x)
 121:../../libDaisy//src/daisy_core.h **** {
 122:../../libDaisy//src/daisy_core.h ****     return (float)x * S162F_SCALE;
 123:../../libDaisy//src/daisy_core.h **** }
 124:../../libDaisy//src/daisy_core.h **** 
 125:../../libDaisy//src/daisy_core.h **** /**
 126:../../libDaisy//src/daisy_core.h ****     Converts float to Signed 16-bit
 127:../../libDaisy//src/daisy_core.h **** */
 128:../../libDaisy//src/daisy_core.h **** FORCE_INLINE int16_t f2s16(float x)
 129:../../libDaisy//src/daisy_core.h **** {
 130:../../libDaisy//src/daisy_core.h ****     x = x <= FBIPMIN ? FBIPMIN : x;
 131:../../libDaisy//src/daisy_core.h ****     x = x >= FBIPMAX ? FBIPMAX : x;
 132:../../libDaisy//src/daisy_core.h ****     return (int32_t)(x * F2S16_SCALE);
 133:../../libDaisy//src/daisy_core.h **** }
 134:../../libDaisy//src/daisy_core.h **** 
 135:../../libDaisy//src/daisy_core.h **** /**
 136:../../libDaisy//src/daisy_core.h ****     Converts Signed 24-bit to float
 137:../../libDaisy//src/daisy_core.h ****  */
 138:../../libDaisy//src/daisy_core.h **** FORCE_INLINE float s242f(int32_t x)
 139:../../libDaisy//src/daisy_core.h **** {
 140:../../libDaisy//src/daisy_core.h ****     x = (x ^ S24SIGN) - S24SIGN; //sign extend aka ((x<<8)>>8)
 141:../../libDaisy//src/daisy_core.h ****     return (float)x * S242F_SCALE;
 142:../../libDaisy//src/daisy_core.h **** }
 143:../../libDaisy//src/daisy_core.h **** /**
 144:../../libDaisy//src/daisy_core.h ****     Converts float to Signed 24-bit
 145:../../libDaisy//src/daisy_core.h ****  */
 146:../../libDaisy//src/daisy_core.h **** FORCE_INLINE int32_t f2s24(float x)
 147:../../libDaisy//src/daisy_core.h **** {
ARM GAS  /var/folders/hl/qgbwny5j0fd895c2c41bk3tw0000gp/T//cckqgw4a.s 			page 21


 148:../../libDaisy//src/daisy_core.h ****     x = x <= FBIPMIN ? FBIPMIN : x;
 149:../../libDaisy//src/daisy_core.h ****     x = x >= FBIPMAX ? FBIPMAX : x;
 150:../../libDaisy//src/daisy_core.h ****     return (int32_t)(x * F2S24_SCALE);
 151:../../libDaisy//src/daisy_core.h **** }
 152:../../libDaisy//src/daisy_core.h **** 
 153:../../libDaisy//src/daisy_core.h **** /**
 154:../../libDaisy//src/daisy_core.h ****     Converts Signed 32-bit to float
 155:../../libDaisy//src/daisy_core.h ****  */
 156:../../libDaisy//src/daisy_core.h **** FORCE_INLINE float s322f(int32_t x)
 157:../../libDaisy//src/daisy_core.h **** {
 158:../../libDaisy//src/daisy_core.h ****     return (float)x * S322F_SCALE;
 159:../../libDaisy//src/daisy_core.h **** }
 160:../../libDaisy//src/daisy_core.h **** /**
 161:../../libDaisy//src/daisy_core.h ****     Converts float to Signed 24-bit
 162:../../libDaisy//src/daisy_core.h ****  */
 163:../../libDaisy//src/daisy_core.h **** FORCE_INLINE int32_t f2s32(float x)
 164:../../libDaisy//src/daisy_core.h **** {
 165:../../libDaisy//src/daisy_core.h ****     x = x <= FBIPMIN ? FBIPMIN : x;
 166:../../libDaisy//src/daisy_core.h ****     x = x >= FBIPMAX ? FBIPMAX : x;
 167:../../libDaisy//src/daisy_core.h ****     return (int32_t)(x * F2S32_SCALE);
 168:../../libDaisy//src/daisy_core.h **** }
 169:../../libDaisy//src/daisy_core.h **** 
 170:../../libDaisy//src/daisy_core.h **** 
 171:../../libDaisy//src/daisy_core.h **** /** Enums and a simple struct for defining a hardware pin on the MCU
 172:../../libDaisy//src/daisy_core.h ****  *  These correlate with the stm32 datasheet, and are used to configure
 173:../../libDaisy//src/daisy_core.h ****  *  the hardware.
 174:../../libDaisy//src/daisy_core.h ****  * 
 175:../../libDaisy//src/daisy_core.h ****  *  This along with the dsy_gpio_pin class should no longer be used.
 176:../../libDaisy//src/daisy_core.h ****  *  They are available for backwards compatability. 
 177:../../libDaisy//src/daisy_core.h ****  * 
 178:../../libDaisy//src/daisy_core.h ****  *  Please use GPIOPort enum and the Pin struct instead.
 179:../../libDaisy//src/daisy_core.h ****  */
 180:../../libDaisy//src/daisy_core.h **** typedef enum
 181:../../libDaisy//src/daisy_core.h **** {
 182:../../libDaisy//src/daisy_core.h ****     DSY_GPIOA, /**< & */
 183:../../libDaisy//src/daisy_core.h ****     DSY_GPIOB, /**< & */
 184:../../libDaisy//src/daisy_core.h ****     DSY_GPIOC, /**< & */
 185:../../libDaisy//src/daisy_core.h ****     DSY_GPIOD, /**< & */
 186:../../libDaisy//src/daisy_core.h ****     DSY_GPIOE, /**< & */
 187:../../libDaisy//src/daisy_core.h ****     DSY_GPIOF, /**< & */
 188:../../libDaisy//src/daisy_core.h ****     DSY_GPIOG, /**< & */
 189:../../libDaisy//src/daisy_core.h ****     DSY_GPIOH, /**< & */
 190:../../libDaisy//src/daisy_core.h ****     DSY_GPIOI, /**< & */
 191:../../libDaisy//src/daisy_core.h ****     DSY_GPIOJ, /**< & */
 192:../../libDaisy//src/daisy_core.h ****     DSY_GPIOK, /**< & */
 193:../../libDaisy//src/daisy_core.h ****     DSY_GPIOX, /** This is a non-existant port for unsupported bits of hardware. */
 194:../../libDaisy//src/daisy_core.h ****     DSY_GPIO_LAST, /** Final enum member */
 195:../../libDaisy//src/daisy_core.h **** } dsy_gpio_port;
 196:../../libDaisy//src/daisy_core.h **** 
 197:../../libDaisy//src/daisy_core.h **** /** Hardware define pins 
 198:../../libDaisy//src/daisy_core.h ****  *  
 199:../../libDaisy//src/daisy_core.h ****  *  The dsy_gpio_pin struct should no longer be used, and is only available for
 200:../../libDaisy//src/daisy_core.h ****  *  backwards compatability.
 201:../../libDaisy//src/daisy_core.h ****  * 
 202:../../libDaisy//src/daisy_core.h ****  *  Please use Pin struct instead.
 203:../../libDaisy//src/daisy_core.h ****  */
 204:../../libDaisy//src/daisy_core.h **** typedef struct
ARM GAS  /var/folders/hl/qgbwny5j0fd895c2c41bk3tw0000gp/T//cckqgw4a.s 			page 22


 205:../../libDaisy//src/daisy_core.h **** {
 206:../../libDaisy//src/daisy_core.h ****     dsy_gpio_port port; /**< & */
 207:../../libDaisy//src/daisy_core.h ****     uint8_t       pin;  /**< number 0-15 */
 208:../../libDaisy//src/daisy_core.h **** } dsy_gpio_pin;
 209:../../libDaisy//src/daisy_core.h **** 
 210:../../libDaisy//src/daisy_core.h **** /** Helper for creating pins from port/pin combos easily
 211:../../libDaisy//src/daisy_core.h ****  * 
 212:../../libDaisy//src/daisy_core.h ****  *  The dsy_gpio_pin struct should no longer be used, and is only available for
 213:../../libDaisy//src/daisy_core.h ****  *  backwards compatability.
 214:../../libDaisy//src/daisy_core.h ****  * 
 215:../../libDaisy//src/daisy_core.h ****  *  Please use Pin struct instead.
 216:../../libDaisy//src/daisy_core.h **** */
 217:../../libDaisy//src/daisy_core.h **** FORCE_INLINE dsy_gpio_pin dsy_pin(dsy_gpio_port port, uint8_t pin)
 218:../../libDaisy//src/daisy_core.h **** {
 219:../../libDaisy//src/daisy_core.h ****     dsy_gpio_pin p;
 220:../../libDaisy//src/daisy_core.h ****     p.port = port;
 221:../../libDaisy//src/daisy_core.h ****     p.pin  = pin;
 222:../../libDaisy//src/daisy_core.h ****     return p;
 223:../../libDaisy//src/daisy_core.h **** }
 224:../../libDaisy//src/daisy_core.h **** 
 225:../../libDaisy//src/daisy_core.h **** /** Helper for testing sameness of two dsy_gpio_pins
 226:../../libDaisy//src/daisy_core.h ****  *  \return    1 if same, 0 if different
 227:../../libDaisy//src/daisy_core.h ****  * 
 228:../../libDaisy//src/daisy_core.h ****  *  The dsy_gpio_pin struct should no longer be used, and is only available for
 229:../../libDaisy//src/daisy_core.h ****  *  backwards compatability.
 230:../../libDaisy//src/daisy_core.h ****  * 
 231:../../libDaisy//src/daisy_core.h ****  *  Please use Pin struct instead.
 232:../../libDaisy//src/daisy_core.h ****  */
 233:../../libDaisy//src/daisy_core.h **** FORCE_INLINE uint8_t dsy_pin_cmp(dsy_gpio_pin *a, dsy_gpio_pin *b)
 234:../../libDaisy//src/daisy_core.h **** {
 235:../../libDaisy//src/daisy_core.h ****     return ((a->port == b->port) && (a->pin == b->pin));
 236:../../libDaisy//src/daisy_core.h **** }
 237:../../libDaisy//src/daisy_core.h **** 
 238:../../libDaisy//src/daisy_core.h **** #ifdef __cplusplus
 239:../../libDaisy//src/daisy_core.h **** 
 240:../../libDaisy//src/daisy_core.h **** namespace daisy
 241:../../libDaisy//src/daisy_core.h **** {
 242:../../libDaisy//src/daisy_core.h **** /** @brief GPIO Port names */
 243:../../libDaisy//src/daisy_core.h **** enum GPIOPort
 244:../../libDaisy//src/daisy_core.h **** {
 245:../../libDaisy//src/daisy_core.h ****     PORTA, /**< Port A */
 246:../../libDaisy//src/daisy_core.h ****     PORTB, /**< Port B */
 247:../../libDaisy//src/daisy_core.h ****     PORTC, /**< Port C */
 248:../../libDaisy//src/daisy_core.h ****     PORTD, /**< Port D */
 249:../../libDaisy//src/daisy_core.h ****     PORTE, /**< Port E */
 250:../../libDaisy//src/daisy_core.h ****     PORTF, /**< Port F */
 251:../../libDaisy//src/daisy_core.h ****     PORTG, /**< Port G */
 252:../../libDaisy//src/daisy_core.h ****     PORTH, /**< Port H */
 253:../../libDaisy//src/daisy_core.h ****     PORTI, /**< Port I */
 254:../../libDaisy//src/daisy_core.h ****     PORTJ, /**< Port J */
 255:../../libDaisy//src/daisy_core.h ****     PORTK, /**< Port K */
 256:../../libDaisy//src/daisy_core.h ****     PORTX, /**< Used as a dummy port to signal an invalid pin. */
 257:../../libDaisy//src/daisy_core.h **** };
 258:../../libDaisy//src/daisy_core.h **** 
 259:../../libDaisy//src/daisy_core.h **** /** @brief representation of hardware port/pin combination */
 260:../../libDaisy//src/daisy_core.h **** struct Pin
 261:../../libDaisy//src/daisy_core.h **** {
ARM GAS  /var/folders/hl/qgbwny5j0fd895c2c41bk3tw0000gp/T//cckqgw4a.s 			page 23


 262:../../libDaisy//src/daisy_core.h ****     GPIOPort port;
 263:../../libDaisy//src/daisy_core.h ****     uint8_t  pin;
 264:../../libDaisy//src/daisy_core.h **** 
 265:../../libDaisy//src/daisy_core.h ****     /** @brief Constructor creates a valid pin. 
 266:../../libDaisy//src/daisy_core.h ****      *  @param pt GPIOPort between PA, and PK corresponding to STM32 Port.
 267:../../libDaisy//src/daisy_core.h ****      *  @param pn pin number in range of 0-15
 268:../../libDaisy//src/daisy_core.h ****     */
 269:../../libDaisy//src/daisy_core.h ****     constexpr Pin(const GPIOPort pt, const uint8_t pn) : port(pt), pin(pn) {}
 270:../../libDaisy//src/daisy_core.h **** 
 271:../../libDaisy//src/daisy_core.h ****     /** @brief Basic Constructor creates an invalid Pin object */
 272:../../libDaisy//src/daisy_core.h ****     constexpr Pin() : port(PORTX), pin(255) {}
 260              		.loc 15 272 15 view .LVU32
 261              		.loc 15 272 15 is_stmt 0 view .LVU33
 262              	.LBE1047:
 263              	.LBB1048:
 264              	.LBI1048:
 265              		.loc 15 272 15 is_stmt 1 view .LVU34
 266              		.loc 15 272 15 is_stmt 0 view .LVU35
 267              	.LBE1048:
 268              	.LBE1046:
 269              	.LBE1045:
  36:../../libDaisy//src/dev/mpr121.h ****             speed  = I2CHandle::Config::Speed::I2C_400KHZ;
 270              		.loc 13 36 13 is_stmt 1 view .LVU36
  37:../../libDaisy//src/dev/mpr121.h **** 
 271              		.loc 13 37 13 view .LVU37
  39:../../libDaisy//src/dev/mpr121.h ****             sda = Pin(PORTB, 9);
 272              		.loc 13 39 13 view .LVU38
 273              	.LBB1053:
 274              	.LBB1051:
 275              	.LBB1049:
 276              	.LBI1049:
 269:../../libDaisy//src/daisy_core.h **** 
 277              		.loc 15 269 15 view .LVU39
 269:../../libDaisy//src/daisy_core.h **** 
 278              		.loc 15 269 15 is_stmt 0 view .LVU40
 279              	.LBE1049:
 280              	.LBE1051:
 281              	.LBE1053:
  40:../../libDaisy//src/dev/mpr121.h **** 
 282              		.loc 13 40 13 is_stmt 1 view .LVU41
 283              	.LBB1054:
 284              	.LBB1052:
 285              	.LBB1050:
 286              	.LBI1050:
 269:../../libDaisy//src/daisy_core.h **** 
 287              		.loc 15 269 15 view .LVU42
 269:../../libDaisy//src/daisy_core.h **** 
 288              		.loc 15 269 15 is_stmt 0 view .LVU43
 289              	.LBE1050:
 290              	.LBE1052:
 291              	.LBE1054:
  42:../../libDaisy//src/dev/mpr121.h ****         }
 292              		.loc 13 42 13 is_stmt 1 view .LVU44
  24:touchEvent.h  **** 	touch1.Init(touch_cfg);
 293              		.loc 14 24 2 view .LVU45
 294              	.LBB1055:
 295              	.LBI1055:
ARM GAS  /var/folders/hl/qgbwny5j0fd895c2c41bk3tw0000gp/T//cckqgw4a.s 			page 24


 100:../../libDaisy//src/dev/mpr121.h ****         {
 101:../../libDaisy//src/dev/mpr121.h ****             touch_threshold   = MPR121_TOUCH_THRESHOLD_DEFAULT;
 102:../../libDaisy//src/dev/mpr121.h ****             release_threshold = MPR121_RELEASE_THRESHOLD_DEFAULT;
 103:../../libDaisy//src/dev/mpr121.h ****         }
 104:../../libDaisy//src/dev/mpr121.h ****     };
 105:../../libDaisy//src/dev/mpr121.h **** 
 106:../../libDaisy//src/dev/mpr121.h ****     enum Result
 107:../../libDaisy//src/dev/mpr121.h ****     {
 108:../../libDaisy//src/dev/mpr121.h ****         OK = 0,
 109:../../libDaisy//src/dev/mpr121.h ****         ERR
 110:../../libDaisy//src/dev/mpr121.h ****     };
 111:../../libDaisy//src/dev/mpr121.h **** 
 112:../../libDaisy//src/dev/mpr121.h ****     /** Initialize the MPR121 device
 113:../../libDaisy//src/dev/mpr121.h ****         \param config Configuration settings
 114:../../libDaisy//src/dev/mpr121.h ****     */
 115:../../libDaisy//src/dev/mpr121.h ****     Result Init(Config config)
 296              		.loc 13 115 12 view .LVU46
 297              	.LBE1055:
  21:touchEvent.h  ****     // touch stuff
 298              		.loc 14 21 15 is_stmt 0 view .LVU47
 299 0000 2DE9F04F 		push	{r4, r5, r6, r7, r8, r9, r10, fp, lr}
 300              		.cfi_def_cfa_offset 36
 301              		.cfi_offset 4, -36
 302              		.cfi_offset 5, -32
 303              		.cfi_offset 6, -28
 304              		.cfi_offset 7, -24
 305              		.cfi_offset 8, -20
 306              		.cfi_offset 9, -16
 307              		.cfi_offset 10, -12
 308              		.cfi_offset 11, -8
 309              		.cfi_offset 14, -4
 310              	.LBB2415:
 311              	.LBB1056:
 116:../../libDaisy//src/dev/mpr121.h ****     {
 117:../../libDaisy//src/dev/mpr121.h ****         config_ = config;
 312              		.loc 13 117 9 view .LVU48
 313 0004 C94B     		ldr	r3, .L13
 314              	.LBE1056:
 315              	.LBE2415:
  21:touchEvent.h  ****     // touch stuff
 316              		.loc 14 21 15 view .LVU49
 317 0006 8DB0     		sub	sp, sp, #52
 318              		.cfi_def_cfa_offset 88
 319              	.LBB2416:
 320              	.LBB2412:
 321              		.loc 13 117 9 view .LVU50
 322 0008 C94C     		ldr	r4, .L13+4
 323 000a 4FF00008 		mov	r8, #0
 324              	.LBB1057:
 325              	.LBB1058:
  56:../../libDaisy//src/dev/mpr121.h ****         i2c_conf.pin_config.sda = config.sda;
 326              		.loc 13 56 42 view .LVU51
 327 000e 0893     		str	r3, [sp, #32]
 328              	.LBE1058:
 329              	.LBE1057:
 330              		.loc 13 117 9 view .LVU52
 331 0010 0126     		movs	r6, #1
ARM GAS  /var/folders/hl/qgbwny5j0fd895c2c41bk3tw0000gp/T//cckqgw4a.s 			page 25


 332 0012 A360     		str	r3, [r4, #8]
 333 0014 40F20C63 		movw	r3, #1548
 334 0018 5A22     		movs	r2, #90
 335 001a A246     		mov	r10, r4
 336 001c A382     		strh	r3, [r4, #20]	@ movhi
 337              	.LVL8:
 338              	.LBB1069:
 339              	.LBB1064:
 340              	.LBB1059:
 341              	.LBB1060:
 342              		.file 16 "../../libDaisy//src/per/i2c.h"
   1:../../libDaisy//src/per/i2c.h **** #pragma once
   2:../../libDaisy//src/per/i2c.h **** #include "daisy_core.h"
   3:../../libDaisy//src/per/i2c.h **** 
   4:../../libDaisy//src/per/i2c.h **** namespace daisy
   5:../../libDaisy//src/per/i2c.h **** {
   6:../../libDaisy//src/per/i2c.h **** /** A handle for interacting with an I2C peripheral. This is a dumb
   7:../../libDaisy//src/per/i2c.h ****  *  gateway that internally points to one of the four I2C peripherals
   8:../../libDaisy//src/per/i2c.h ****  *  after it was initialised. It can then be copied and passed around.
   9:../../libDaisy//src/per/i2c.h ****  *  Use an I2CHandle like this:
  10:../../libDaisy//src/per/i2c.h ****  *  
  11:../../libDaisy//src/per/i2c.h ****  *      // setup the configuration
  12:../../libDaisy//src/per/i2c.h ****  *      I2CHandle::Config i2c_conf;
  13:../../libDaisy//src/per/i2c.h ****  *      i2c_conf.periph = I2CHandle::Config::Peripheral::I2C_1;
  14:../../libDaisy//src/per/i2c.h ****  *      i2c_conf.speed  = I2CHandle::Config::Speed::I2C_400KHZ;
  15:../../libDaisy//src/per/i2c.h ****  *      i2c_conf.mode   = I2CHandle::Config::Mode::Master;
  16:../../libDaisy//src/per/i2c.h ****  *      i2c_conf.pin_config.scl  = {DSY_GPIOB, 8};
  17:../../libDaisy//src/per/i2c.h ****  *      i2c_conf.pin_config.sda  = {DSY_GPIOB, 9};
  18:../../libDaisy//src/per/i2c.h ****  *      // initialise the peripheral
  19:../../libDaisy//src/per/i2c.h ****  *      I2CHandle i2c;
  20:../../libDaisy//src/per/i2c.h ****  *      i2c.Init(i2c_conf);
  21:../../libDaisy//src/per/i2c.h ****  *      // now i2c points to the corresponding peripheral and can be used.
  22:../../libDaisy//src/per/i2c.h ****  *      i2c.TransmitBlocking( ... );
  23:../../libDaisy//src/per/i2c.h ****  */
  24:../../libDaisy//src/per/i2c.h **** class I2CHandle
  25:../../libDaisy//src/per/i2c.h **** {
  26:../../libDaisy//src/per/i2c.h ****   public:
  27:../../libDaisy//src/per/i2c.h ****     /** Contains settings for initialising an I2C interface. */
  28:../../libDaisy//src/per/i2c.h ****     struct Config
 343              		.loc 16 28 12 view .LVU53
 344 001e 1023     		movs	r3, #16
 345              	.LBE1060:
 346              	.LBE1059:
 347              	.LBE1064:
 348              	.LBE1069:
 349              		.loc 13 117 9 view .LVU54
 350 0020 2274     		strb	r2, [r4, #16]
 351 0022 0DF1080E 		add	lr, sp, #8
 352              	.LBB1070:
 353              	.LBB1065:
 354              	.LBB1062:
 355              	.LBB1061:
 356              		.loc 16 28 12 view .LVU55
 357 0026 8DF82C30 		strb	r3, [sp, #44]
 358              	.LBE1061:
 359              	.LBE1062:
  49:../../libDaisy//src/dev/mpr121.h **** 
ARM GAS  /var/folders/hl/qgbwny5j0fd895c2c41bk3tw0000gp/T//cckqgw4a.s 			page 26


 360              		.loc 13 49 17 view .LVU56
 361 002a 04F11C0C 		add	ip, r4, #28
 362 002e F346     		mov	fp, lr
  53:../../libDaisy//src/dev/mpr121.h ****         i2c_conf.speed  = config.speed;
 363              		.loc 13 53 25 view .LVU57
 364 0030 CDF81C80 		str	r8, [sp, #28]
 365              	.LBE1065:
 366              	.LBE1070:
 367              	.LBB1071:
 368              	.LBB1072:
 369              	.LBB1073:
 370              	.LBB1074:
  66:../../libDaisy//src/dev/mpr121.h ****     }
 371              		.loc 13 66 40 view .LVU58
 372 0034 0A25     		movs	r5, #10
 373              	.LBE1074:
 374              	.LBE1073:
 118:../../libDaisy//src/dev/mpr121.h **** 
 119:../../libDaisy//src/dev/mpr121.h ****         SetTransportErr(transport_.Init(config_.transport_config));
 120:../../libDaisy//src/dev/mpr121.h **** 
 121:../../libDaisy//src/dev/mpr121.h ****         // soft reset
 122:../../libDaisy//src/dev/mpr121.h ****         WriteRegister(MPR121_SOFTRESET, 0x63);
 123:../../libDaisy//src/dev/mpr121.h ****         System::Delay(1);
 124:../../libDaisy//src/dev/mpr121.h **** 
 125:../../libDaisy//src/dev/mpr121.h ****         WriteRegister(MPR121_ECR, 0x0);
 126:../../libDaisy//src/dev/mpr121.h **** 
 127:../../libDaisy//src/dev/mpr121.h ****         // this doesn't work for some reason...
 128:../../libDaisy//src/dev/mpr121.h ****         // uint8_t c = ReadRegister8(MPR121_CONFIG2);
 129:../../libDaisy//src/dev/mpr121.h **** 
 130:../../libDaisy//src/dev/mpr121.h ****         // if(c != 0x24)
 131:../../libDaisy//src/dev/mpr121.h ****         //     return ERR;
 132:../../libDaisy//src/dev/mpr121.h **** 
 133:../../libDaisy//src/dev/mpr121.h ****         SetThresholds(config_.touch_threshold, config_.release_threshold);
 134:../../libDaisy//src/dev/mpr121.h ****         WriteRegister(MPR121_MHDR, 0x01);
 135:../../libDaisy//src/dev/mpr121.h ****         WriteRegister(MPR121_NHDR, 0x01);
 136:../../libDaisy//src/dev/mpr121.h ****         WriteRegister(MPR121_NCLR, 0x0E);
 137:../../libDaisy//src/dev/mpr121.h ****         WriteRegister(MPR121_FDLR, 0x00);
 138:../../libDaisy//src/dev/mpr121.h **** 
 139:../../libDaisy//src/dev/mpr121.h ****         WriteRegister(MPR121_MHDF, 0x01);
 140:../../libDaisy//src/dev/mpr121.h ****         WriteRegister(MPR121_NHDF, 0x05);
 141:../../libDaisy//src/dev/mpr121.h ****         WriteRegister(MPR121_NCLF, 0x01);
 142:../../libDaisy//src/dev/mpr121.h ****         WriteRegister(MPR121_FDLF, 0x00);
 143:../../libDaisy//src/dev/mpr121.h **** 
 144:../../libDaisy//src/dev/mpr121.h ****         WriteRegister(MPR121_NHDT, 0x00);
 145:../../libDaisy//src/dev/mpr121.h ****         WriteRegister(MPR121_NCLT, 0x00);
 146:../../libDaisy//src/dev/mpr121.h ****         WriteRegister(MPR121_FDLT, 0x00);
 147:../../libDaisy//src/dev/mpr121.h **** 
 148:../../libDaisy//src/dev/mpr121.h ****         WriteRegister(MPR121_DEBOUNCE, 0);
 149:../../libDaisy//src/dev/mpr121.h ****         WriteRegister(MPR121_CONFIG1, 0x10); // default, 16uA charge current
 150:../../libDaisy//src/dev/mpr121.h ****         WriteRegister(MPR121_CONFIG2, 0x20); // 0.5uS encoding, 1ms period
 151:../../libDaisy//src/dev/mpr121.h **** 
 152:../../libDaisy//src/dev/mpr121.h ****         // autoconfig
 153:../../libDaisy//src/dev/mpr121.h ****         // WriteRegister(MPR121_AUTOCONFIG0, 0x0B);
 154:../../libDaisy//src/dev/mpr121.h **** 
 155:../../libDaisy//src/dev/mpr121.h ****         // correct values for Vdd = 3.3V
 156:../../libDaisy//src/dev/mpr121.h ****         // WriteRegister(MPR121_UPLIMIT, 200);     // ((Vdd - 0.7)/Vdd) * 256
 157:../../libDaisy//src/dev/mpr121.h ****         // WriteRegister(MPR121_TARGETLIMIT, 180); // UPLIMIT * 0.9
ARM GAS  /var/folders/hl/qgbwny5j0fd895c2c41bk3tw0000gp/T//cckqgw4a.s 			page 27


 158:../../libDaisy//src/dev/mpr121.h ****         // WriteRegister(MPR121_LOWLIMIT, 130);    // UPLIMIT * 0.65
 159:../../libDaisy//src/dev/mpr121.h ****         // autoconfig
 160:../../libDaisy//src/dev/mpr121.h **** 
 161:../../libDaisy//src/dev/mpr121.h ****         // enable X electrodes and start MPR121
 162:../../libDaisy//src/dev/mpr121.h ****         uint8_t ECR_SETTING
 163:../../libDaisy//src/dev/mpr121.h ****             = 0x80
 164:../../libDaisy//src/dev/mpr121.h ****               + 12; // 5 bits for baseline tracking & proximity disabled + X
 165:../../libDaisy//src/dev/mpr121.h ****                     // amount of electrodes running (12)
 166:../../libDaisy//src/dev/mpr121.h ****         WriteRegister(MPR121_ECR,
 167:../../libDaisy//src/dev/mpr121.h ****                       ECR_SETTING); // start with above ECR setting
 168:../../libDaisy//src/dev/mpr121.h **** 
 169:../../libDaisy//src/dev/mpr121.h ****         return GetTransportErr();
 170:../../libDaisy//src/dev/mpr121.h ****     }
 171:../../libDaisy//src/dev/mpr121.h **** 
 172:../../libDaisy//src/dev/mpr121.h ****     /** Set the touch and release thresholds for all 13 channels on the
 173:../../libDaisy//src/dev/mpr121.h ****         device to the passed values.
 174:../../libDaisy//src/dev/mpr121.h ****         \param      touch The touch threshold value from 0 to 255.
 175:../../libDaisy//src/dev/mpr121.h ****         \param      release The release threshold from 0 to 255.
 176:../../libDaisy//src/dev/mpr121.h ****     */
 177:../../libDaisy//src/dev/mpr121.h ****     void SetThresholds(uint8_t touch, uint8_t release)
 178:../../libDaisy//src/dev/mpr121.h ****     {
 179:../../libDaisy//src/dev/mpr121.h ****         // set all thresholds (the same)
 180:../../libDaisy//src/dev/mpr121.h ****         for(uint8_t i = 0; i < 12; i++)
 181:../../libDaisy//src/dev/mpr121.h ****         {
 182:../../libDaisy//src/dev/mpr121.h ****             WriteRegister(MPR121_TOUCHTH_0 + 2 * i, touch);
 183:../../libDaisy//src/dev/mpr121.h ****             WriteRegister(MPR121_RELEASETH_0 + 2 * i, release);
 184:../../libDaisy//src/dev/mpr121.h ****         }
 185:../../libDaisy//src/dev/mpr121.h ****     }
 186:../../libDaisy//src/dev/mpr121.h **** 
 187:../../libDaisy//src/dev/mpr121.h **** 
 188:../../libDaisy//src/dev/mpr121.h ****     /** Read the filtered data from channel t. The ADC raw data outputs
 189:../../libDaisy//src/dev/mpr121.h ****         run through 3 levels of digital filtering to filter out the high
 190:../../libDaisy//src/dev/mpr121.h ****         frequency and low frequency noise encountered. For detailed information on
 191:../../libDaisy//src/dev/mpr121.h ****         this filtering see page 6 of the device datasheet.
 192:../../libDaisy//src/dev/mpr121.h ****         \param      t the channel to read
 193:../../libDaisy//src/dev/mpr121.h ****         \returns    the filtered reading as a 10 bit unsigned value
 194:../../libDaisy//src/dev/mpr121.h ****     */
 195:../../libDaisy//src/dev/mpr121.h ****     uint16_t FilteredData(uint8_t t)
 196:../../libDaisy//src/dev/mpr121.h ****     {
 197:../../libDaisy//src/dev/mpr121.h ****         if(t > 12)
 198:../../libDaisy//src/dev/mpr121.h ****             return 0;
 199:../../libDaisy//src/dev/mpr121.h ****         return ReadRegister16(MPR121_FILTDATA_0L + t * 2);
 200:../../libDaisy//src/dev/mpr121.h ****     }
 201:../../libDaisy//src/dev/mpr121.h **** 
 202:../../libDaisy//src/dev/mpr121.h ****     /** Read the baseline value for the channel. The 3rd level filtered
 203:../../libDaisy//src/dev/mpr121.h ****         result is internally 10bit but only high 8 bits are readable
 204:../../libDaisy//src/dev/mpr121.h ****         from registers 0x1E~0x2A as the baseline value output for each channel.
 205:../../libDaisy//src/dev/mpr121.h ****         \param      t the channel to read.
 206:../../libDaisy//src/dev/mpr121.h ****         \returns    the baseline data that was read
 207:../../libDaisy//src/dev/mpr121.h ****     */
 208:../../libDaisy//src/dev/mpr121.h ****     uint16_t BaselineData(uint8_t t)
 209:../../libDaisy//src/dev/mpr121.h ****     {
 210:../../libDaisy//src/dev/mpr121.h ****         if(t > 12)
 211:../../libDaisy//src/dev/mpr121.h ****             return 0;
 212:../../libDaisy//src/dev/mpr121.h ****         uint16_t bl = ReadRegister8(MPR121_BASELINE_0 + t);
 213:../../libDaisy//src/dev/mpr121.h ****         return (bl << 2);
 214:../../libDaisy//src/dev/mpr121.h ****     }
ARM GAS  /var/folders/hl/qgbwny5j0fd895c2c41bk3tw0000gp/T//cckqgw4a.s 			page 28


 215:../../libDaisy//src/dev/mpr121.h **** 
 216:../../libDaisy//src/dev/mpr121.h ****     /** Read the touch status of all 13 channels as bit values in a 12 bit integer.
 217:../../libDaisy//src/dev/mpr121.h ****         \returns    a 12 bit integer with each bit corresponding to the touch status
 218:../../libDaisy//src/dev/mpr121.h ****         of a sensor. For example, if bit 0 is set then channel 0 of the
 219:../../libDaisy//src/dev/mpr121.h ****         device is currently deemed to be touched.
 220:../../libDaisy//src/dev/mpr121.h ****     */
 221:../../libDaisy//src/dev/mpr121.h ****     uint16_t Touched()
 222:../../libDaisy//src/dev/mpr121.h ****     {
 223:../../libDaisy//src/dev/mpr121.h ****         uint16_t t = ReadRegister16(MPR121_TOUCHSTATUS_L);
 224:../../libDaisy//src/dev/mpr121.h ****         return t & 0x0FFF;
 225:../../libDaisy//src/dev/mpr121.h ****     }
 226:../../libDaisy//src/dev/mpr121.h **** 
 227:../../libDaisy//src/dev/mpr121.h ****     /** Read the contents of an 8 bit device register.
 228:../../libDaisy//src/dev/mpr121.h ****         \param      reg the register address to read from
 229:../../libDaisy//src/dev/mpr121.h ****         \returns    the 8 bit value that was read.
 230:../../libDaisy//src/dev/mpr121.h ****     */
 231:../../libDaisy//src/dev/mpr121.h ****     uint8_t ReadRegister8(uint8_t reg)
 232:../../libDaisy//src/dev/mpr121.h ****     {
 233:../../libDaisy//src/dev/mpr121.h ****         uint8_t buff;
 234:../../libDaisy//src/dev/mpr121.h ****         SetTransportErr(transport_.Write(&reg, 1));
 235:../../libDaisy//src/dev/mpr121.h ****         SetTransportErr(transport_.Read(&buff, 1));
 236:../../libDaisy//src/dev/mpr121.h **** 
 237:../../libDaisy//src/dev/mpr121.h ****         return buff;
 238:../../libDaisy//src/dev/mpr121.h ****     }
 239:../../libDaisy//src/dev/mpr121.h **** 
 240:../../libDaisy//src/dev/mpr121.h ****     /** Read the contents of a 16 bit device register.
 241:../../libDaisy//src/dev/mpr121.h ****         \param      reg the register address to read from
 242:../../libDaisy//src/dev/mpr121.h ****         \returns    the 16 bit value that was read.
 243:../../libDaisy//src/dev/mpr121.h ****     */
 244:../../libDaisy//src/dev/mpr121.h ****     uint16_t ReadRegister16(uint8_t reg)
 245:../../libDaisy//src/dev/mpr121.h ****     {
 246:../../libDaisy//src/dev/mpr121.h ****         uint16_t buff;
 247:../../libDaisy//src/dev/mpr121.h ****         SetTransportErr(transport_.Write(&reg, 1));
 248:../../libDaisy//src/dev/mpr121.h ****         SetTransportErr(transport_.Read((uint8_t *)&buff, 2));
 249:../../libDaisy//src/dev/mpr121.h **** 
 250:../../libDaisy//src/dev/mpr121.h ****         return buff;
 251:../../libDaisy//src/dev/mpr121.h ****     }
 252:../../libDaisy//src/dev/mpr121.h **** 
 253:../../libDaisy//src/dev/mpr121.h ****     /** Writes 8-bits to the specified destination register
 254:../../libDaisy//src/dev/mpr121.h ****         \param  reg the register address to write to
 255:../../libDaisy//src/dev/mpr121.h ****         \param  value the value to write
 256:../../libDaisy//src/dev/mpr121.h ****     */
 257:../../libDaisy//src/dev/mpr121.h ****     void WriteRegister(uint8_t reg, uint8_t value)
 258:../../libDaisy//src/dev/mpr121.h ****     {
 259:../../libDaisy//src/dev/mpr121.h ****         // MPR121 must be put in Stop Mode to write to most registers
 260:../../libDaisy//src/dev/mpr121.h ****         bool stop_required = true;
 261:../../libDaisy//src/dev/mpr121.h **** 
 262:../../libDaisy//src/dev/mpr121.h ****         // first get the current set value of the MPR121_ECR register
 263:../../libDaisy//src/dev/mpr121.h ****         uint8_t ecr_reg = MPR121_ECR;
 264:../../libDaisy//src/dev/mpr121.h ****         uint8_t buff[2] = {ecr_reg, 0x00};
 375              		.loc 13 264 17 view .LVU59
 376 0036 4FF05E09 		mov	r9, #94
 377              	.LBE1072:
 378              	.LBE1071:
 133:../../libDaisy//src/dev/mpr121.h ****         WriteRegister(MPR121_MHDR, 0x01);
 379              		.loc 13 133 22 view .LVU60
 380 003a 4127     		movs	r7, #65
ARM GAS  /var/folders/hl/qgbwny5j0fd895c2c41bk3tw0000gp/T//cckqgw4a.s 			page 29


 117:../../libDaisy//src/dev/mpr121.h **** 
 381              		.loc 13 117 9 view .LVU61
 382 003c C4E90086 		strd	r8, r6, [r4]
 383 0040 BAE80F00 		ldmia	r10!, {r0, r1, r2, r3}
 384 0044 DAF800A0 		ldr	r10, [r10]
 385 0048 AEE80F00 		stmia	lr!, {r0, r1, r2, r3}
 386 004c CEF800A0 		str	r10, [lr]
 387              	.LBB1139:
 388              	.LBI1057:
  47:../../libDaisy//src/dev/mpr121.h ****     {
 389              		.loc 13 47 17 is_stmt 1 view .LVU62
 390              	.LBB1066:
  49:../../libDaisy//src/dev/mpr121.h **** 
 391              		.loc 13 49 9 view .LVU63
  49:../../libDaisy//src/dev/mpr121.h **** 
 392              		.loc 13 49 17 is_stmt 0 view .LVU64
 393 0050 BBE80F00 		ldmia	fp!, {r0, r1, r2, r3}
 394 0054 ACE80F00 		stmia	ip!, {r0, r1, r2, r3}
  59:../../libDaisy//src/dev/mpr121.h ****     }
 395              		.loc 13 59 50 view .LVU65
 396 0058 07A9     		add	r1, sp, #28
  49:../../libDaisy//src/dev/mpr121.h **** 
 397              		.loc 13 49 17 view .LVU66
 398 005a 8CF800A0 		strb	r10, [ip]
  51:../../libDaisy//src/dev/mpr121.h ****         i2c_conf.mode   = I2CHandle::Config::Mode::I2C_MASTER;
 399              		.loc 13 51 9 is_stmt 1 view .LVU67
 400              	.LVL9:
 401              	.LBB1063:
 402              	.LBI1059:
 403              		.loc 16 28 12 view .LVU68
 404              		.loc 16 28 12 is_stmt 0 view .LVU69
 405              	.LBE1063:
  52:../../libDaisy//src/dev/mpr121.h ****         i2c_conf.periph = config.periph;
 406              		.loc 13 52 9 is_stmt 1 view .LVU70
  53:../../libDaisy//src/dev/mpr121.h ****         i2c_conf.speed  = config.speed;
 407              		.loc 13 53 9 view .LVU71
  54:../../libDaisy//src/dev/mpr121.h **** 
 408              		.loc 13 54 9 view .LVU72
  56:../../libDaisy//src/dev/mpr121.h ****         i2c_conf.pin_config.sda = config.sda;
 409              		.loc 13 56 9 view .LVU73
  56:../../libDaisy//src/dev/mpr121.h ****         i2c_conf.pin_config.sda = config.sda;
 410              		.loc 13 56 9 is_stmt 0 view .LVU74
 411              	.LBE1066:
 412              	.LBE1139:
 413              	.LBE2412:
 414              	.LBE2416:
 273:../../libDaisy//src/daisy_core.h **** 
 274:../../libDaisy//src/daisy_core.h ****     /** @brief checks validity of a Pin 
 275:../../libDaisy//src/daisy_core.h ****      *  @retval returns true if the port is a valid hardware pin, otherwise false.
 276:../../libDaisy//src/daisy_core.h ****     */
 277:../../libDaisy//src/daisy_core.h ****     constexpr bool IsValid() const { return port != PORTX && pin < 16; }
 278:../../libDaisy//src/daisy_core.h **** 
 279:../../libDaisy//src/daisy_core.h ****     /** @brief comparison operator for checking equality between Pin objects */
 280:../../libDaisy//src/daisy_core.h ****     constexpr bool operator==(const Pin &rhs) const
 281:../../libDaisy//src/daisy_core.h ****     {
 282:../../libDaisy//src/daisy_core.h ****         return (rhs.port == port) && (rhs.pin == pin);
 283:../../libDaisy//src/daisy_core.h ****     }
ARM GAS  /var/folders/hl/qgbwny5j0fd895c2c41bk3tw0000gp/T//cckqgw4a.s 			page 30


 284:../../libDaisy//src/daisy_core.h **** 
 285:../../libDaisy//src/daisy_core.h ****     /** @brief comparison operator for checking inequality between Pin objects */
 286:../../libDaisy//src/daisy_core.h ****     constexpr bool operator!=(const Pin &rhs) const { return !operator==(rhs); }
 287:../../libDaisy//src/daisy_core.h **** 
 288:../../libDaisy//src/daisy_core.h ****     /** @brief conversion operation for converting to the old-style representation
 289:../../libDaisy//src/daisy_core.h ****      *         of a pin.
 290:../../libDaisy//src/daisy_core.h ****      * 
 291:../../libDaisy//src/daisy_core.h ****      *  This allows the new Pin type to be used in place of the older, dsy_gpio_pin
 292:../../libDaisy//src/daisy_core.h ****      *  type.
 293:../../libDaisy//src/daisy_core.h ****      */
 294:../../libDaisy//src/daisy_core.h ****     operator dsy_gpio_pin() const
 295:../../libDaisy//src/daisy_core.h ****     {
 296:../../libDaisy//src/daisy_core.h ****         return dsy_pin(static_cast<dsy_gpio_port>(port), pin);
 415              		.loc 15 296 9 is_stmt 1 view .LVU75
 219:../../libDaisy//src/daisy_core.h ****     p.port = port;
 416              		.loc 15 219 5 view .LVU76
 220:../../libDaisy//src/daisy_core.h ****     p.pin  = pin;
 417              		.loc 15 220 5 view .LVU77
 221:../../libDaisy//src/daisy_core.h ****     return p;
 418              		.loc 15 221 5 view .LVU78
 222:../../libDaisy//src/daisy_core.h **** }
 419              		.loc 15 222 5 view .LVU79
 420              	.LBB2417:
 421              	.LBB2413:
 422              	.LBB1140:
 423              	.LBB1067:
  57:../../libDaisy//src/dev/mpr121.h **** 
 424              		.loc 13 57 9 view .LVU80
  57:../../libDaisy//src/dev/mpr121.h **** 
 425              		.loc 13 57 9 is_stmt 0 view .LVU81
 426              	.LBE1067:
 427              	.LBE1140:
 428              	.LBE2413:
 429              	.LBE2417:
 430              		.loc 15 296 9 is_stmt 1 view .LVU82
 219:../../libDaisy//src/daisy_core.h ****     p.port = port;
 431              		.loc 15 219 5 view .LVU83
 220:../../libDaisy//src/daisy_core.h ****     p.pin  = pin;
 432              		.loc 15 220 5 view .LVU84
 221:../../libDaisy//src/daisy_core.h ****     return p;
 433              		.loc 15 221 5 view .LVU85
 222:../../libDaisy//src/daisy_core.h **** }
 434              		.loc 15 222 5 view .LVU86
 435              	.LBB2418:
 436              	.LBB2414:
 437              	.LBB1141:
 438              	.LBB1068:
  59:../../libDaisy//src/dev/mpr121.h ****     }
 439              		.loc 13 59 9 view .LVU87
  59:../../libDaisy//src/dev/mpr121.h ****     }
 440              		.loc 13 59 50 is_stmt 0 view .LVU88
 441 005e 04F11800 		add	r0, r4, #24
  52:../../libDaisy//src/dev/mpr121.h ****         i2c_conf.periph = config.periph;
 442              		.loc 13 52 25 view .LVU89
 443 0062 CDE90968 		strd	r6, r8, [sp, #36]
  59:../../libDaisy//src/dev/mpr121.h ****     }
 444              		.loc 13 59 50 view .LVU90
ARM GAS  /var/folders/hl/qgbwny5j0fd895c2c41bk3tw0000gp/T//cckqgw4a.s 			page 31


 445 0066 FFF7FEFF 		bl	_ZN5daisy9I2CHandle4InitERKNS0_6ConfigE
 446              	.LVL10:
  59:../../libDaisy//src/dev/mpr121.h ****     }
 447              		.loc 13 59 50 view .LVU91
 448              	.LBE1068:
 449              	.LBE1141:
 450              	.LBB1142:
 451              	.LBI1142:
 265:../../libDaisy//src/dev/mpr121.h **** 
 266:../../libDaisy//src/dev/mpr121.h ****         SetTransportErr(transport_.Write(buff, 1));
 267:../../libDaisy//src/dev/mpr121.h **** 
 268:../../libDaisy//src/dev/mpr121.h ****         uint8_t ecr_backup;
 269:../../libDaisy//src/dev/mpr121.h ****         SetTransportErr(transport_.Read(&ecr_backup, 1));
 270:../../libDaisy//src/dev/mpr121.h ****         if((reg == MPR121_ECR) || ((0x73 <= reg) && (reg <= 0x7A)))
 271:../../libDaisy//src/dev/mpr121.h ****         {
 272:../../libDaisy//src/dev/mpr121.h ****             stop_required = false;
 273:../../libDaisy//src/dev/mpr121.h ****         }
 274:../../libDaisy//src/dev/mpr121.h **** 
 275:../../libDaisy//src/dev/mpr121.h ****         if(stop_required)
 276:../../libDaisy//src/dev/mpr121.h ****         {
 277:../../libDaisy//src/dev/mpr121.h ****             // clear this register to set stop mode
 278:../../libDaisy//src/dev/mpr121.h ****             SetTransportErr(transport_.Write(buff, 2));
 279:../../libDaisy//src/dev/mpr121.h ****         }
 280:../../libDaisy//src/dev/mpr121.h **** 
 281:../../libDaisy//src/dev/mpr121.h ****         buff[0] = reg;
 282:../../libDaisy//src/dev/mpr121.h ****         buff[1] = value;
 283:../../libDaisy//src/dev/mpr121.h ****         SetTransportErr(transport_.Write(buff, 2));
 284:../../libDaisy//src/dev/mpr121.h **** 
 285:../../libDaisy//src/dev/mpr121.h ****         if(stop_required)
 286:../../libDaisy//src/dev/mpr121.h ****         {
 287:../../libDaisy//src/dev/mpr121.h ****             // write back the previous set ECR settings
 288:../../libDaisy//src/dev/mpr121.h ****             buff[0] = ecr_reg;
 289:../../libDaisy//src/dev/mpr121.h ****             buff[1] = ecr_backup;
 290:../../libDaisy//src/dev/mpr121.h ****             SetTransportErr(transport_.Write(buff, 2));
 291:../../libDaisy//src/dev/mpr121.h ****         }
 292:../../libDaisy//src/dev/mpr121.h ****     }
 293:../../libDaisy//src/dev/mpr121.h **** 
 294:../../libDaisy//src/dev/mpr121.h ****     /** Device register map */
 295:../../libDaisy//src/dev/mpr121.h ****     enum RegMap
 296:../../libDaisy//src/dev/mpr121.h ****     {
 297:../../libDaisy//src/dev/mpr121.h ****         MPR121_TOUCHSTATUS_L = 0x00,
 298:../../libDaisy//src/dev/mpr121.h ****         MPR121_TOUCHSTATUS_H = 0x01,
 299:../../libDaisy//src/dev/mpr121.h ****         MPR121_FILTDATA_0L   = 0x04,
 300:../../libDaisy//src/dev/mpr121.h ****         MPR121_FILTDATA_0H   = 0x05,
 301:../../libDaisy//src/dev/mpr121.h ****         MPR121_BASELINE_0    = 0x1E,
 302:../../libDaisy//src/dev/mpr121.h ****         MPR121_MHDR          = 0x2B,
 303:../../libDaisy//src/dev/mpr121.h ****         MPR121_NHDR          = 0x2C,
 304:../../libDaisy//src/dev/mpr121.h ****         MPR121_NCLR          = 0x2D,
 305:../../libDaisy//src/dev/mpr121.h ****         MPR121_FDLR          = 0x2E,
 306:../../libDaisy//src/dev/mpr121.h ****         MPR121_MHDF          = 0x2F,
 307:../../libDaisy//src/dev/mpr121.h ****         MPR121_NHDF          = 0x30,
 308:../../libDaisy//src/dev/mpr121.h ****         MPR121_NCLF          = 0x31,
 309:../../libDaisy//src/dev/mpr121.h ****         MPR121_FDLF          = 0x32,
 310:../../libDaisy//src/dev/mpr121.h ****         MPR121_NHDT          = 0x33,
 311:../../libDaisy//src/dev/mpr121.h ****         MPR121_NCLT          = 0x34,
 312:../../libDaisy//src/dev/mpr121.h ****         MPR121_FDLT          = 0x35,
 313:../../libDaisy//src/dev/mpr121.h **** 
ARM GAS  /var/folders/hl/qgbwny5j0fd895c2c41bk3tw0000gp/T//cckqgw4a.s 			page 32


 314:../../libDaisy//src/dev/mpr121.h ****         MPR121_TOUCHTH_0    = 0x41,
 315:../../libDaisy//src/dev/mpr121.h ****         MPR121_RELEASETH_0  = 0x42,
 316:../../libDaisy//src/dev/mpr121.h ****         MPR121_DEBOUNCE     = 0x5B,
 317:../../libDaisy//src/dev/mpr121.h ****         MPR121_CONFIG1      = 0x5C,
 318:../../libDaisy//src/dev/mpr121.h ****         MPR121_CONFIG2      = 0x5D,
 319:../../libDaisy//src/dev/mpr121.h ****         MPR121_CHARGECURR_0 = 0x5F,
 320:../../libDaisy//src/dev/mpr121.h ****         MPR121_CHARGETIME_1 = 0x6C,
 321:../../libDaisy//src/dev/mpr121.h ****         MPR121_ECR          = 0x5E,
 322:../../libDaisy//src/dev/mpr121.h ****         MPR121_AUTOCONFIG0  = 0x7B,
 323:../../libDaisy//src/dev/mpr121.h ****         MPR121_AUTOCONFIG1  = 0x7C,
 324:../../libDaisy//src/dev/mpr121.h ****         MPR121_UPLIMIT      = 0x7D,
 325:../../libDaisy//src/dev/mpr121.h ****         MPR121_LOWLIMIT     = 0x7E,
 326:../../libDaisy//src/dev/mpr121.h ****         MPR121_TARGETLIMIT  = 0x7F,
 327:../../libDaisy//src/dev/mpr121.h **** 
 328:../../libDaisy//src/dev/mpr121.h ****         MPR121_GPIODIR    = 0x76,
 329:../../libDaisy//src/dev/mpr121.h ****         MPR121_GPIOEN     = 0x77,
 330:../../libDaisy//src/dev/mpr121.h ****         MPR121_GPIOSET    = 0x78,
 331:../../libDaisy//src/dev/mpr121.h ****         MPR121_GPIOCLR    = 0x79,
 332:../../libDaisy//src/dev/mpr121.h ****         MPR121_GPIOTOGGLE = 0x7A,
 333:../../libDaisy//src/dev/mpr121.h **** 
 334:../../libDaisy//src/dev/mpr121.h ****         MPR121_SOFTRESET = 0x80,
 335:../../libDaisy//src/dev/mpr121.h ****     };
 336:../../libDaisy//src/dev/mpr121.h **** 
 337:../../libDaisy//src/dev/mpr121.h ****   private:
 338:../../libDaisy//src/dev/mpr121.h ****     Config    config_;
 339:../../libDaisy//src/dev/mpr121.h ****     Transport transport_;
 340:../../libDaisy//src/dev/mpr121.h ****     bool      transport_error_;
 341:../../libDaisy//src/dev/mpr121.h **** 
 342:../../libDaisy//src/dev/mpr121.h ****     /** Set the global transport_error_ bool */
 343:../../libDaisy//src/dev/mpr121.h ****     void SetTransportErr(bool err) { transport_error_ |= err; }
 452              		.loc 13 343 10 is_stmt 1 view .LVU92
 453              	.LBB1143:
 454              		.loc 13 343 55 is_stmt 0 view .LVU93
 455 006a 94F83030 		ldrb	r3, [r4, #48]	@ zero_extendqisi2
 456              	.LBE1143:
 457              	.LBE1142:
 458              	.LBB1146:
 459              	.LBB1135:
 460              	.LBB1079:
 461              	.LBB1075:
  66:../../libDaisy//src/dev/mpr121.h ****     }
 462              		.loc 13 66 40 view .LVU94
 463 006e 07AA     		add	r2, sp, #28
 464 0070 94F82C10 		ldrb	r1, [r4, #44]	@ zero_extendqisi2
 465              	.LBE1075:
 466              	.LBE1079:
 467              	.LBE1135:
 468              	.LBE1146:
 469              	.LBB1147:
 470              	.LBB1144:
 471              		.loc 13 343 55 view .LVU95
 472 0074 4045     		cmp	r0, r8
 473 0076 18BF     		it	ne
 474 0078 43F00103 		orrne	r3, r3, #1
 475              	.LBE1144:
 476              	.LBE1147:
 477              	.LBB1148:
ARM GAS  /var/folders/hl/qgbwny5j0fd895c2c41bk3tw0000gp/T//cckqgw4a.s 			page 33


 478              	.LBB1136:
 479              	.LBB1080:
 480              	.LBB1076:
  66:../../libDaisy//src/dev/mpr121.h ****     }
 481              		.loc 13 66 40 view .LVU96
 482 007c 0095     		str	r5, [sp]
 483 007e 04F11800 		add	r0, r4, #24
 484              	.LVL11:
  66:../../libDaisy//src/dev/mpr121.h ****     }
 485              		.loc 13 66 40 view .LVU97
 486              	.LBE1076:
 487              	.LBE1080:
 264:../../libDaisy//src/dev/mpr121.h **** 
 488              		.loc 13 264 17 view .LVU98
 489 0082 8DF81C90 		strb	r9, [sp, #28]
 490              	.LBE1136:
 491              	.LBE1148:
 492              	.LBB1149:
 493              	.LBB1145:
 494              		.loc 13 343 55 view .LVU99
 495 0086 84F83030 		strb	r3, [r4, #48]
 496              	.LVL12:
 497              		.loc 13 343 55 view .LVU100
 498              	.LBE1145:
 499              	.LBE1149:
 500              	.LBB1150:
 501              	.LBI1071:
 257:../../libDaisy//src/dev/mpr121.h ****     {
 502              		.loc 13 257 10 is_stmt 1 view .LVU101
 503              	.LBB1137:
 504              	.LBB1081:
 505              	.LBI1073:
  63:../../libDaisy//src/dev/mpr121.h ****     {
 506              		.loc 13 63 10 view .LVU102
 507              	.LBB1077:
  65:../../libDaisy//src/dev/mpr121.h ****                != i2c_.TransmitBlocking(config_.dev_addr, data, size, 10);
 508              		.loc 13 65 9 view .LVU103
  66:../../libDaisy//src/dev/mpr121.h ****     }
 509              		.loc 13 66 40 is_stmt 0 view .LVU104
 510 008a 3346     		mov	r3, r6
 511              	.LBE1077:
 512              	.LBE1081:
 264:../../libDaisy//src/dev/mpr121.h **** 
 513              		.loc 13 264 17 view .LVU105
 514 008c 8DF81D80 		strb	r8, [sp, #29]
 515              	.LBB1082:
 516              	.LBB1078:
  66:../../libDaisy//src/dev/mpr121.h ****     }
 517              		.loc 13 66 40 view .LVU106
 518 0090 FFF7FEFF 		bl	_ZN5daisy9I2CHandle16TransmitBlockingEtPhtm
 519              	.LVL13:
  66:../../libDaisy//src/dev/mpr121.h ****     }
 520              		.loc 13 66 40 view .LVU107
 521              	.LBE1078:
 522              	.LBE1082:
 523              	.LBB1083:
 524              	.LBI1083:
ARM GAS  /var/folders/hl/qgbwny5j0fd895c2c41bk3tw0000gp/T//cckqgw4a.s 			page 34


 525              		.loc 13 343 10 is_stmt 1 view .LVU108
 526              	.LBB1084:
 527              		.loc 13 343 55 is_stmt 0 view .LVU109
 528 0094 94F83030 		ldrb	r3, [r4, #48]	@ zero_extendqisi2
 529              	.LBE1084:
 530              	.LBE1083:
 531              	.LBB1087:
 532              	.LBB1088:
  73:../../libDaisy//src/dev/mpr121.h ****     }
 533              		.loc 13 73 39 view .LVU110
 534 0098 02AA     		add	r2, sp, #8
 535 009a 94F82C10 		ldrb	r1, [r4, #44]	@ zero_extendqisi2
 536              	.LBE1088:
 537              	.LBE1087:
 538              	.LBB1091:
 539              	.LBB1085:
 540              		.loc 13 343 55 view .LVU111
 541 009e 4045     		cmp	r0, r8
 542 00a0 18BF     		it	ne
 543 00a2 43F00103 		orrne	r3, r3, #1
 544              	.LBE1085:
 545              	.LBE1091:
 546              	.LBB1092:
 547              	.LBB1089:
  73:../../libDaisy//src/dev/mpr121.h ****     }
 548              		.loc 13 73 39 view .LVU112
 549 00a6 0095     		str	r5, [sp]
 550 00a8 04F11800 		add	r0, r4, #24
 551              	.LVL14:
  73:../../libDaisy//src/dev/mpr121.h ****     }
 552              		.loc 13 73 39 view .LVU113
 553              	.LBE1089:
 554              	.LBE1092:
 555              	.LBB1093:
 556              	.LBB1086:
 557              		.loc 13 343 55 view .LVU114
 558 00ac 84F83030 		strb	r3, [r4, #48]
 559              	.LVL15:
 560              		.loc 13 343 55 view .LVU115
 561              	.LBE1086:
 562              	.LBE1093:
 563              	.LBB1094:
 564              	.LBI1087:
  70:../../libDaisy//src/dev/mpr121.h ****     {
 565              		.loc 13 70 10 is_stmt 1 view .LVU116
 566              	.LBB1090:
  72:../../libDaisy//src/dev/mpr121.h ****                != i2c_.ReceiveBlocking(config_.dev_addr, data, size, 10);
 567              		.loc 13 72 9 view .LVU117
  73:../../libDaisy//src/dev/mpr121.h ****     }
 568              		.loc 13 73 39 is_stmt 0 view .LVU118
 569 00b0 3346     		mov	r3, r6
 570 00b2 FFF7FEFF 		bl	_ZN5daisy9I2CHandle15ReceiveBlockingEtPhtm
 571              	.LVL16:
  73:../../libDaisy//src/dev/mpr121.h ****     }
 572              		.loc 13 73 39 view .LVU119
 573              	.LBE1090:
 574              	.LBE1094:
ARM GAS  /var/folders/hl/qgbwny5j0fd895c2c41bk3tw0000gp/T//cckqgw4a.s 			page 35


 575              	.LBB1095:
 576              	.LBI1095:
 577              		.loc 13 343 10 is_stmt 1 view .LVU120
 578              	.LBB1096:
 579              		.loc 13 343 55 is_stmt 0 view .LVU121
 580 00b6 94F83030 		ldrb	r3, [r4, #48]	@ zero_extendqisi2
 581              	.LBE1096:
 582              	.LBE1095:
 583              	.LBB1099:
 584              	.LBB1100:
  66:../../libDaisy//src/dev/mpr121.h ****     }
 585              		.loc 13 66 40 view .LVU122
 586 00ba 07AA     		add	r2, sp, #28
 587 00bc 94F82C10 		ldrb	r1, [r4, #44]	@ zero_extendqisi2
 588              	.LBE1100:
 589              	.LBE1099:
 590              	.LBB1103:
 591              	.LBB1097:
 592              		.loc 13 343 55 view .LVU123
 593 00c0 4045     		cmp	r0, r8
 594 00c2 18BF     		it	ne
 595 00c4 43F00103 		orrne	r3, r3, #1
 596              	.LBE1097:
 597              	.LBE1103:
 598              	.LBB1104:
 599              	.LBB1101:
  66:../../libDaisy//src/dev/mpr121.h ****     }
 600              		.loc 13 66 40 view .LVU124
 601 00c8 0095     		str	r5, [sp]
 602 00ca 04F11800 		add	r0, r4, #24
 603              	.LVL17:
  66:../../libDaisy//src/dev/mpr121.h ****     }
 604              		.loc 13 66 40 view .LVU125
 605              	.LBE1101:
 606              	.LBE1104:
 607              	.LBB1105:
 608              	.LBB1098:
 609              		.loc 13 343 55 view .LVU126
 610 00ce 84F83030 		strb	r3, [r4, #48]
 611              	.LVL18:
 612              		.loc 13 343 55 view .LVU127
 613              	.LBE1098:
 614              	.LBE1105:
 615              	.LBB1106:
 616              	.LBI1099:
  63:../../libDaisy//src/dev/mpr121.h ****     {
 617              		.loc 13 63 10 is_stmt 1 view .LVU128
 618              	.LBB1102:
  65:../../libDaisy//src/dev/mpr121.h ****                != i2c_.TransmitBlocking(config_.dev_addr, data, size, 10);
 619              		.loc 13 65 9 view .LVU129
  66:../../libDaisy//src/dev/mpr121.h ****     }
 620              		.loc 13 66 40 is_stmt 0 view .LVU130
 621 00d2 0223     		movs	r3, #2
 622 00d4 FFF7FEFF 		bl	_ZN5daisy9I2CHandle16TransmitBlockingEtPhtm
 623              	.LVL19:
  66:../../libDaisy//src/dev/mpr121.h ****     }
 624              		.loc 13 66 40 view .LVU131
ARM GAS  /var/folders/hl/qgbwny5j0fd895c2c41bk3tw0000gp/T//cckqgw4a.s 			page 36


 625              	.LBE1102:
 626              	.LBE1106:
 627              	.LBB1107:
 628              	.LBI1107:
 629              		.loc 13 343 10 is_stmt 1 view .LVU132
 630              	.LBB1108:
 631              		.loc 13 343 55 is_stmt 0 view .LVU133
 632 00d8 94F83030 		ldrb	r3, [r4, #48]	@ zero_extendqisi2
 633              	.LBE1108:
 634              	.LBE1107:
 635              	.LBB1111:
 636              	.LBB1112:
  66:../../libDaisy//src/dev/mpr121.h ****     }
 637              		.loc 13 66 40 view .LVU134
 638 00dc 07AA     		add	r2, sp, #28
 639 00de 94F82C10 		ldrb	r1, [r4, #44]	@ zero_extendqisi2
 640              	.LBE1112:
 641              	.LBE1111:
 642              	.LBB1115:
 643              	.LBB1109:
 644              		.loc 13 343 55 view .LVU135
 645 00e2 4045     		cmp	r0, r8
 646 00e4 18BF     		it	ne
 647 00e6 43F00103 		orrne	r3, r3, #1
 648              	.LBE1109:
 649              	.LBE1115:
 650              	.LBB1116:
 651              	.LBB1113:
  66:../../libDaisy//src/dev/mpr121.h ****     }
 652              		.loc 13 66 40 view .LVU136
 653 00ea 0095     		str	r5, [sp]
 654 00ec 04F11800 		add	r0, r4, #24
 655              	.LVL20:
  66:../../libDaisy//src/dev/mpr121.h ****     }
 656              		.loc 13 66 40 view .LVU137
 657              	.LBE1113:
 658              	.LBE1116:
 659              	.LBB1117:
 660              	.LBB1110:
 661              		.loc 13 343 55 view .LVU138
 662 00f0 84F83030 		strb	r3, [r4, #48]
 663              	.LVL21:
 664              		.loc 13 343 55 view .LVU139
 665              	.LBE1110:
 666              	.LBE1117:
 281:../../libDaisy//src/dev/mpr121.h ****         buff[1] = value;
 667              		.loc 13 281 17 view .LVU140
 668 00f4 8023     		movs	r3, #128
 669 00f6 8DF81C30 		strb	r3, [sp, #28]
 282:../../libDaisy//src/dev/mpr121.h ****         SetTransportErr(transport_.Write(buff, 2));
 670              		.loc 13 282 17 view .LVU141
 671 00fa 6323     		movs	r3, #99
 672 00fc 8DF81D30 		strb	r3, [sp, #29]
 673              	.LVL22:
 674              	.LBB1118:
 675              	.LBI1111:
  63:../../libDaisy//src/dev/mpr121.h ****     {
ARM GAS  /var/folders/hl/qgbwny5j0fd895c2c41bk3tw0000gp/T//cckqgw4a.s 			page 37


 676              		.loc 13 63 10 is_stmt 1 view .LVU142
 677              	.LBB1114:
  65:../../libDaisy//src/dev/mpr121.h ****                != i2c_.TransmitBlocking(config_.dev_addr, data, size, 10);
 678              		.loc 13 65 9 view .LVU143
  66:../../libDaisy//src/dev/mpr121.h ****     }
 679              		.loc 13 66 40 is_stmt 0 view .LVU144
 680 0100 0223     		movs	r3, #2
 681 0102 FFF7FEFF 		bl	_ZN5daisy9I2CHandle16TransmitBlockingEtPhtm
 682              	.LVL23:
  66:../../libDaisy//src/dev/mpr121.h ****     }
 683              		.loc 13 66 40 view .LVU145
 684              	.LBE1114:
 685              	.LBE1118:
 686              	.LBB1119:
 687              	.LBI1119:
 688              		.loc 13 343 10 is_stmt 1 view .LVU146
 689              	.LBB1120:
 690              		.loc 13 343 55 is_stmt 0 view .LVU147
 691 0106 94F83030 		ldrb	r3, [r4, #48]	@ zero_extendqisi2
 692              	.LBE1120:
 693              	.LBE1119:
 694              	.LBB1123:
 695              	.LBB1124:
  66:../../libDaisy//src/dev/mpr121.h ****     }
 696              		.loc 13 66 40 view .LVU148
 697 010a 07AA     		add	r2, sp, #28
 698 010c 94F82C10 		ldrb	r1, [r4, #44]	@ zero_extendqisi2
 699              	.LBE1124:
 700              	.LBE1123:
 701              	.LBB1127:
 702              	.LBB1121:
 703              		.loc 13 343 55 view .LVU149
 704 0110 4045     		cmp	r0, r8
 705 0112 18BF     		it	ne
 706 0114 43F00103 		orrne	r3, r3, #1
 707              	.LBE1121:
 708              	.LBE1127:
 709              	.LBB1128:
 710              	.LBB1125:
  66:../../libDaisy//src/dev/mpr121.h ****     }
 711              		.loc 13 66 40 view .LVU150
 712 0118 0095     		str	r5, [sp]
 713 011a 04F11800 		add	r0, r4, #24
 714              	.LVL24:
  66:../../libDaisy//src/dev/mpr121.h ****     }
 715              		.loc 13 66 40 view .LVU151
 716              	.LBE1125:
 717              	.LBE1128:
 288:../../libDaisy//src/dev/mpr121.h ****             buff[1] = ecr_backup;
 718              		.loc 13 288 21 view .LVU152
 719 011e 8DF81C90 		strb	r9, [sp, #28]
 720              	.LBB1129:
 721              	.LBB1122:
 722              		.loc 13 343 55 view .LVU153
 723 0122 84F83030 		strb	r3, [r4, #48]
 724              	.LVL25:
 725              		.loc 13 343 55 view .LVU154
ARM GAS  /var/folders/hl/qgbwny5j0fd895c2c41bk3tw0000gp/T//cckqgw4a.s 			page 38


 726              	.LBE1122:
 727              	.LBE1129:
 289:../../libDaisy//src/dev/mpr121.h ****             SetTransportErr(transport_.Write(buff, 2));
 728              		.loc 13 289 21 view .LVU155
 729 0126 9DF80830 		ldrb	r3, [sp, #8]	@ zero_extendqisi2
 730 012a 8DF81D30 		strb	r3, [sp, #29]
 731              	.LVL26:
 732              	.LBB1130:
 733              	.LBI1123:
  63:../../libDaisy//src/dev/mpr121.h ****     {
 734              		.loc 13 63 10 is_stmt 1 view .LVU156
 735              	.LBB1126:
  65:../../libDaisy//src/dev/mpr121.h ****                != i2c_.TransmitBlocking(config_.dev_addr, data, size, 10);
 736              		.loc 13 65 9 view .LVU157
  66:../../libDaisy//src/dev/mpr121.h ****     }
 737              		.loc 13 66 40 is_stmt 0 view .LVU158
 738 012e 0223     		movs	r3, #2
 739 0130 FFF7FEFF 		bl	_ZN5daisy9I2CHandle16TransmitBlockingEtPhtm
 740              	.LVL27:
  66:../../libDaisy//src/dev/mpr121.h ****     }
 741              		.loc 13 66 40 view .LVU159
 742              	.LBE1126:
 743              	.LBE1130:
 744              	.LBB1131:
 745              	.LBI1131:
 746              		.loc 13 343 10 is_stmt 1 view .LVU160
 747              	.LBB1132:
 748              		.loc 13 343 55 is_stmt 0 view .LVU161
 749 0134 94F83030 		ldrb	r3, [r4, #48]	@ zero_extendqisi2
 750 0138 4045     		cmp	r0, r8
 751 013a 18BF     		it	ne
 752 013c 43F00103 		orrne	r3, r3, #1
 753              	.LBE1132:
 754              	.LBE1131:
 755              	.LBE1137:
 756              	.LBE1150:
 123:../../libDaisy//src/dev/mpr121.h **** 
 757              		.loc 13 123 22 view .LVU162
 758 0140 3046     		mov	r0, r6
 759              	.LVL28:
 760              	.LBB1151:
 761              	.LBB1138:
 762              	.LBB1134:
 763              	.LBB1133:
 764              		.loc 13 343 55 view .LVU163
 765 0142 84F83030 		strb	r3, [r4, #48]
 766              	.LVL29:
 767              		.loc 13 343 55 view .LVU164
 768              	.LBE1133:
 769              	.LBE1134:
 770              	.LBE1138:
 771              	.LBE1151:
 123:../../libDaisy//src/dev/mpr121.h **** 
 772              		.loc 13 123 22 view .LVU165
 773 0146 FFF7FEFF 		bl	_ZN5daisy6System5DelayEm
 774              	.LVL30:
 775              	.LBB1152:
ARM GAS  /var/folders/hl/qgbwny5j0fd895c2c41bk3tw0000gp/T//cckqgw4a.s 			page 39


 776              	.LBI1152:
 257:../../libDaisy//src/dev/mpr121.h ****     {
 777              		.loc 13 257 10 is_stmt 1 view .LVU166
 778              	.LBB1153:
 779              	.LBB1154:
 780              	.LBB1155:
  66:../../libDaisy//src/dev/mpr121.h ****     }
 781              		.loc 13 66 40 is_stmt 0 view .LVU167
 782 014a 3346     		mov	r3, r6
 783 014c 07AA     		add	r2, sp, #28
 784 014e 94F82C10 		ldrb	r1, [r4, #44]	@ zero_extendqisi2
 785 0152 04F11800 		add	r0, r4, #24
 786 0156 0095     		str	r5, [sp]
 787              	.LBE1155:
 788              	.LBE1154:
 264:../../libDaisy//src/dev/mpr121.h **** 
 789              		.loc 13 264 17 view .LVU168
 790 0158 8DF81C90 		strb	r9, [sp, #28]
 791              	.LVL31:
 792              	.LBB1158:
 793              	.LBI1154:
  63:../../libDaisy//src/dev/mpr121.h ****     {
 794              		.loc 13 63 10 is_stmt 1 view .LVU169
 795              	.LBB1156:
  65:../../libDaisy//src/dev/mpr121.h ****                != i2c_.TransmitBlocking(config_.dev_addr, data, size, 10);
 796              		.loc 13 65 9 view .LVU170
 797              	.LBE1156:
 798              	.LBE1158:
 264:../../libDaisy//src/dev/mpr121.h **** 
 799              		.loc 13 264 17 is_stmt 0 view .LVU171
 800 015c 8DF81D80 		strb	r8, [sp, #29]
 801              	.LBB1159:
 802              	.LBB1157:
  66:../../libDaisy//src/dev/mpr121.h ****     }
 803              		.loc 13 66 40 view .LVU172
 804 0160 FFF7FEFF 		bl	_ZN5daisy9I2CHandle16TransmitBlockingEtPhtm
 805              	.LVL32:
  66:../../libDaisy//src/dev/mpr121.h ****     }
 806              		.loc 13 66 40 view .LVU173
 807              	.LBE1157:
 808              	.LBE1159:
 809              	.LBB1160:
 810              	.LBI1160:
 811              		.loc 13 343 10 is_stmt 1 view .LVU174
 812              	.LBB1161:
 813              		.loc 13 343 55 is_stmt 0 view .LVU175
 814 0164 94F83020 		ldrb	r2, [r4, #48]	@ zero_extendqisi2
 815              	.LBE1161:
 816              	.LBE1160:
 817              	.LBB1164:
 818              	.LBB1165:
  73:../../libDaisy//src/dev/mpr121.h ****     }
 819              		.loc 13 73 39 view .LVU176
 820 0168 3346     		mov	r3, r6
 821 016a 94F82C10 		ldrb	r1, [r4, #44]	@ zero_extendqisi2
 822              	.LBE1165:
 823              	.LBE1164:
ARM GAS  /var/folders/hl/qgbwny5j0fd895c2c41bk3tw0000gp/T//cckqgw4a.s 			page 40


 824              	.LBB1168:
 825              	.LBB1162:
 826              		.loc 13 343 55 view .LVU177
 827 016e 4045     		cmp	r0, r8
 828 0170 18BF     		it	ne
 829 0172 42F00102 		orrne	r2, r2, #1
 830              	.LBE1162:
 831              	.LBE1168:
 832              	.LBB1169:
 833              	.LBB1166:
  73:../../libDaisy//src/dev/mpr121.h ****     }
 834              		.loc 13 73 39 view .LVU178
 835 0176 0095     		str	r5, [sp]
 836 0178 04F11800 		add	r0, r4, #24
 837              	.LVL33:
  73:../../libDaisy//src/dev/mpr121.h ****     }
 838              		.loc 13 73 39 view .LVU179
 839              	.LBE1166:
 840              	.LBE1169:
 841              	.LBB1170:
 842              	.LBB1163:
 843              		.loc 13 343 55 view .LVU180
 844 017c 84F83020 		strb	r2, [r4, #48]
 845              	.LVL34:
 846              		.loc 13 343 55 view .LVU181
 847              	.LBE1163:
 848              	.LBE1170:
 849              	.LBB1171:
 850              	.LBI1164:
  70:../../libDaisy//src/dev/mpr121.h ****     {
 851              		.loc 13 70 10 is_stmt 1 view .LVU182
 852              	.LBB1167:
  72:../../libDaisy//src/dev/mpr121.h ****                != i2c_.ReceiveBlocking(config_.dev_addr, data, size, 10);
 853              		.loc 13 72 9 view .LVU183
  73:../../libDaisy//src/dev/mpr121.h ****     }
 854              		.loc 13 73 39 is_stmt 0 view .LVU184
 855 0180 02AA     		add	r2, sp, #8
 856              	.LVL35:
  73:../../libDaisy//src/dev/mpr121.h ****     }
 857              		.loc 13 73 39 view .LVU185
 858 0182 FFF7FEFF 		bl	_ZN5daisy9I2CHandle15ReceiveBlockingEtPhtm
 859              	.LVL36:
  73:../../libDaisy//src/dev/mpr121.h ****     }
 860              		.loc 13 73 39 view .LVU186
 861              	.LBE1167:
 862              	.LBE1171:
 863              	.LBB1172:
 864              	.LBI1172:
 865              		.loc 13 343 10 is_stmt 1 view .LVU187
 866              	.LBB1173:
 867              		.loc 13 343 55 is_stmt 0 view .LVU188
 868 0186 94F83030 		ldrb	r3, [r4, #48]	@ zero_extendqisi2
 869              	.LBE1173:
 870              	.LBE1172:
 871              	.LBB1176:
 872              	.LBB1177:
  66:../../libDaisy//src/dev/mpr121.h ****     }
ARM GAS  /var/folders/hl/qgbwny5j0fd895c2c41bk3tw0000gp/T//cckqgw4a.s 			page 41


 873              		.loc 13 66 40 view .LVU189
 874 018a 07AA     		add	r2, sp, #28
 875 018c 94F82C10 		ldrb	r1, [r4, #44]	@ zero_extendqisi2
 876              	.LBE1177:
 877              	.LBE1176:
 878              	.LBB1181:
 879              	.LBB1174:
 880              		.loc 13 343 55 view .LVU190
 881 0190 4045     		cmp	r0, r8
 882 0192 18BF     		it	ne
 883 0194 43F00103 		orrne	r3, r3, #1
 884              	.LBE1174:
 885              	.LBE1181:
 886              	.LBB1182:
 887              	.LBB1178:
  66:../../libDaisy//src/dev/mpr121.h ****     }
 888              		.loc 13 66 40 view .LVU191
 889 0198 0095     		str	r5, [sp]
 890 019a 04F11800 		add	r0, r4, #24
 891              	.LVL37:
  66:../../libDaisy//src/dev/mpr121.h ****     }
 892              		.loc 13 66 40 view .LVU192
 893              	.LBE1178:
 894              	.LBE1182:
 281:../../libDaisy//src/dev/mpr121.h ****         buff[1] = value;
 895              		.loc 13 281 17 view .LVU193
 896 019e 8DF81C90 		strb	r9, [sp, #28]
 897              	.LBB1183:
 898              	.LBB1175:
 899              		.loc 13 343 55 view .LVU194
 900 01a2 84F83030 		strb	r3, [r4, #48]
 901              	.LVL38:
 902              		.loc 13 343 55 view .LVU195
 903              	.LBE1175:
 904              	.LBE1183:
 905              	.LBB1184:
 906              	.LBI1176:
  63:../../libDaisy//src/dev/mpr121.h ****     {
 907              		.loc 13 63 10 is_stmt 1 view .LVU196
 908              	.LBB1179:
  65:../../libDaisy//src/dev/mpr121.h ****                != i2c_.TransmitBlocking(config_.dev_addr, data, size, 10);
 909              		.loc 13 65 9 view .LVU197
  66:../../libDaisy//src/dev/mpr121.h ****     }
 910              		.loc 13 66 40 is_stmt 0 view .LVU198
 911 01a6 0223     		movs	r3, #2
 912              	.LBE1179:
 913              	.LBE1184:
 282:../../libDaisy//src/dev/mpr121.h ****         SetTransportErr(transport_.Write(buff, 2));
 914              		.loc 13 282 17 view .LVU199
 915 01a8 8DF81D80 		strb	r8, [sp, #29]
 916              	.LBB1185:
 917              	.LBB1180:
  66:../../libDaisy//src/dev/mpr121.h ****     }
 918              		.loc 13 66 40 view .LVU200
 919 01ac FFF7FEFF 		bl	_ZN5daisy9I2CHandle16TransmitBlockingEtPhtm
 920              	.LVL39:
  66:../../libDaisy//src/dev/mpr121.h ****     }
ARM GAS  /var/folders/hl/qgbwny5j0fd895c2c41bk3tw0000gp/T//cckqgw4a.s 			page 42


 921              		.loc 13 66 40 view .LVU201
 922              	.LBE1180:
 923              	.LBE1185:
 924              	.LBB1186:
 925              	.LBI1186:
 926              		.loc 13 343 10 is_stmt 1 view .LVU202
 927              	.LBB1187:
 928              		.loc 13 343 55 is_stmt 0 view .LVU203
 929 01b0 94F83030 		ldrb	r3, [r4, #48]	@ zero_extendqisi2
 930              	.LBE1187:
 931              	.LBE1186:
 932              	.LBE1153:
 933              	.LBE1152:
 133:../../libDaisy//src/dev/mpr121.h ****         WriteRegister(MPR121_MHDR, 0x01);
 934              		.loc 13 133 22 view .LVU204
 935 01b4 94F814A0 		ldrb	r10, [r4, #20]	@ zero_extendqisi2
 936              	.LBB1194:
 937              	.LBB1192:
 938              	.LBB1190:
 939              	.LBB1188:
 940              		.loc 13 343 55 view .LVU205
 941 01b8 4045     		cmp	r0, r8
 942 01ba 18BF     		it	ne
 943 01bc 43F00103 		orrne	r3, r3, #1
 944              	.LBE1188:
 945              	.LBE1190:
 946              	.LBE1192:
 947              	.LBE1194:
 133:../../libDaisy//src/dev/mpr121.h ****         WriteRegister(MPR121_MHDR, 0x01);
 948              		.loc 13 133 22 view .LVU206
 949 01c0 94F81590 		ldrb	r9, [r4, #21]	@ zero_extendqisi2
 950              	.LBB1195:
 951              	.LBB1193:
 952              	.LBB1191:
 953              	.LBB1189:
 954              		.loc 13 343 55 view .LVU207
 955 01c4 84F83030 		strb	r3, [r4, #48]
 956              	.LVL40:
 957              		.loc 13 343 55 view .LVU208
 958              	.LBE1189:
 959              	.LBE1191:
 960              	.LBE1193:
 961              	.LBE1195:
 962              	.LBB1196:
 963              	.LBI1196:
 177:../../libDaisy//src/dev/mpr121.h ****     {
 964              		.loc 13 177 10 is_stmt 1 view .LVU209
 965              	.LBB1197:
 180:../../libDaisy//src/dev/mpr121.h ****         {
 966              		.loc 13 180 30 view .LVU210
 967              	.L10:
 968              	.LBB1198:
 969              	.LBI1198:
 257:../../libDaisy//src/dev/mpr121.h ****     {
 970              		.loc 13 257 10 view .LVU211
 971              	.LBB1199:
 972              	.LBB1200:
ARM GAS  /var/folders/hl/qgbwny5j0fd895c2c41bk3tw0000gp/T//cckqgw4a.s 			page 43


 973              	.LBB1201:
  66:../../libDaisy//src/dev/mpr121.h ****     }
 974              		.loc 13 66 40 is_stmt 0 view .LVU212
 975 01c8 0A25     		movs	r5, #10
 976              	.LBE1201:
 977              	.LBE1200:
 264:../../libDaisy//src/dev/mpr121.h **** 
 978              		.loc 13 264 17 view .LVU213
 979 01ca 4FF00008 		mov	r8, #0
 980 01ce 5E26     		movs	r6, #94
 981              	.LBB1204:
 982              	.LBB1202:
  66:../../libDaisy//src/dev/mpr121.h ****     }
 983              		.loc 13 66 40 view .LVU214
 984 01d0 0123     		movs	r3, #1
 985 01d2 07AA     		add	r2, sp, #28
 986 01d4 94F82C10 		ldrb	r1, [r4, #44]	@ zero_extendqisi2
 987 01d8 5648     		ldr	r0, .L13+8
 988 01da 0095     		str	r5, [sp]
 989              	.LBE1202:
 990              	.LBE1204:
 264:../../libDaisy//src/dev/mpr121.h **** 
 991              		.loc 13 264 17 view .LVU215
 992 01dc 8DF81D80 		strb	r8, [sp, #29]
 993 01e0 8DF81C60 		strb	r6, [sp, #28]
 994              	.LVL41:
 995              	.LBB1205:
 996              	.LBI1200:
  63:../../libDaisy//src/dev/mpr121.h ****     {
 997              		.loc 13 63 10 is_stmt 1 view .LVU216
 998              	.LBB1203:
  65:../../libDaisy//src/dev/mpr121.h ****                != i2c_.TransmitBlocking(config_.dev_addr, data, size, 10);
 999              		.loc 13 65 9 view .LVU217
  66:../../libDaisy//src/dev/mpr121.h ****     }
 1000              		.loc 13 66 40 is_stmt 0 view .LVU218
 1001 01e4 FFF7FEFF 		bl	_ZN5daisy9I2CHandle16TransmitBlockingEtPhtm
 1002              	.LVL42:
  66:../../libDaisy//src/dev/mpr121.h ****     }
 1003              		.loc 13 66 40 view .LVU219
 1004              	.LBE1203:
 1005              	.LBE1205:
 1006              	.LBB1206:
 1007              	.LBI1206:
 1008              		.loc 13 343 10 is_stmt 1 view .LVU220
 1009              	.LBB1207:
 1010              		.loc 13 343 55 is_stmt 0 view .LVU221
 1011 01e8 94F83010 		ldrb	r1, [r4, #48]	@ zero_extendqisi2
 1012              	.LBE1207:
 1013              	.LBE1206:
 1014              	.LBB1210:
 1015              	.LBB1211:
  73:../../libDaisy//src/dev/mpr121.h ****     }
 1016              		.loc 13 73 39 view .LVU222
 1017 01ec 0123     		movs	r3, #1
 1018 01ee 02AA     		add	r2, sp, #8
 1019 01f0 0095     		str	r5, [sp]
 1020              	.LBE1211:
ARM GAS  /var/folders/hl/qgbwny5j0fd895c2c41bk3tw0000gp/T//cckqgw4a.s 			page 44


 1021              	.LBE1210:
 1022              	.LBB1214:
 1023              	.LBB1208:
 1024              		.loc 13 343 55 view .LVU223
 1025 01f2 4045     		cmp	r0, r8
 1026 01f4 18BF     		it	ne
 1027 01f6 41F00101 		orrne	r1, r1, #1
 1028              	.LBE1208:
 1029              	.LBE1214:
 1030              	.LBB1215:
 1031              	.LBB1212:
  73:../../libDaisy//src/dev/mpr121.h ****     }
 1032              		.loc 13 73 39 view .LVU224
 1033 01fa 4E48     		ldr	r0, .L13+8
 1034              	.LVL43:
  73:../../libDaisy//src/dev/mpr121.h ****     }
 1035              		.loc 13 73 39 view .LVU225
 1036              	.LBE1212:
 1037              	.LBE1215:
 1038              	.LBB1216:
 1039              	.LBB1209:
 1040              		.loc 13 343 55 view .LVU226
 1041 01fc 84F83010 		strb	r1, [r4, #48]
 1042              	.LVL44:
 1043              		.loc 13 343 55 view .LVU227
 1044              	.LBE1209:
 1045              	.LBE1216:
 1046              	.LBB1217:
 1047              	.LBI1210:
  70:../../libDaisy//src/dev/mpr121.h ****     {
 1048              		.loc 13 70 10 is_stmt 1 view .LVU228
 1049              	.LBB1213:
  72:../../libDaisy//src/dev/mpr121.h ****                != i2c_.ReceiveBlocking(config_.dev_addr, data, size, 10);
 1050              		.loc 13 72 9 view .LVU229
  73:../../libDaisy//src/dev/mpr121.h ****     }
 1051              		.loc 13 73 39 is_stmt 0 view .LVU230
 1052 0200 94F82C10 		ldrb	r1, [r4, #44]	@ zero_extendqisi2
 1053 0204 FFF7FEFF 		bl	_ZN5daisy9I2CHandle15ReceiveBlockingEtPhtm
 1054              	.LVL45:
  73:../../libDaisy//src/dev/mpr121.h ****     }
 1055              		.loc 13 73 39 view .LVU231
 1056              	.LBE1213:
 1057              	.LBE1217:
 1058              	.LBB1218:
 1059              	.LBI1218:
 1060              		.loc 13 343 10 is_stmt 1 view .LVU232
 1061              	.LBB1219:
 1062              		.loc 13 343 55 is_stmt 0 view .LVU233
 1063 0208 94F83010 		ldrb	r1, [r4, #48]	@ zero_extendqisi2
 1064              	.LBE1219:
 1065              	.LBE1218:
 1066              	.LBB1222:
 1067              	.LBB1223:
  66:../../libDaisy//src/dev/mpr121.h ****     }
 1068              		.loc 13 66 40 view .LVU234
 1069 020c 0223     		movs	r3, #2
 1070 020e 07AA     		add	r2, sp, #28
ARM GAS  /var/folders/hl/qgbwny5j0fd895c2c41bk3tw0000gp/T//cckqgw4a.s 			page 45


 1071              	.LBE1223:
 1072              	.LBE1222:
 1073              	.LBB1226:
 1074              	.LBB1220:
 1075              		.loc 13 343 55 view .LVU235
 1076 0210 4045     		cmp	r0, r8
 1077 0212 18BF     		it	ne
 1078 0214 41F00101 		orrne	r1, r1, #1
 1079              	.LBE1220:
 1080              	.LBE1226:
 1081              	.LBB1227:
 1082              	.LBB1224:
  66:../../libDaisy//src/dev/mpr121.h ****     }
 1083              		.loc 13 66 40 view .LVU236
 1084 0218 0095     		str	r5, [sp]
 1085 021a 4648     		ldr	r0, .L13+8
 1086              	.LVL46:
  66:../../libDaisy//src/dev/mpr121.h ****     }
 1087              		.loc 13 66 40 view .LVU237
 1088              	.LBE1224:
 1089              	.LBE1227:
 1090              	.LBB1228:
 1091              	.LBB1221:
 1092              		.loc 13 343 55 view .LVU238
 1093 021c 84F83010 		strb	r1, [r4, #48]
 1094              	.LVL47:
 1095              		.loc 13 343 55 view .LVU239
 1096              	.LBE1221:
 1097              	.LBE1228:
 1098              	.LBB1229:
 1099              	.LBI1222:
  63:../../libDaisy//src/dev/mpr121.h ****     {
 1100              		.loc 13 63 10 is_stmt 1 view .LVU240
 1101              	.LBB1225:
  65:../../libDaisy//src/dev/mpr121.h ****                != i2c_.TransmitBlocking(config_.dev_addr, data, size, 10);
 1102              		.loc 13 65 9 view .LVU241
  66:../../libDaisy//src/dev/mpr121.h ****     }
 1103              		.loc 13 66 40 is_stmt 0 view .LVU242
 1104 0220 94F82C10 		ldrb	r1, [r4, #44]	@ zero_extendqisi2
 1105 0224 FFF7FEFF 		bl	_ZN5daisy9I2CHandle16TransmitBlockingEtPhtm
 1106              	.LVL48:
  66:../../libDaisy//src/dev/mpr121.h ****     }
 1107              		.loc 13 66 40 view .LVU243
 1108              	.LBE1225:
 1109              	.LBE1229:
 1110              	.LBB1230:
 1111              	.LBI1230:
 1112              		.loc 13 343 10 is_stmt 1 view .LVU244
 1113              	.LBB1231:
 1114              		.loc 13 343 55 is_stmt 0 view .LVU245
 1115 0228 94F83010 		ldrb	r1, [r4, #48]	@ zero_extendqisi2
 1116              	.LBE1231:
 1117              	.LBE1230:
 1118              	.LBB1234:
 1119              	.LBB1235:
  66:../../libDaisy//src/dev/mpr121.h ****     }
 1120              		.loc 13 66 40 view .LVU246
ARM GAS  /var/folders/hl/qgbwny5j0fd895c2c41bk3tw0000gp/T//cckqgw4a.s 			page 46


 1121 022c 0223     		movs	r3, #2
 1122 022e 07AA     		add	r2, sp, #28
 1123              	.LBE1235:
 1124              	.LBE1234:
 1125              	.LBB1239:
 1126              	.LBB1232:
 1127              		.loc 13 343 55 view .LVU247
 1128 0230 4045     		cmp	r0, r8
 1129 0232 18BF     		it	ne
 1130 0234 41F00101 		orrne	r1, r1, #1
 1131              	.LBE1232:
 1132              	.LBE1239:
 1133              	.LBB1240:
 1134              	.LBB1236:
  66:../../libDaisy//src/dev/mpr121.h ****     }
 1135              		.loc 13 66 40 view .LVU248
 1136 0238 0095     		str	r5, [sp]
 1137 023a 3E48     		ldr	r0, .L13+8
 1138              	.LVL49:
  66:../../libDaisy//src/dev/mpr121.h ****     }
 1139              		.loc 13 66 40 view .LVU249
 1140              	.LBE1236:
 1141              	.LBE1240:
 1142              	.LBB1241:
 1143              	.LBB1233:
 1144              		.loc 13 343 55 view .LVU250
 1145 023c 84F83010 		strb	r1, [r4, #48]
 1146              	.LVL50:
 1147              		.loc 13 343 55 view .LVU251
 1148              	.LBE1233:
 1149              	.LBE1241:
 1150              	.LBB1242:
 1151              	.LBI1234:
  63:../../libDaisy//src/dev/mpr121.h ****     {
 1152              		.loc 13 63 10 is_stmt 1 view .LVU252
 1153              	.LBB1237:
  65:../../libDaisy//src/dev/mpr121.h ****                != i2c_.TransmitBlocking(config_.dev_addr, data, size, 10);
 1154              		.loc 13 65 9 view .LVU253
  66:../../libDaisy//src/dev/mpr121.h ****     }
 1155              		.loc 13 66 40 is_stmt 0 view .LVU254
 1156 0240 94F82C10 		ldrb	r1, [r4, #44]	@ zero_extendqisi2
 1157              	.LBE1237:
 1158              	.LBE1242:
 281:../../libDaisy//src/dev/mpr121.h ****         buff[1] = value;
 1159              		.loc 13 281 17 view .LVU255
 1160 0244 8DF81C70 		strb	r7, [sp, #28]
 282:../../libDaisy//src/dev/mpr121.h ****         SetTransportErr(transport_.Write(buff, 2));
 1161              		.loc 13 282 17 view .LVU256
 1162 0248 8DF81DA0 		strb	r10, [sp, #29]
 1163              	.LBB1243:
 1164              	.LBB1238:
  66:../../libDaisy//src/dev/mpr121.h ****     }
 1165              		.loc 13 66 40 view .LVU257
 1166 024c FFF7FEFF 		bl	_ZN5daisy9I2CHandle16TransmitBlockingEtPhtm
 1167              	.LVL51:
  66:../../libDaisy//src/dev/mpr121.h ****     }
 1168              		.loc 13 66 40 view .LVU258
ARM GAS  /var/folders/hl/qgbwny5j0fd895c2c41bk3tw0000gp/T//cckqgw4a.s 			page 47


 1169              	.LBE1238:
 1170              	.LBE1243:
 1171              	.LBB1244:
 1172              	.LBI1244:
 1173              		.loc 13 343 10 is_stmt 1 view .LVU259
 1174              	.LBB1245:
 1175              		.loc 13 343 55 is_stmt 0 view .LVU260
 1176 0250 94F830C0 		ldrb	ip, [r4, #48]	@ zero_extendqisi2
 1177              	.LBE1245:
 1178              	.LBE1244:
 1179              	.LBB1248:
 1180              	.LBB1249:
  66:../../libDaisy//src/dev/mpr121.h ****     }
 1181              		.loc 13 66 40 view .LVU261
 1182 0254 0223     		movs	r3, #2
 1183              	.LBE1249:
 1184              	.LBE1248:
 289:../../libDaisy//src/dev/mpr121.h ****             SetTransportErr(transport_.Write(buff, 2));
 1185              		.loc 13 289 21 view .LVU262
 1186 0256 9DF80820 		ldrb	r2, [sp, #8]	@ zero_extendqisi2
 1187              	.LBB1254:
 1188              	.LBB1246:
 1189              		.loc 13 343 55 view .LVU263
 1190 025a 4045     		cmp	r0, r8
 1191 025c 18BF     		it	ne
 1192 025e 4CF0010C 		orrne	ip, ip, #1
 1193              	.LBE1246:
 1194              	.LBE1254:
 1195              	.LBB1255:
 1196              	.LBB1250:
  66:../../libDaisy//src/dev/mpr121.h ****     }
 1197              		.loc 13 66 40 view .LVU264
 1198 0262 94F82C10 		ldrb	r1, [r4, #44]	@ zero_extendqisi2
 1199              	.LBE1250:
 1200              	.LBE1255:
 289:../../libDaisy//src/dev/mpr121.h ****             SetTransportErr(transport_.Write(buff, 2));
 1201              		.loc 13 289 21 view .LVU265
 1202 0266 8DF81D20 		strb	r2, [sp, #29]
 1203              	.LBB1256:
 1204              	.LBB1251:
  66:../../libDaisy//src/dev/mpr121.h ****     }
 1205              		.loc 13 66 40 view .LVU266
 1206 026a 07AA     		add	r2, sp, #28
 1207 026c 3148     		ldr	r0, .L13+8
 1208              	.LVL52:
  66:../../libDaisy//src/dev/mpr121.h ****     }
 1209              		.loc 13 66 40 view .LVU267
 1210 026e 0095     		str	r5, [sp]
 1211              	.LBE1251:
 1212              	.LBE1256:
 1213              	.LBB1257:
 1214              	.LBB1247:
 1215              		.loc 13 343 55 view .LVU268
 1216 0270 84F830C0 		strb	ip, [r4, #48]
 1217              	.LVL53:
 1218              		.loc 13 343 55 view .LVU269
 1219              	.LBE1247:
ARM GAS  /var/folders/hl/qgbwny5j0fd895c2c41bk3tw0000gp/T//cckqgw4a.s 			page 48


 1220              	.LBE1257:
 1221              	.LBB1258:
 1222              	.LBI1248:
  63:../../libDaisy//src/dev/mpr121.h ****     {
 1223              		.loc 13 63 10 is_stmt 1 view .LVU270
 1224              	.LBB1252:
  65:../../libDaisy//src/dev/mpr121.h ****                != i2c_.TransmitBlocking(config_.dev_addr, data, size, 10);
 1225              		.loc 13 65 9 view .LVU271
 1226              	.LBE1252:
 1227              	.LBE1258:
 288:../../libDaisy//src/dev/mpr121.h ****             buff[1] = ecr_backup;
 1228              		.loc 13 288 21 is_stmt 0 view .LVU272
 1229 0274 8DF81C60 		strb	r6, [sp, #28]
 1230              	.LBB1259:
 1231              	.LBB1253:
  66:../../libDaisy//src/dev/mpr121.h ****     }
 1232              		.loc 13 66 40 view .LVU273
 1233 0278 FFF7FEFF 		bl	_ZN5daisy9I2CHandle16TransmitBlockingEtPhtm
 1234              	.LVL54:
  66:../../libDaisy//src/dev/mpr121.h ****     }
 1235              		.loc 13 66 40 view .LVU274
 1236              	.LBE1253:
 1237              	.LBE1259:
 1238              	.LBB1260:
 1239              	.LBI1260:
 1240              		.loc 13 343 10 is_stmt 1 view .LVU275
 1241              	.LBB1261:
 1242              		.loc 13 343 55 is_stmt 0 view .LVU276
 1243 027c 94F83010 		ldrb	r1, [r4, #48]	@ zero_extendqisi2
 1244              	.LBE1261:
 1245              	.LBE1260:
 1246              	.LBE1199:
 1247              	.LBE1198:
 1248              	.LBB1268:
 1249              	.LBB1269:
 1250              	.LBB1270:
 1251              	.LBB1271:
  66:../../libDaisy//src/dev/mpr121.h ****     }
 1252              		.loc 13 66 40 view .LVU277
 1253 0280 0123     		movs	r3, #1
 1254 0282 07AA     		add	r2, sp, #28
 1255 0284 0095     		str	r5, [sp]
 1256              	.LBE1271:
 1257              	.LBE1270:
 1258              	.LBE1269:
 1259              	.LBE1268:
 1260              	.LBB1341:
 1261              	.LBB1266:
 1262              	.LBB1264:
 1263              	.LBB1262:
 1264              		.loc 13 343 55 view .LVU278
 1265 0286 4045     		cmp	r0, r8
 1266 0288 18BF     		it	ne
 1267 028a 41F00101 		orrne	r1, r1, #1
 1268              	.LBE1262:
 1269              	.LBE1264:
 1270              	.LBE1266:
ARM GAS  /var/folders/hl/qgbwny5j0fd895c2c41bk3tw0000gp/T//cckqgw4a.s 			page 49


 1271              	.LBE1341:
 1272              	.LBB1342:
 1273              	.LBB1336:
 1274              	.LBB1275:
 1275              	.LBB1272:
  66:../../libDaisy//src/dev/mpr121.h ****     }
 1276              		.loc 13 66 40 view .LVU279
 1277 028e 2948     		ldr	r0, .L13+8
 1278              	.LVL55:
  66:../../libDaisy//src/dev/mpr121.h ****     }
 1279              		.loc 13 66 40 view .LVU280
 1280              	.LBE1272:
 1281              	.LBE1275:
 264:../../libDaisy//src/dev/mpr121.h **** 
 1282              		.loc 13 264 17 view .LVU281
 1283 0290 8DF81D80 		strb	r8, [sp, #29]
 1284              	.LBE1336:
 1285              	.LBE1342:
 1286              	.LBB1343:
 1287              	.LBB1267:
 1288              	.LBB1265:
 1289              	.LBB1263:
 1290              		.loc 13 343 55 view .LVU282
 1291 0294 84F83010 		strb	r1, [r4, #48]
 1292              	.LVL56:
 1293              		.loc 13 343 55 view .LVU283
 1294              	.LBE1263:
 1295              	.LBE1265:
 1296              	.LBE1267:
 1297              	.LBE1343:
 1298              	.LBB1344:
 1299              	.LBI1268:
 257:../../libDaisy//src/dev/mpr121.h ****     {
 1300              		.loc 13 257 10 is_stmt 1 view .LVU284
 1301              	.LBB1337:
 1302              	.LBB1276:
 1303              	.LBI1270:
  63:../../libDaisy//src/dev/mpr121.h ****     {
 1304              		.loc 13 63 10 view .LVU285
 1305              	.LBB1273:
  65:../../libDaisy//src/dev/mpr121.h ****                != i2c_.TransmitBlocking(config_.dev_addr, data, size, 10);
 1306              		.loc 13 65 9 view .LVU286
  66:../../libDaisy//src/dev/mpr121.h ****     }
 1307              		.loc 13 66 40 is_stmt 0 view .LVU287
 1308 0298 94F82C10 		ldrb	r1, [r4, #44]	@ zero_extendqisi2
 1309              	.LBE1273:
 1310              	.LBE1276:
 264:../../libDaisy//src/dev/mpr121.h **** 
 1311              		.loc 13 264 17 view .LVU288
 1312 029c 8DF81C60 		strb	r6, [sp, #28]
 1313              	.LBB1277:
 1314              	.LBB1274:
  66:../../libDaisy//src/dev/mpr121.h ****     }
 1315              		.loc 13 66 40 view .LVU289
 1316 02a0 FFF7FEFF 		bl	_ZN5daisy9I2CHandle16TransmitBlockingEtPhtm
 1317              	.LVL57:
  66:../../libDaisy//src/dev/mpr121.h ****     }
ARM GAS  /var/folders/hl/qgbwny5j0fd895c2c41bk3tw0000gp/T//cckqgw4a.s 			page 50


 1318              		.loc 13 66 40 view .LVU290
 1319              	.LBE1274:
 1320              	.LBE1277:
 1321              	.LBB1278:
 1322              	.LBI1278:
 1323              		.loc 13 343 10 is_stmt 1 view .LVU291
 1324              	.LBB1279:
 1325              		.loc 13 343 55 is_stmt 0 view .LVU292
 1326 02a4 94F83010 		ldrb	r1, [r4, #48]	@ zero_extendqisi2
 1327              	.LBE1279:
 1328              	.LBE1278:
 1329              	.LBB1282:
 1330              	.LBB1283:
  73:../../libDaisy//src/dev/mpr121.h ****     }
 1331              		.loc 13 73 39 view .LVU293
 1332 02a8 0123     		movs	r3, #1
 1333 02aa 02AA     		add	r2, sp, #8
 1334 02ac 0095     		str	r5, [sp]
 1335              	.LBE1283:
 1336              	.LBE1282:
 1337              	.LBB1286:
 1338              	.LBB1280:
 1339              		.loc 13 343 55 view .LVU294
 1340 02ae 4045     		cmp	r0, r8
 1341 02b0 18BF     		it	ne
 1342 02b2 41F00101 		orrne	r1, r1, #1
 1343              	.LBE1280:
 1344              	.LBE1286:
 1345              	.LBB1287:
 1346              	.LBB1284:
  73:../../libDaisy//src/dev/mpr121.h ****     }
 1347              		.loc 13 73 39 view .LVU295
 1348 02b6 1F48     		ldr	r0, .L13+8
 1349              	.LVL58:
  73:../../libDaisy//src/dev/mpr121.h ****     }
 1350              		.loc 13 73 39 view .LVU296
 1351              	.LBE1284:
 1352              	.LBE1287:
 1353              	.LBB1288:
 1354              	.LBB1281:
 1355              		.loc 13 343 55 view .LVU297
 1356 02b8 84F83010 		strb	r1, [r4, #48]
 1357              	.LVL59:
 1358              		.loc 13 343 55 view .LVU298
 1359              	.LBE1281:
 1360              	.LBE1288:
 1361              	.LBB1289:
 1362              	.LBI1282:
  70:../../libDaisy//src/dev/mpr121.h ****     {
 1363              		.loc 13 70 10 is_stmt 1 view .LVU299
 1364              	.LBB1285:
  72:../../libDaisy//src/dev/mpr121.h ****                != i2c_.ReceiveBlocking(config_.dev_addr, data, size, 10);
 1365              		.loc 13 72 9 view .LVU300
  73:../../libDaisy//src/dev/mpr121.h ****     }
 1366              		.loc 13 73 39 is_stmt 0 view .LVU301
 1367 02bc 94F82C10 		ldrb	r1, [r4, #44]	@ zero_extendqisi2
 1368 02c0 FFF7FEFF 		bl	_ZN5daisy9I2CHandle15ReceiveBlockingEtPhtm
ARM GAS  /var/folders/hl/qgbwny5j0fd895c2c41bk3tw0000gp/T//cckqgw4a.s 			page 51


 1369              	.LVL60:
  73:../../libDaisy//src/dev/mpr121.h ****     }
 1370              		.loc 13 73 39 view .LVU302
 1371              	.LBE1285:
 1372              	.LBE1289:
 1373              	.LBB1290:
 1374              	.LBI1290:
 1375              		.loc 13 343 10 is_stmt 1 view .LVU303
 1376              	.LBB1291:
 1377              		.loc 13 343 55 is_stmt 0 view .LVU304
 1378 02c4 94F83010 		ldrb	r1, [r4, #48]	@ zero_extendqisi2
 1379              	.LBE1291:
 1380              	.LBE1290:
 1381              	.LBB1294:
 1382              	.LBB1295:
  66:../../libDaisy//src/dev/mpr121.h ****     }
 1383              		.loc 13 66 40 view .LVU305
 1384 02c8 0223     		movs	r3, #2
 1385 02ca 07AA     		add	r2, sp, #28
 1386              	.LBE1295:
 1387              	.LBE1294:
 1388              	.LBB1298:
 1389              	.LBB1292:
 1390              		.loc 13 343 55 view .LVU306
 1391 02cc 4045     		cmp	r0, r8
 1392 02ce 18BF     		it	ne
 1393 02d0 41F00101 		orrne	r1, r1, #1
 1394              	.LBE1292:
 1395              	.LBE1298:
 1396              	.LBB1299:
 1397              	.LBB1296:
  66:../../libDaisy//src/dev/mpr121.h ****     }
 1398              		.loc 13 66 40 view .LVU307
 1399 02d4 0095     		str	r5, [sp]
 1400 02d6 1748     		ldr	r0, .L13+8
 1401              	.LVL61:
  66:../../libDaisy//src/dev/mpr121.h ****     }
 1402              		.loc 13 66 40 view .LVU308
 1403              	.LBE1296:
 1404              	.LBE1299:
 1405              	.LBB1300:
 1406              	.LBB1293:
 1407              		.loc 13 343 55 view .LVU309
 1408 02d8 84F83010 		strb	r1, [r4, #48]
 1409              	.LVL62:
 1410              		.loc 13 343 55 view .LVU310
 1411              	.LBE1293:
 1412              	.LBE1300:
 1413              	.LBB1301:
 1414              	.LBI1294:
  63:../../libDaisy//src/dev/mpr121.h ****     {
 1415              		.loc 13 63 10 is_stmt 1 view .LVU311
 1416              	.LBB1297:
  65:../../libDaisy//src/dev/mpr121.h ****                != i2c_.TransmitBlocking(config_.dev_addr, data, size, 10);
 1417              		.loc 13 65 9 view .LVU312
  66:../../libDaisy//src/dev/mpr121.h ****     }
 1418              		.loc 13 66 40 is_stmt 0 view .LVU313
ARM GAS  /var/folders/hl/qgbwny5j0fd895c2c41bk3tw0000gp/T//cckqgw4a.s 			page 52


 1419 02dc 94F82C10 		ldrb	r1, [r4, #44]	@ zero_extendqisi2
 1420 02e0 FFF7FEFF 		bl	_ZN5daisy9I2CHandle16TransmitBlockingEtPhtm
 1421              	.LVL63:
  66:../../libDaisy//src/dev/mpr121.h ****     }
 1422              		.loc 13 66 40 view .LVU314
 1423              	.LBE1297:
 1424              	.LBE1301:
 1425              	.LBB1302:
 1426              	.LBI1302:
 1427              		.loc 13 343 10 is_stmt 1 view .LVU315
 1428              	.LBB1303:
 1429              		.loc 13 343 55 is_stmt 0 view .LVU316
 1430 02e4 94F830C0 		ldrb	ip, [r4, #48]	@ zero_extendqisi2
 1431              	.LBE1303:
 1432              	.LBE1302:
 281:../../libDaisy//src/dev/mpr121.h ****         buff[1] = value;
 1433              		.loc 13 281 17 view .LVU317
 1434 02e8 7A1C     		adds	r2, r7, #1
 1435              	.LBB1306:
 1436              	.LBB1307:
  66:../../libDaisy//src/dev/mpr121.h ****     }
 1437              		.loc 13 66 40 view .LVU318
 1438 02ea 0223     		movs	r3, #2
 1439              	.LBE1307:
 1440              	.LBE1306:
 1441              	.LBB1312:
 1442              	.LBB1304:
 1443              		.loc 13 343 55 view .LVU319
 1444 02ec 4045     		cmp	r0, r8
 1445 02ee 18BF     		it	ne
 1446 02f0 4CF0010C 		orrne	ip, ip, #1
 1447              	.LBE1304:
 1448              	.LBE1312:
 1449              	.LBB1313:
 1450              	.LBB1308:
  66:../../libDaisy//src/dev/mpr121.h ****     }
 1451              		.loc 13 66 40 view .LVU320
 1452 02f4 94F82C10 		ldrb	r1, [r4, #44]	@ zero_extendqisi2
 1453              	.LBE1308:
 1454              	.LBE1313:
 281:../../libDaisy//src/dev/mpr121.h ****         buff[1] = value;
 1455              		.loc 13 281 17 view .LVU321
 1456 02f8 8DF81C20 		strb	r2, [sp, #28]
 1457              	.LBB1314:
 1458              	.LBB1309:
  66:../../libDaisy//src/dev/mpr121.h ****     }
 1459              		.loc 13 66 40 view .LVU322
 1460 02fc 07AA     		add	r2, sp, #28
 1461 02fe 0D48     		ldr	r0, .L13+8
 1462              	.LVL64:
  66:../../libDaisy//src/dev/mpr121.h ****     }
 1463              		.loc 13 66 40 view .LVU323
 1464              	.LBE1309:
 1465              	.LBE1314:
 1466              	.LBE1337:
 1467              	.LBE1344:
 180:../../libDaisy//src/dev/mpr121.h ****         {
ARM GAS  /var/folders/hl/qgbwny5j0fd895c2c41bk3tw0000gp/T//cckqgw4a.s 			page 53


 1468              		.loc 13 180 30 view .LVU324
 1469 0300 0237     		adds	r7, r7, #2
 1470              	.LVL65:
 1471              	.LBB1345:
 1472              	.LBB1338:
 1473              	.LBB1315:
 1474              	.LBB1310:
  66:../../libDaisy//src/dev/mpr121.h ****     }
 1475              		.loc 13 66 40 view .LVU325
 1476 0302 0095     		str	r5, [sp]
 1477              	.LBE1310:
 1478              	.LBE1315:
 1479              	.LBB1316:
 1480              	.LBB1305:
 1481              		.loc 13 343 55 view .LVU326
 1482 0304 84F830C0 		strb	ip, [r4, #48]
 1483              	.LVL66:
 1484              		.loc 13 343 55 view .LVU327
 1485              	.LBE1305:
 1486              	.LBE1316:
 1487              	.LBE1338:
 1488              	.LBE1345:
 180:../../libDaisy//src/dev/mpr121.h ****         {
 1489              		.loc 13 180 30 view .LVU328
 1490 0308 FFB2     		uxtb	r7, r7
 1491              	.LBB1346:
 1492              	.LBB1339:
 282:../../libDaisy//src/dev/mpr121.h ****         SetTransportErr(transport_.Write(buff, 2));
 1493              		.loc 13 282 17 view .LVU329
 1494 030a 8DF81D90 		strb	r9, [sp, #29]
 1495              	.LVL67:
 1496              	.LBB1317:
 1497              	.LBI1306:
  63:../../libDaisy//src/dev/mpr121.h ****     {
 1498              		.loc 13 63 10 is_stmt 1 view .LVU330
 1499              	.LBB1311:
  65:../../libDaisy//src/dev/mpr121.h ****                != i2c_.TransmitBlocking(config_.dev_addr, data, size, 10);
 1500              		.loc 13 65 9 view .LVU331
  66:../../libDaisy//src/dev/mpr121.h ****     }
 1501              		.loc 13 66 40 is_stmt 0 view .LVU332
 1502 030e FFF7FEFF 		bl	_ZN5daisy9I2CHandle16TransmitBlockingEtPhtm
 1503              	.LVL68:
  66:../../libDaisy//src/dev/mpr121.h ****     }
 1504              		.loc 13 66 40 view .LVU333
 1505              	.LBE1311:
 1506              	.LBE1317:
 1507              	.LBB1318:
 1508              	.LBI1318:
 1509              		.loc 13 343 10 is_stmt 1 view .LVU334
 1510              	.LBB1319:
 1511              		.loc 13 343 55 is_stmt 0 view .LVU335
 1512 0312 94F830C0 		ldrb	ip, [r4, #48]	@ zero_extendqisi2
 1513              	.LBE1319:
 1514              	.LBE1318:
 1515              	.LBB1322:
 1516              	.LBB1323:
  66:../../libDaisy//src/dev/mpr121.h ****     }
ARM GAS  /var/folders/hl/qgbwny5j0fd895c2c41bk3tw0000gp/T//cckqgw4a.s 			page 54


 1517              		.loc 13 66 40 view .LVU336
 1518 0316 0223     		movs	r3, #2
 1519              	.LBE1323:
 1520              	.LBE1322:
 289:../../libDaisy//src/dev/mpr121.h ****             SetTransportErr(transport_.Write(buff, 2));
 1521              		.loc 13 289 21 view .LVU337
 1522 0318 9DF80820 		ldrb	r2, [sp, #8]	@ zero_extendqisi2
 1523              	.LBB1327:
 1524              	.LBB1320:
 1525              		.loc 13 343 55 view .LVU338
 1526 031c 4045     		cmp	r0, r8
 1527 031e 18BF     		it	ne
 1528 0320 4CF0010C 		orrne	ip, ip, #1
 1529              	.LBE1320:
 1530              	.LBE1327:
 1531              	.LBB1328:
 1532              	.LBB1324:
  66:../../libDaisy//src/dev/mpr121.h ****     }
 1533              		.loc 13 66 40 view .LVU339
 1534 0324 94F82C10 		ldrb	r1, [r4, #44]	@ zero_extendqisi2
 1535 0328 06E0     		b	.L14
 1536              	.L15:
 1537 032a 00BF     		.align	2
 1538              	.L13:
 1539 032c 01080109 		.word	151062529
 1540 0330 00000000 		.word	.LANCHOR0
 1541 0334 18000000 		.word	.LANCHOR0+24
 1542              	.L14:
 1543              	.LBE1324:
 1544              	.LBE1328:
 289:../../libDaisy//src/dev/mpr121.h ****             SetTransportErr(transport_.Write(buff, 2));
 1545              		.loc 13 289 21 view .LVU340
 1546 0338 8DF81D20 		strb	r2, [sp, #29]
 1547              	.LBB1329:
 1548              	.LBB1325:
  66:../../libDaisy//src/dev/mpr121.h ****     }
 1549              		.loc 13 66 40 view .LVU341
 1550 033c 07AA     		add	r2, sp, #28
 1551 033e C048     		ldr	r0, .L16
 1552              	.LVL69:
  66:../../libDaisy//src/dev/mpr121.h ****     }
 1553              		.loc 13 66 40 view .LVU342
 1554 0340 0095     		str	r5, [sp]
 1555              	.LBE1325:
 1556              	.LBE1329:
 288:../../libDaisy//src/dev/mpr121.h ****             buff[1] = ecr_backup;
 1557              		.loc 13 288 21 view .LVU343
 1558 0342 8DF81C60 		strb	r6, [sp, #28]
 1559              	.LBB1330:
 1560              	.LBB1321:
 1561              		.loc 13 343 55 view .LVU344
 1562 0346 84F830C0 		strb	ip, [r4, #48]
 1563              	.LVL70:
 1564              		.loc 13 343 55 view .LVU345
 1565              	.LBE1321:
 1566              	.LBE1330:
 1567              	.LBB1331:
ARM GAS  /var/folders/hl/qgbwny5j0fd895c2c41bk3tw0000gp/T//cckqgw4a.s 			page 55


 1568              	.LBI1322:
  63:../../libDaisy//src/dev/mpr121.h ****     {
 1569              		.loc 13 63 10 is_stmt 1 view .LVU346
 1570              	.LBB1326:
  65:../../libDaisy//src/dev/mpr121.h ****                != i2c_.TransmitBlocking(config_.dev_addr, data, size, 10);
 1571              		.loc 13 65 9 view .LVU347
  66:../../libDaisy//src/dev/mpr121.h ****     }
 1572              		.loc 13 66 40 is_stmt 0 view .LVU348
 1573 034a FFF7FEFF 		bl	_ZN5daisy9I2CHandle16TransmitBlockingEtPhtm
 1574              	.LVL71:
  66:../../libDaisy//src/dev/mpr121.h ****     }
 1575              		.loc 13 66 40 view .LVU349
 1576              	.LBE1326:
 1577              	.LBE1331:
 1578              	.LBB1332:
 1579              	.LBI1332:
 1580              		.loc 13 343 10 is_stmt 1 view .LVU350
 1581              	.LBB1333:
 1582              		.loc 13 343 55 is_stmt 0 view .LVU351
 1583 034e 94F83030 		ldrb	r3, [r4, #48]	@ zero_extendqisi2
 1584 0352 4045     		cmp	r0, r8
 1585 0354 18BF     		it	ne
 1586 0356 43F00103 		orrne	r3, r3, #1
 1587              	.LBE1333:
 1588              	.LBE1332:
 1589              	.LBE1339:
 1590              	.LBE1346:
 180:../../libDaisy//src/dev/mpr121.h ****         {
 1591              		.loc 13 180 30 view .LVU352
 1592 035a 592F     		cmp	r7, #89
 1593              	.LBB1347:
 1594              	.LBB1340:
 1595              	.LBB1335:
 1596              	.LBB1334:
 1597              		.loc 13 343 55 view .LVU353
 1598 035c 84F83030 		strb	r3, [r4, #48]
 1599              	.LVL72:
 1600              		.loc 13 343 55 view .LVU354
 1601              	.LBE1334:
 1602              	.LBE1335:
 1603              	.LBE1340:
 1604              	.LBE1347:
 180:../../libDaisy//src/dev/mpr121.h ****         {
 1605              		.loc 13 180 9 is_stmt 1 view .LVU355
 180:../../libDaisy//src/dev/mpr121.h ****         {
 1606              		.loc 13 180 30 view .LVU356
 1607 0360 7FF432AF 		bne	.L10
 1608              	.LVL73:
 180:../../libDaisy//src/dev/mpr121.h ****         {
 1609              		.loc 13 180 30 is_stmt 0 view .LVU357
 1610              	.LBE1197:
 1611              	.LBE1196:
 1612              	.LBB1348:
 1613              	.LBI1348:
 257:../../libDaisy//src/dev/mpr121.h ****     {
 1614              		.loc 13 257 10 is_stmt 1 view .LVU358
 1615              	.LBB1349:
ARM GAS  /var/folders/hl/qgbwny5j0fd895c2c41bk3tw0000gp/T//cckqgw4a.s 			page 56


 1616              	.LBB1350:
 1617              	.LBB1351:
  66:../../libDaisy//src/dev/mpr121.h ****     }
 1618              		.loc 13 66 40 is_stmt 0 view .LVU359
 1619 0364 07AA     		add	r2, sp, #28
 1620 0366 94F82C10 		ldrb	r1, [r4, #44]	@ zero_extendqisi2
 1621 036a 0123     		movs	r3, #1
 1622 036c 0095     		str	r5, [sp]
 1623 036e B448     		ldr	r0, .L16
 1624              	.LBE1351:
 1625              	.LBE1350:
 282:../../libDaisy//src/dev/mpr121.h ****         SetTransportErr(transport_.Write(buff, 2));
 1626              		.loc 13 282 17 view .LVU360
 1627 0370 0127     		movs	r7, #1
 264:../../libDaisy//src/dev/mpr121.h **** 
 1628              		.loc 13 264 17 view .LVU361
 1629 0372 8DF81D80 		strb	r8, [sp, #29]
 1630 0376 8DF81C60 		strb	r6, [sp, #28]
 1631              	.LVL74:
 1632              	.LBB1353:
 1633              	.LBI1350:
  63:../../libDaisy//src/dev/mpr121.h ****     {
 1634              		.loc 13 63 10 is_stmt 1 view .LVU362
 1635              	.LBB1352:
  65:../../libDaisy//src/dev/mpr121.h ****                != i2c_.TransmitBlocking(config_.dev_addr, data, size, 10);
 1636              		.loc 13 65 9 view .LVU363
  66:../../libDaisy//src/dev/mpr121.h ****     }
 1637              		.loc 13 66 40 is_stmt 0 view .LVU364
 1638 037a FFF7FEFF 		bl	_ZN5daisy9I2CHandle16TransmitBlockingEtPhtm
 1639              	.LVL75:
  66:../../libDaisy//src/dev/mpr121.h ****     }
 1640              		.loc 13 66 40 view .LVU365
 1641              	.LBE1352:
 1642              	.LBE1353:
 1643              	.LBB1354:
 1644              	.LBI1354:
 1645              		.loc 13 343 10 is_stmt 1 view .LVU366
 1646              	.LBB1355:
 1647              		.loc 13 343 55 is_stmt 0 view .LVU367
 1648 037e 94F83030 		ldrb	r3, [r4, #48]	@ zero_extendqisi2
 1649              	.LBE1355:
 1650              	.LBE1354:
 1651              	.LBB1358:
 1652              	.LBB1359:
  73:../../libDaisy//src/dev/mpr121.h ****     }
 1653              		.loc 13 73 39 view .LVU368
 1654 0382 02AA     		add	r2, sp, #8
 1655 0384 94F82C10 		ldrb	r1, [r4, #44]	@ zero_extendqisi2
 1656              	.LBE1359:
 1657              	.LBE1358:
 1658              	.LBB1362:
 1659              	.LBB1356:
 1660              		.loc 13 343 55 view .LVU369
 1661 0388 4045     		cmp	r0, r8
 1662 038a 18BF     		it	ne
 1663 038c 43F00103 		orrne	r3, r3, #1
 1664              	.LBE1356:
ARM GAS  /var/folders/hl/qgbwny5j0fd895c2c41bk3tw0000gp/T//cckqgw4a.s 			page 57


 1665              	.LBE1362:
 1666              	.LBB1363:
 1667              	.LBB1360:
  73:../../libDaisy//src/dev/mpr121.h ****     }
 1668              		.loc 13 73 39 view .LVU370
 1669 0390 0095     		str	r5, [sp]
 1670 0392 AB48     		ldr	r0, .L16
 1671              	.LVL76:
  73:../../libDaisy//src/dev/mpr121.h ****     }
 1672              		.loc 13 73 39 view .LVU371
 1673              	.LBE1360:
 1674              	.LBE1363:
 1675              	.LBB1364:
 1676              	.LBB1357:
 1677              		.loc 13 343 55 view .LVU372
 1678 0394 84F83030 		strb	r3, [r4, #48]
 1679              	.LVL77:
 1680              		.loc 13 343 55 view .LVU373
 1681              	.LBE1357:
 1682              	.LBE1364:
 1683              	.LBB1365:
 1684              	.LBI1358:
  70:../../libDaisy//src/dev/mpr121.h ****     {
 1685              		.loc 13 70 10 is_stmt 1 view .LVU374
 1686              	.LBB1361:
  72:../../libDaisy//src/dev/mpr121.h ****                != i2c_.ReceiveBlocking(config_.dev_addr, data, size, 10);
 1687              		.loc 13 72 9 view .LVU375
  73:../../libDaisy//src/dev/mpr121.h ****     }
 1688              		.loc 13 73 39 is_stmt 0 view .LVU376
 1689 0398 0123     		movs	r3, #1
 1690 039a FFF7FEFF 		bl	_ZN5daisy9I2CHandle15ReceiveBlockingEtPhtm
 1691              	.LVL78:
  73:../../libDaisy//src/dev/mpr121.h ****     }
 1692              		.loc 13 73 39 view .LVU377
 1693              	.LBE1361:
 1694              	.LBE1365:
 1695              	.LBB1366:
 1696              	.LBI1366:
 1697              		.loc 13 343 10 is_stmt 1 view .LVU378
 1698              	.LBB1367:
 1699              		.loc 13 343 55 is_stmt 0 view .LVU379
 1700 039e 94F83030 		ldrb	r3, [r4, #48]	@ zero_extendqisi2
 1701              	.LBE1367:
 1702              	.LBE1366:
 1703              	.LBB1370:
 1704              	.LBB1371:
  66:../../libDaisy//src/dev/mpr121.h ****     }
 1705              		.loc 13 66 40 view .LVU380
 1706 03a2 07AA     		add	r2, sp, #28
 1707 03a4 94F82C10 		ldrb	r1, [r4, #44]	@ zero_extendqisi2
 1708              	.LBE1371:
 1709              	.LBE1370:
 1710              	.LBB1374:
 1711              	.LBB1368:
 1712              		.loc 13 343 55 view .LVU381
 1713 03a8 4045     		cmp	r0, r8
 1714 03aa 18BF     		it	ne
ARM GAS  /var/folders/hl/qgbwny5j0fd895c2c41bk3tw0000gp/T//cckqgw4a.s 			page 58


 1715 03ac 43F00103 		orrne	r3, r3, #1
 1716              	.LBE1368:
 1717              	.LBE1374:
 1718              	.LBB1375:
 1719              	.LBB1372:
  66:../../libDaisy//src/dev/mpr121.h ****     }
 1720              		.loc 13 66 40 view .LVU382
 1721 03b0 0095     		str	r5, [sp]
 1722 03b2 A348     		ldr	r0, .L16
 1723              	.LVL79:
  66:../../libDaisy//src/dev/mpr121.h ****     }
 1724              		.loc 13 66 40 view .LVU383
 1725              	.LBE1372:
 1726              	.LBE1375:
 1727              	.LBB1376:
 1728              	.LBB1369:
 1729              		.loc 13 343 55 view .LVU384
 1730 03b4 84F83030 		strb	r3, [r4, #48]
 1731              	.LVL80:
 1732              		.loc 13 343 55 view .LVU385
 1733              	.LBE1369:
 1734              	.LBE1376:
 1735              	.LBB1377:
 1736              	.LBI1370:
  63:../../libDaisy//src/dev/mpr121.h ****     {
 1737              		.loc 13 63 10 is_stmt 1 view .LVU386
 1738              	.LBB1373:
  65:../../libDaisy//src/dev/mpr121.h ****                != i2c_.TransmitBlocking(config_.dev_addr, data, size, 10);
 1739              		.loc 13 65 9 view .LVU387
  66:../../libDaisy//src/dev/mpr121.h ****     }
 1740              		.loc 13 66 40 is_stmt 0 view .LVU388
 1741 03b8 0223     		movs	r3, #2
 1742 03ba FFF7FEFF 		bl	_ZN5daisy9I2CHandle16TransmitBlockingEtPhtm
 1743              	.LVL81:
  66:../../libDaisy//src/dev/mpr121.h ****     }
 1744              		.loc 13 66 40 view .LVU389
 1745              	.LBE1373:
 1746              	.LBE1377:
 1747              	.LBB1378:
 1748              	.LBI1378:
 1749              		.loc 13 343 10 is_stmt 1 view .LVU390
 1750              	.LBB1379:
 1751              		.loc 13 343 55 is_stmt 0 view .LVU391
 1752 03be 94F83030 		ldrb	r3, [r4, #48]	@ zero_extendqisi2
 1753              	.LBE1379:
 1754              	.LBE1378:
 1755              	.LBB1382:
 1756              	.LBB1383:
  66:../../libDaisy//src/dev/mpr121.h ****     }
 1757              		.loc 13 66 40 view .LVU392
 1758 03c2 07AA     		add	r2, sp, #28
 1759 03c4 94F82C10 		ldrb	r1, [r4, #44]	@ zero_extendqisi2
 1760              	.LBE1383:
 1761              	.LBE1382:
 1762              	.LBB1387:
 1763              	.LBB1380:
 1764              		.loc 13 343 55 view .LVU393
ARM GAS  /var/folders/hl/qgbwny5j0fd895c2c41bk3tw0000gp/T//cckqgw4a.s 			page 59


 1765 03c8 4045     		cmp	r0, r8
 1766 03ca 18BF     		it	ne
 1767 03cc 43F00103 		orrne	r3, r3, #1
 1768              	.LBE1380:
 1769              	.LBE1387:
 1770              	.LBB1388:
 1771              	.LBB1384:
  66:../../libDaisy//src/dev/mpr121.h ****     }
 1772              		.loc 13 66 40 view .LVU394
 1773 03d0 0095     		str	r5, [sp]
 1774 03d2 9B48     		ldr	r0, .L16
 1775              	.LVL82:
  66:../../libDaisy//src/dev/mpr121.h ****     }
 1776              		.loc 13 66 40 view .LVU395
 1777              	.LBE1384:
 1778              	.LBE1388:
 1779              	.LBB1389:
 1780              	.LBB1381:
 1781              		.loc 13 343 55 view .LVU396
 1782 03d4 84F83030 		strb	r3, [r4, #48]
 1783              	.LVL83:
 1784              		.loc 13 343 55 view .LVU397
 1785              	.LBE1381:
 1786              	.LBE1389:
 281:../../libDaisy//src/dev/mpr121.h ****         buff[1] = value;
 1787              		.loc 13 281 17 view .LVU398
 1788 03d8 2B23     		movs	r3, #43
 282:../../libDaisy//src/dev/mpr121.h ****         SetTransportErr(transport_.Write(buff, 2));
 1789              		.loc 13 282 17 view .LVU399
 1790 03da 8DF81D70 		strb	r7, [sp, #29]
 1791              	.LVL84:
 1792              	.LBB1390:
 1793              	.LBI1382:
  63:../../libDaisy//src/dev/mpr121.h ****     {
 1794              		.loc 13 63 10 is_stmt 1 view .LVU400
 1795              	.LBB1385:
  65:../../libDaisy//src/dev/mpr121.h ****                != i2c_.TransmitBlocking(config_.dev_addr, data, size, 10);
 1796              		.loc 13 65 9 view .LVU401
 1797              	.LBE1385:
 1798              	.LBE1390:
 281:../../libDaisy//src/dev/mpr121.h ****         buff[1] = value;
 1799              		.loc 13 281 17 is_stmt 0 view .LVU402
 1800 03de 8DF81C30 		strb	r3, [sp, #28]
 1801              	.LBB1391:
 1802              	.LBB1386:
  66:../../libDaisy//src/dev/mpr121.h ****     }
 1803              		.loc 13 66 40 view .LVU403
 1804 03e2 0223     		movs	r3, #2
 1805 03e4 FFF7FEFF 		bl	_ZN5daisy9I2CHandle16TransmitBlockingEtPhtm
 1806              	.LVL85:
  66:../../libDaisy//src/dev/mpr121.h ****     }
 1807              		.loc 13 66 40 view .LVU404
 1808              	.LBE1386:
 1809              	.LBE1391:
 1810              	.LBB1392:
 1811              	.LBI1392:
 1812              		.loc 13 343 10 is_stmt 1 view .LVU405
ARM GAS  /var/folders/hl/qgbwny5j0fd895c2c41bk3tw0000gp/T//cckqgw4a.s 			page 60


 1813              	.LBB1393:
 1814              		.loc 13 343 55 is_stmt 0 view .LVU406
 1815 03e8 94F83030 		ldrb	r3, [r4, #48]	@ zero_extendqisi2
 1816              	.LBE1393:
 1817              	.LBE1392:
 1818              	.LBB1396:
 1819              	.LBB1397:
  66:../../libDaisy//src/dev/mpr121.h ****     }
 1820              		.loc 13 66 40 view .LVU407
 1821 03ec 07AA     		add	r2, sp, #28
 1822 03ee 94F82C10 		ldrb	r1, [r4, #44]	@ zero_extendqisi2
 1823              	.LBE1397:
 1824              	.LBE1396:
 1825              	.LBB1400:
 1826              	.LBB1394:
 1827              		.loc 13 343 55 view .LVU408
 1828 03f2 4045     		cmp	r0, r8
 1829 03f4 18BF     		it	ne
 1830 03f6 43F00103 		orrne	r3, r3, #1
 1831              	.LBE1394:
 1832              	.LBE1400:
 1833              	.LBB1401:
 1834              	.LBB1398:
  66:../../libDaisy//src/dev/mpr121.h ****     }
 1835              		.loc 13 66 40 view .LVU409
 1836 03fa 0095     		str	r5, [sp]
 1837 03fc 9048     		ldr	r0, .L16
 1838              	.LVL86:
  66:../../libDaisy//src/dev/mpr121.h ****     }
 1839              		.loc 13 66 40 view .LVU410
 1840              	.LBE1398:
 1841              	.LBE1401:
 1842              	.LBB1402:
 1843              	.LBB1395:
 1844              		.loc 13 343 55 view .LVU411
 1845 03fe 84F83030 		strb	r3, [r4, #48]
 1846              	.LVL87:
 1847              		.loc 13 343 55 view .LVU412
 1848              	.LBE1395:
 1849              	.LBE1402:
 289:../../libDaisy//src/dev/mpr121.h ****             SetTransportErr(transport_.Write(buff, 2));
 1850              		.loc 13 289 21 view .LVU413
 1851 0402 9DF80830 		ldrb	r3, [sp, #8]	@ zero_extendqisi2
 288:../../libDaisy//src/dev/mpr121.h ****             buff[1] = ecr_backup;
 1852              		.loc 13 288 21 view .LVU414
 1853 0406 8DF81C60 		strb	r6, [sp, #28]
 289:../../libDaisy//src/dev/mpr121.h ****             SetTransportErr(transport_.Write(buff, 2));
 1854              		.loc 13 289 21 view .LVU415
 1855 040a 8DF81D30 		strb	r3, [sp, #29]
 1856              	.LVL88:
 1857              	.LBB1403:
 1858              	.LBI1396:
  63:../../libDaisy//src/dev/mpr121.h ****     {
 1859              		.loc 13 63 10 is_stmt 1 view .LVU416
 1860              	.LBB1399:
  65:../../libDaisy//src/dev/mpr121.h ****                != i2c_.TransmitBlocking(config_.dev_addr, data, size, 10);
 1861              		.loc 13 65 9 view .LVU417
ARM GAS  /var/folders/hl/qgbwny5j0fd895c2c41bk3tw0000gp/T//cckqgw4a.s 			page 61


  66:../../libDaisy//src/dev/mpr121.h ****     }
 1862              		.loc 13 66 40 is_stmt 0 view .LVU418
 1863 040e 0223     		movs	r3, #2
 1864 0410 FFF7FEFF 		bl	_ZN5daisy9I2CHandle16TransmitBlockingEtPhtm
 1865              	.LVL89:
  66:../../libDaisy//src/dev/mpr121.h ****     }
 1866              		.loc 13 66 40 view .LVU419
 1867              	.LBE1399:
 1868              	.LBE1403:
 1869              	.LBB1404:
 1870              	.LBI1404:
 1871              		.loc 13 343 10 is_stmt 1 view .LVU420
 1872              	.LBB1405:
 1873              		.loc 13 343 55 is_stmt 0 view .LVU421
 1874 0414 94F83030 		ldrb	r3, [r4, #48]	@ zero_extendqisi2
 1875              	.LBE1405:
 1876              	.LBE1404:
 1877              	.LBE1349:
 1878              	.LBE1348:
 1879              	.LBB1412:
 1880              	.LBB1413:
 1881              	.LBB1414:
 1882              	.LBB1415:
  66:../../libDaisy//src/dev/mpr121.h ****     }
 1883              		.loc 13 66 40 view .LVU422
 1884 0418 07AA     		add	r2, sp, #28
 1885 041a 94F82C10 		ldrb	r1, [r4, #44]	@ zero_extendqisi2
 1886              	.LBE1415:
 1887              	.LBE1414:
 1888              	.LBE1413:
 1889              	.LBE1412:
 1890              	.LBB1482:
 1891              	.LBB1410:
 1892              	.LBB1408:
 1893              	.LBB1406:
 1894              		.loc 13 343 55 view .LVU423
 1895 041e 4045     		cmp	r0, r8
 1896 0420 18BF     		it	ne
 1897 0422 43F00103 		orrne	r3, r3, #1
 1898              	.LBE1406:
 1899              	.LBE1408:
 1900              	.LBE1410:
 1901              	.LBE1482:
 1902              	.LBB1483:
 1903              	.LBB1478:
 1904              	.LBB1419:
 1905              	.LBB1416:
  66:../../libDaisy//src/dev/mpr121.h ****     }
 1906              		.loc 13 66 40 view .LVU424
 1907 0426 0095     		str	r5, [sp]
 1908 0428 8548     		ldr	r0, .L16
 1909              	.LVL90:
  66:../../libDaisy//src/dev/mpr121.h ****     }
 1910              		.loc 13 66 40 view .LVU425
 1911              	.LBE1416:
 1912              	.LBE1419:
 1913              	.LBE1478:
ARM GAS  /var/folders/hl/qgbwny5j0fd895c2c41bk3tw0000gp/T//cckqgw4a.s 			page 62


 1914              	.LBE1483:
 1915              	.LBB1484:
 1916              	.LBB1411:
 1917              	.LBB1409:
 1918              	.LBB1407:
 1919              		.loc 13 343 55 view .LVU426
 1920 042a 84F83030 		strb	r3, [r4, #48]
 1921              	.LVL91:
 1922              		.loc 13 343 55 view .LVU427
 1923              	.LBE1407:
 1924              	.LBE1409:
 1925              	.LBE1411:
 1926              	.LBE1484:
 1927              	.LBB1485:
 1928              	.LBI1412:
 257:../../libDaisy//src/dev/mpr121.h ****     {
 1929              		.loc 13 257 10 is_stmt 1 view .LVU428
 1930              	.LBB1479:
 1931              	.LBB1420:
 1932              	.LBI1414:
  63:../../libDaisy//src/dev/mpr121.h ****     {
 1933              		.loc 13 63 10 view .LVU429
 1934              	.LBB1417:
  65:../../libDaisy//src/dev/mpr121.h ****                != i2c_.TransmitBlocking(config_.dev_addr, data, size, 10);
 1935              		.loc 13 65 9 view .LVU430
  66:../../libDaisy//src/dev/mpr121.h ****     }
 1936              		.loc 13 66 40 is_stmt 0 view .LVU431
 1937 042e 3B46     		mov	r3, r7
 1938              	.LBE1417:
 1939              	.LBE1420:
 264:../../libDaisy//src/dev/mpr121.h **** 
 1940              		.loc 13 264 17 view .LVU432
 1941 0430 8DF81D80 		strb	r8, [sp, #29]
 1942 0434 8DF81C60 		strb	r6, [sp, #28]
 1943              	.LBB1421:
 1944              	.LBB1418:
  66:../../libDaisy//src/dev/mpr121.h ****     }
 1945              		.loc 13 66 40 view .LVU433
 1946 0438 FFF7FEFF 		bl	_ZN5daisy9I2CHandle16TransmitBlockingEtPhtm
 1947              	.LVL92:
  66:../../libDaisy//src/dev/mpr121.h ****     }
 1948              		.loc 13 66 40 view .LVU434
 1949              	.LBE1418:
 1950              	.LBE1421:
 1951              	.LBB1422:
 1952              	.LBI1422:
 1953              		.loc 13 343 10 is_stmt 1 view .LVU435
 1954              	.LBB1423:
 1955              		.loc 13 343 55 is_stmt 0 view .LVU436
 1956 043c 94F83030 		ldrb	r3, [r4, #48]	@ zero_extendqisi2
 1957              	.LBE1423:
 1958              	.LBE1422:
 1959              	.LBB1426:
 1960              	.LBB1427:
  73:../../libDaisy//src/dev/mpr121.h ****     }
 1961              		.loc 13 73 39 view .LVU437
 1962 0440 02AA     		add	r2, sp, #8
ARM GAS  /var/folders/hl/qgbwny5j0fd895c2c41bk3tw0000gp/T//cckqgw4a.s 			page 63


 1963 0442 94F82C10 		ldrb	r1, [r4, #44]	@ zero_extendqisi2
 1964              	.LBE1427:
 1965              	.LBE1426:
 1966              	.LBB1430:
 1967              	.LBB1424:
 1968              		.loc 13 343 55 view .LVU438
 1969 0446 4045     		cmp	r0, r8
 1970 0448 18BF     		it	ne
 1971 044a 43F00103 		orrne	r3, r3, #1
 1972              	.LBE1424:
 1973              	.LBE1430:
 1974              	.LBB1431:
 1975              	.LBB1428:
  73:../../libDaisy//src/dev/mpr121.h ****     }
 1976              		.loc 13 73 39 view .LVU439
 1977 044e 0095     		str	r5, [sp]
 1978 0450 7B48     		ldr	r0, .L16
 1979              	.LVL93:
  73:../../libDaisy//src/dev/mpr121.h ****     }
 1980              		.loc 13 73 39 view .LVU440
 1981              	.LBE1428:
 1982              	.LBE1431:
 1983              	.LBB1432:
 1984              	.LBB1425:
 1985              		.loc 13 343 55 view .LVU441
 1986 0452 84F83030 		strb	r3, [r4, #48]
 1987              	.LVL94:
 1988              		.loc 13 343 55 view .LVU442
 1989              	.LBE1425:
 1990              	.LBE1432:
 1991              	.LBB1433:
 1992              	.LBI1426:
  70:../../libDaisy//src/dev/mpr121.h ****     {
 1993              		.loc 13 70 10 is_stmt 1 view .LVU443
 1994              	.LBB1429:
  72:../../libDaisy//src/dev/mpr121.h ****                != i2c_.ReceiveBlocking(config_.dev_addr, data, size, 10);
 1995              		.loc 13 72 9 view .LVU444
  73:../../libDaisy//src/dev/mpr121.h ****     }
 1996              		.loc 13 73 39 is_stmt 0 view .LVU445
 1997 0456 3B46     		mov	r3, r7
 1998 0458 FFF7FEFF 		bl	_ZN5daisy9I2CHandle15ReceiveBlockingEtPhtm
 1999              	.LVL95:
  73:../../libDaisy//src/dev/mpr121.h ****     }
 2000              		.loc 13 73 39 view .LVU446
 2001              	.LBE1429:
 2002              	.LBE1433:
 2003              	.LBB1434:
 2004              	.LBI1434:
 2005              		.loc 13 343 10 is_stmt 1 view .LVU447
 2006              	.LBB1435:
 2007              		.loc 13 343 55 is_stmt 0 view .LVU448
 2008 045c 94F83030 		ldrb	r3, [r4, #48]	@ zero_extendqisi2
 2009              	.LBE1435:
 2010              	.LBE1434:
 2011              	.LBB1438:
 2012              	.LBB1439:
  66:../../libDaisy//src/dev/mpr121.h ****     }
ARM GAS  /var/folders/hl/qgbwny5j0fd895c2c41bk3tw0000gp/T//cckqgw4a.s 			page 64


 2013              		.loc 13 66 40 view .LVU449
 2014 0460 07AA     		add	r2, sp, #28
 2015 0462 94F82C10 		ldrb	r1, [r4, #44]	@ zero_extendqisi2
 2016              	.LBE1439:
 2017              	.LBE1438:
 2018              	.LBB1442:
 2019              	.LBB1436:
 2020              		.loc 13 343 55 view .LVU450
 2021 0466 4045     		cmp	r0, r8
 2022 0468 18BF     		it	ne
 2023 046a 43F00103 		orrne	r3, r3, #1
 2024              	.LBE1436:
 2025              	.LBE1442:
 2026              	.LBB1443:
 2027              	.LBB1440:
  66:../../libDaisy//src/dev/mpr121.h ****     }
 2028              		.loc 13 66 40 view .LVU451
 2029 046e 0095     		str	r5, [sp]
 2030 0470 7348     		ldr	r0, .L16
 2031              	.LVL96:
  66:../../libDaisy//src/dev/mpr121.h ****     }
 2032              		.loc 13 66 40 view .LVU452
 2033              	.LBE1440:
 2034              	.LBE1443:
 2035              	.LBB1444:
 2036              	.LBB1437:
 2037              		.loc 13 343 55 view .LVU453
 2038 0472 84F83030 		strb	r3, [r4, #48]
 2039              	.LVL97:
 2040              		.loc 13 343 55 view .LVU454
 2041              	.LBE1437:
 2042              	.LBE1444:
 2043              	.LBB1445:
 2044              	.LBI1438:
  63:../../libDaisy//src/dev/mpr121.h ****     {
 2045              		.loc 13 63 10 is_stmt 1 view .LVU455
 2046              	.LBB1441:
  65:../../libDaisy//src/dev/mpr121.h ****                != i2c_.TransmitBlocking(config_.dev_addr, data, size, 10);
 2047              		.loc 13 65 9 view .LVU456
  66:../../libDaisy//src/dev/mpr121.h ****     }
 2048              		.loc 13 66 40 is_stmt 0 view .LVU457
 2049 0476 0223     		movs	r3, #2
 2050 0478 FFF7FEFF 		bl	_ZN5daisy9I2CHandle16TransmitBlockingEtPhtm
 2051              	.LVL98:
  66:../../libDaisy//src/dev/mpr121.h ****     }
 2052              		.loc 13 66 40 view .LVU458
 2053              	.LBE1441:
 2054              	.LBE1445:
 2055              	.LBB1446:
 2056              	.LBI1446:
 2057              		.loc 13 343 10 is_stmt 1 view .LVU459
 2058              	.LBB1447:
 2059              		.loc 13 343 55 is_stmt 0 view .LVU460
 2060 047c 94F83030 		ldrb	r3, [r4, #48]	@ zero_extendqisi2
 2061              	.LBE1447:
 2062              	.LBE1446:
 2063              	.LBB1450:
ARM GAS  /var/folders/hl/qgbwny5j0fd895c2c41bk3tw0000gp/T//cckqgw4a.s 			page 65


 2064              	.LBB1451:
  66:../../libDaisy//src/dev/mpr121.h ****     }
 2065              		.loc 13 66 40 view .LVU461
 2066 0480 07AA     		add	r2, sp, #28
 2067 0482 94F82C10 		ldrb	r1, [r4, #44]	@ zero_extendqisi2
 2068              	.LBE1451:
 2069              	.LBE1450:
 2070              	.LBB1455:
 2071              	.LBB1448:
 2072              		.loc 13 343 55 view .LVU462
 2073 0486 4045     		cmp	r0, r8
 2074 0488 18BF     		it	ne
 2075 048a 43F00103 		orrne	r3, r3, #1
 2076              	.LBE1448:
 2077              	.LBE1455:
 2078              	.LBB1456:
 2079              	.LBB1452:
  66:../../libDaisy//src/dev/mpr121.h ****     }
 2080              		.loc 13 66 40 view .LVU463
 2081 048e 0095     		str	r5, [sp]
 2082 0490 6B48     		ldr	r0, .L16
 2083              	.LVL99:
  66:../../libDaisy//src/dev/mpr121.h ****     }
 2084              		.loc 13 66 40 view .LVU464
 2085              	.LBE1452:
 2086              	.LBE1456:
 2087              	.LBB1457:
 2088              	.LBB1449:
 2089              		.loc 13 343 55 view .LVU465
 2090 0492 84F83030 		strb	r3, [r4, #48]
 2091              	.LVL100:
 2092              		.loc 13 343 55 view .LVU466
 2093              	.LBE1449:
 2094              	.LBE1457:
 2095              	.LBB1458:
 2096              	.LBI1450:
  63:../../libDaisy//src/dev/mpr121.h ****     {
 2097              		.loc 13 63 10 is_stmt 1 view .LVU467
 2098              	.LBB1453:
  65:../../libDaisy//src/dev/mpr121.h ****                != i2c_.TransmitBlocking(config_.dev_addr, data, size, 10);
 2099              		.loc 13 65 9 view .LVU468
 2100              	.LBE1453:
 2101              	.LBE1458:
 281:../../libDaisy//src/dev/mpr121.h ****         buff[1] = value;
 2102              		.loc 13 281 17 is_stmt 0 view .LVU469
 2103 0496 2C23     		movs	r3, #44
 282:../../libDaisy//src/dev/mpr121.h ****         SetTransportErr(transport_.Write(buff, 2));
 2104              		.loc 13 282 17 view .LVU470
 2105 0498 8DF81D70 		strb	r7, [sp, #29]
 281:../../libDaisy//src/dev/mpr121.h ****         buff[1] = value;
 2106              		.loc 13 281 17 view .LVU471
 2107 049c 8DF81C30 		strb	r3, [sp, #28]
 2108              	.LBB1459:
 2109              	.LBB1454:
  66:../../libDaisy//src/dev/mpr121.h ****     }
 2110              		.loc 13 66 40 view .LVU472
 2111 04a0 0223     		movs	r3, #2
ARM GAS  /var/folders/hl/qgbwny5j0fd895c2c41bk3tw0000gp/T//cckqgw4a.s 			page 66


 2112 04a2 FFF7FEFF 		bl	_ZN5daisy9I2CHandle16TransmitBlockingEtPhtm
 2113              	.LVL101:
  66:../../libDaisy//src/dev/mpr121.h ****     }
 2114              		.loc 13 66 40 view .LVU473
 2115              	.LBE1454:
 2116              	.LBE1459:
 2117              	.LBB1460:
 2118              	.LBI1460:
 2119              		.loc 13 343 10 is_stmt 1 view .LVU474
 2120              	.LBB1461:
 2121              		.loc 13 343 55 is_stmt 0 view .LVU475
 2122 04a6 94F83030 		ldrb	r3, [r4, #48]	@ zero_extendqisi2
 2123              	.LBE1461:
 2124              	.LBE1460:
 2125              	.LBB1464:
 2126              	.LBB1465:
  66:../../libDaisy//src/dev/mpr121.h ****     }
 2127              		.loc 13 66 40 view .LVU476
 2128 04aa 07AA     		add	r2, sp, #28
 2129 04ac 94F82C10 		ldrb	r1, [r4, #44]	@ zero_extendqisi2
 2130              	.LBE1465:
 2131              	.LBE1464:
 2132              	.LBB1468:
 2133              	.LBB1462:
 2134              		.loc 13 343 55 view .LVU477
 2135 04b0 4045     		cmp	r0, r8
 2136 04b2 18BF     		it	ne
 2137 04b4 43F00103 		orrne	r3, r3, #1
 2138              	.LBE1462:
 2139              	.LBE1468:
 2140              	.LBB1469:
 2141              	.LBB1466:
  66:../../libDaisy//src/dev/mpr121.h ****     }
 2142              		.loc 13 66 40 view .LVU478
 2143 04b8 0095     		str	r5, [sp]
 2144 04ba 6148     		ldr	r0, .L16
 2145              	.LVL102:
  66:../../libDaisy//src/dev/mpr121.h ****     }
 2146              		.loc 13 66 40 view .LVU479
 2147              	.LBE1466:
 2148              	.LBE1469:
 2149              	.LBB1470:
 2150              	.LBB1463:
 2151              		.loc 13 343 55 view .LVU480
 2152 04bc 84F83030 		strb	r3, [r4, #48]
 2153              	.LVL103:
 2154              		.loc 13 343 55 view .LVU481
 2155              	.LBE1463:
 2156              	.LBE1470:
 289:../../libDaisy//src/dev/mpr121.h ****             SetTransportErr(transport_.Write(buff, 2));
 2157              		.loc 13 289 21 view .LVU482
 2158 04c0 9DF80830 		ldrb	r3, [sp, #8]	@ zero_extendqisi2
 288:../../libDaisy//src/dev/mpr121.h ****             buff[1] = ecr_backup;
 2159              		.loc 13 288 21 view .LVU483
 2160 04c4 8DF81C60 		strb	r6, [sp, #28]
 289:../../libDaisy//src/dev/mpr121.h ****             SetTransportErr(transport_.Write(buff, 2));
 2161              		.loc 13 289 21 view .LVU484
ARM GAS  /var/folders/hl/qgbwny5j0fd895c2c41bk3tw0000gp/T//cckqgw4a.s 			page 67


 2162 04c8 8DF81D30 		strb	r3, [sp, #29]
 2163              	.LVL104:
 2164              	.LBB1471:
 2165              	.LBI1464:
  63:../../libDaisy//src/dev/mpr121.h ****     {
 2166              		.loc 13 63 10 is_stmt 1 view .LVU485
 2167              	.LBB1467:
  65:../../libDaisy//src/dev/mpr121.h ****                != i2c_.TransmitBlocking(config_.dev_addr, data, size, 10);
 2168              		.loc 13 65 9 view .LVU486
  66:../../libDaisy//src/dev/mpr121.h ****     }
 2169              		.loc 13 66 40 is_stmt 0 view .LVU487
 2170 04cc 0223     		movs	r3, #2
 2171 04ce FFF7FEFF 		bl	_ZN5daisy9I2CHandle16TransmitBlockingEtPhtm
 2172              	.LVL105:
  66:../../libDaisy//src/dev/mpr121.h ****     }
 2173              		.loc 13 66 40 view .LVU488
 2174              	.LBE1467:
 2175              	.LBE1471:
 2176              	.LBB1472:
 2177              	.LBI1472:
 2178              		.loc 13 343 10 is_stmt 1 view .LVU489
 2179              	.LBB1473:
 2180              		.loc 13 343 55 is_stmt 0 view .LVU490
 2181 04d2 94F83030 		ldrb	r3, [r4, #48]	@ zero_extendqisi2
 2182              	.LBE1473:
 2183              	.LBE1472:
 2184              	.LBE1479:
 2185              	.LBE1485:
 2186              	.LBB1486:
 2187              	.LBB1487:
 2188              	.LBB1488:
 2189              	.LBB1489:
  66:../../libDaisy//src/dev/mpr121.h ****     }
 2190              		.loc 13 66 40 view .LVU491
 2191 04d6 07AA     		add	r2, sp, #28
 2192 04d8 94F82C10 		ldrb	r1, [r4, #44]	@ zero_extendqisi2
 2193              	.LBE1489:
 2194              	.LBE1488:
 2195              	.LBE1487:
 2196              	.LBE1486:
 2197              	.LBB1554:
 2198              	.LBB1480:
 2199              	.LBB1476:
 2200              	.LBB1474:
 2201              		.loc 13 343 55 view .LVU492
 2202 04dc 4045     		cmp	r0, r8
 2203 04de 18BF     		it	ne
 2204 04e0 43F00103 		orrne	r3, r3, #1
 2205              	.LBE1474:
 2206              	.LBE1476:
 2207              	.LBE1480:
 2208              	.LBE1554:
 2209              	.LBB1555:
 2210              	.LBB1550:
 2211              	.LBB1493:
 2212              	.LBB1490:
  66:../../libDaisy//src/dev/mpr121.h ****     }
ARM GAS  /var/folders/hl/qgbwny5j0fd895c2c41bk3tw0000gp/T//cckqgw4a.s 			page 68


 2213              		.loc 13 66 40 view .LVU493
 2214 04e4 0095     		str	r5, [sp]
 2215 04e6 5648     		ldr	r0, .L16
 2216              	.LVL106:
  66:../../libDaisy//src/dev/mpr121.h ****     }
 2217              		.loc 13 66 40 view .LVU494
 2218              	.LBE1490:
 2219              	.LBE1493:
 2220              	.LBE1550:
 2221              	.LBE1555:
 2222              	.LBB1556:
 2223              	.LBB1481:
 2224              	.LBB1477:
 2225              	.LBB1475:
 2226              		.loc 13 343 55 view .LVU495
 2227 04e8 84F83030 		strb	r3, [r4, #48]
 2228              	.LVL107:
 2229              		.loc 13 343 55 view .LVU496
 2230              	.LBE1475:
 2231              	.LBE1477:
 2232              	.LBE1481:
 2233              	.LBE1556:
 2234              	.LBB1557:
 2235              	.LBI1486:
 257:../../libDaisy//src/dev/mpr121.h ****     {
 2236              		.loc 13 257 10 is_stmt 1 view .LVU497
 2237              	.LBB1551:
 2238              	.LBB1494:
 2239              	.LBI1488:
  63:../../libDaisy//src/dev/mpr121.h ****     {
 2240              		.loc 13 63 10 view .LVU498
 2241              	.LBB1491:
  65:../../libDaisy//src/dev/mpr121.h ****                != i2c_.TransmitBlocking(config_.dev_addr, data, size, 10);
 2242              		.loc 13 65 9 view .LVU499
  66:../../libDaisy//src/dev/mpr121.h ****     }
 2243              		.loc 13 66 40 is_stmt 0 view .LVU500
 2244 04ec 3B46     		mov	r3, r7
 2245              	.LBE1491:
 2246              	.LBE1494:
 264:../../libDaisy//src/dev/mpr121.h **** 
 2247              		.loc 13 264 17 view .LVU501
 2248 04ee 8DF81D80 		strb	r8, [sp, #29]
 2249 04f2 8DF81C60 		strb	r6, [sp, #28]
 2250              	.LBB1495:
 2251              	.LBB1492:
  66:../../libDaisy//src/dev/mpr121.h ****     }
 2252              		.loc 13 66 40 view .LVU502
 2253 04f6 FFF7FEFF 		bl	_ZN5daisy9I2CHandle16TransmitBlockingEtPhtm
 2254              	.LVL108:
  66:../../libDaisy//src/dev/mpr121.h ****     }
 2255              		.loc 13 66 40 view .LVU503
 2256              	.LBE1492:
 2257              	.LBE1495:
 2258              	.LBB1496:
 2259              	.LBI1496:
 2260              		.loc 13 343 10 is_stmt 1 view .LVU504
 2261              	.LBB1497:
ARM GAS  /var/folders/hl/qgbwny5j0fd895c2c41bk3tw0000gp/T//cckqgw4a.s 			page 69


 2262              		.loc 13 343 55 is_stmt 0 view .LVU505
 2263 04fa 94F83030 		ldrb	r3, [r4, #48]	@ zero_extendqisi2
 2264              	.LBE1497:
 2265              	.LBE1496:
 2266              	.LBB1500:
 2267              	.LBB1501:
  73:../../libDaisy//src/dev/mpr121.h ****     }
 2268              		.loc 13 73 39 view .LVU506
 2269 04fe 02AA     		add	r2, sp, #8
 2270 0500 94F82C10 		ldrb	r1, [r4, #44]	@ zero_extendqisi2
 2271              	.LBE1501:
 2272              	.LBE1500:
 2273              	.LBB1504:
 2274              	.LBB1498:
 2275              		.loc 13 343 55 view .LVU507
 2276 0504 4045     		cmp	r0, r8
 2277 0506 18BF     		it	ne
 2278 0508 43F00103 		orrne	r3, r3, #1
 2279              	.LBE1498:
 2280              	.LBE1504:
 2281              	.LBB1505:
 2282              	.LBB1502:
  73:../../libDaisy//src/dev/mpr121.h ****     }
 2283              		.loc 13 73 39 view .LVU508
 2284 050c 0095     		str	r5, [sp]
 2285 050e 4C48     		ldr	r0, .L16
 2286              	.LVL109:
  73:../../libDaisy//src/dev/mpr121.h ****     }
 2287              		.loc 13 73 39 view .LVU509
 2288              	.LBE1502:
 2289              	.LBE1505:
 2290              	.LBB1506:
 2291              	.LBB1499:
 2292              		.loc 13 343 55 view .LVU510
 2293 0510 84F83030 		strb	r3, [r4, #48]
 2294              	.LVL110:
 2295              		.loc 13 343 55 view .LVU511
 2296              	.LBE1499:
 2297              	.LBE1506:
 2298              	.LBB1507:
 2299              	.LBI1500:
  70:../../libDaisy//src/dev/mpr121.h ****     {
 2300              		.loc 13 70 10 is_stmt 1 view .LVU512
 2301              	.LBB1503:
  72:../../libDaisy//src/dev/mpr121.h ****                != i2c_.ReceiveBlocking(config_.dev_addr, data, size, 10);
 2302              		.loc 13 72 9 view .LVU513
  73:../../libDaisy//src/dev/mpr121.h ****     }
 2303              		.loc 13 73 39 is_stmt 0 view .LVU514
 2304 0514 3B46     		mov	r3, r7
 2305 0516 FFF7FEFF 		bl	_ZN5daisy9I2CHandle15ReceiveBlockingEtPhtm
 2306              	.LVL111:
  73:../../libDaisy//src/dev/mpr121.h ****     }
 2307              		.loc 13 73 39 view .LVU515
 2308              	.LBE1503:
 2309              	.LBE1507:
 2310              	.LBB1508:
 2311              	.LBI1508:
ARM GAS  /var/folders/hl/qgbwny5j0fd895c2c41bk3tw0000gp/T//cckqgw4a.s 			page 70


 2312              		.loc 13 343 10 is_stmt 1 view .LVU516
 2313              	.LBB1509:
 2314              		.loc 13 343 55 is_stmt 0 view .LVU517
 2315 051a 94F83030 		ldrb	r3, [r4, #48]	@ zero_extendqisi2
 2316              	.LBE1509:
 2317              	.LBE1508:
 2318              	.LBB1512:
 2319              	.LBB1513:
  66:../../libDaisy//src/dev/mpr121.h ****     }
 2320              		.loc 13 66 40 view .LVU518
 2321 051e 07AA     		add	r2, sp, #28
 2322 0520 94F82C10 		ldrb	r1, [r4, #44]	@ zero_extendqisi2
 2323              	.LBE1513:
 2324              	.LBE1512:
 2325              	.LBB1516:
 2326              	.LBB1510:
 2327              		.loc 13 343 55 view .LVU519
 2328 0524 4045     		cmp	r0, r8
 2329 0526 18BF     		it	ne
 2330 0528 43F00103 		orrne	r3, r3, #1
 2331              	.LBE1510:
 2332              	.LBE1516:
 2333              	.LBB1517:
 2334              	.LBB1514:
  66:../../libDaisy//src/dev/mpr121.h ****     }
 2335              		.loc 13 66 40 view .LVU520
 2336 052c 0095     		str	r5, [sp]
 2337 052e 4448     		ldr	r0, .L16
 2338              	.LVL112:
  66:../../libDaisy//src/dev/mpr121.h ****     }
 2339              		.loc 13 66 40 view .LVU521
 2340              	.LBE1514:
 2341              	.LBE1517:
 2342              	.LBB1518:
 2343              	.LBB1511:
 2344              		.loc 13 343 55 view .LVU522
 2345 0530 84F83030 		strb	r3, [r4, #48]
 2346              	.LVL113:
 2347              		.loc 13 343 55 view .LVU523
 2348              	.LBE1511:
 2349              	.LBE1518:
 2350              	.LBB1519:
 2351              	.LBI1512:
  63:../../libDaisy//src/dev/mpr121.h ****     {
 2352              		.loc 13 63 10 is_stmt 1 view .LVU524
 2353              	.LBB1515:
  65:../../libDaisy//src/dev/mpr121.h ****                != i2c_.TransmitBlocking(config_.dev_addr, data, size, 10);
 2354              		.loc 13 65 9 view .LVU525
  66:../../libDaisy//src/dev/mpr121.h ****     }
 2355              		.loc 13 66 40 is_stmt 0 view .LVU526
 2356 0534 0223     		movs	r3, #2
 2357 0536 FFF7FEFF 		bl	_ZN5daisy9I2CHandle16TransmitBlockingEtPhtm
 2358              	.LVL114:
  66:../../libDaisy//src/dev/mpr121.h ****     }
 2359              		.loc 13 66 40 view .LVU527
 2360              	.LBE1515:
 2361              	.LBE1519:
ARM GAS  /var/folders/hl/qgbwny5j0fd895c2c41bk3tw0000gp/T//cckqgw4a.s 			page 71


 2362              	.LBB1520:
 2363              	.LBI1520:
 2364              		.loc 13 343 10 is_stmt 1 view .LVU528
 2365              	.LBB1521:
 2366              		.loc 13 343 55 is_stmt 0 view .LVU529
 2367 053a 94F83030 		ldrb	r3, [r4, #48]	@ zero_extendqisi2
 2368              	.LBE1521:
 2369              	.LBE1520:
 2370              	.LBB1524:
 2371              	.LBB1525:
  66:../../libDaisy//src/dev/mpr121.h ****     }
 2372              		.loc 13 66 40 view .LVU530
 2373 053e 07AA     		add	r2, sp, #28
 2374 0540 94F82C10 		ldrb	r1, [r4, #44]	@ zero_extendqisi2
 2375              	.LBE1525:
 2376              	.LBE1524:
 2377              	.LBB1528:
 2378              	.LBB1522:
 2379              		.loc 13 343 55 view .LVU531
 2380 0544 4045     		cmp	r0, r8
 2381 0546 18BF     		it	ne
 2382 0548 43F00103 		orrne	r3, r3, #1
 2383              	.LBE1522:
 2384              	.LBE1528:
 2385              	.LBB1529:
 2386              	.LBB1526:
  66:../../libDaisy//src/dev/mpr121.h ****     }
 2387              		.loc 13 66 40 view .LVU532
 2388 054c 0095     		str	r5, [sp]
 2389 054e 3C48     		ldr	r0, .L16
 2390              	.LVL115:
  66:../../libDaisy//src/dev/mpr121.h ****     }
 2391              		.loc 13 66 40 view .LVU533
 2392              	.LBE1526:
 2393              	.LBE1529:
 2394              	.LBB1530:
 2395              	.LBB1523:
 2396              		.loc 13 343 55 view .LVU534
 2397 0550 84F83030 		strb	r3, [r4, #48]
 2398              	.LVL116:
 2399              		.loc 13 343 55 view .LVU535
 2400              	.LBE1523:
 2401              	.LBE1530:
 281:../../libDaisy//src/dev/mpr121.h ****         buff[1] = value;
 2402              		.loc 13 281 17 view .LVU536
 2403 0554 2D23     		movs	r3, #45
 2404 0556 8DF81C30 		strb	r3, [sp, #28]
 282:../../libDaisy//src/dev/mpr121.h ****         SetTransportErr(transport_.Write(buff, 2));
 2405              		.loc 13 282 17 view .LVU537
 2406 055a 0E23     		movs	r3, #14
 2407 055c 8DF81D30 		strb	r3, [sp, #29]
 2408              	.LVL117:
 2409              	.LBB1531:
 2410              	.LBI1524:
  63:../../libDaisy//src/dev/mpr121.h ****     {
 2411              		.loc 13 63 10 is_stmt 1 view .LVU538
 2412              	.LBB1527:
ARM GAS  /var/folders/hl/qgbwny5j0fd895c2c41bk3tw0000gp/T//cckqgw4a.s 			page 72


  65:../../libDaisy//src/dev/mpr121.h ****                != i2c_.TransmitBlocking(config_.dev_addr, data, size, 10);
 2413              		.loc 13 65 9 view .LVU539
  66:../../libDaisy//src/dev/mpr121.h ****     }
 2414              		.loc 13 66 40 is_stmt 0 view .LVU540
 2415 0560 0223     		movs	r3, #2
 2416 0562 FFF7FEFF 		bl	_ZN5daisy9I2CHandle16TransmitBlockingEtPhtm
 2417              	.LVL118:
  66:../../libDaisy//src/dev/mpr121.h ****     }
 2418              		.loc 13 66 40 view .LVU541
 2419              	.LBE1527:
 2420              	.LBE1531:
 2421              	.LBB1532:
 2422              	.LBI1532:
 2423              		.loc 13 343 10 is_stmt 1 view .LVU542
 2424              	.LBB1533:
 2425              		.loc 13 343 55 is_stmt 0 view .LVU543
 2426 0566 94F83030 		ldrb	r3, [r4, #48]	@ zero_extendqisi2
 2427              	.LBE1533:
 2428              	.LBE1532:
 2429              	.LBB1536:
 2430              	.LBB1537:
  66:../../libDaisy//src/dev/mpr121.h ****     }
 2431              		.loc 13 66 40 view .LVU544
 2432 056a 07AA     		add	r2, sp, #28
 2433 056c 94F82C10 		ldrb	r1, [r4, #44]	@ zero_extendqisi2
 2434              	.LBE1537:
 2435              	.LBE1536:
 2436              	.LBB1540:
 2437              	.LBB1534:
 2438              		.loc 13 343 55 view .LVU545
 2439 0570 4045     		cmp	r0, r8
 2440 0572 18BF     		it	ne
 2441 0574 43F00103 		orrne	r3, r3, #1
 2442              	.LBE1534:
 2443              	.LBE1540:
 2444              	.LBB1541:
 2445              	.LBB1538:
  66:../../libDaisy//src/dev/mpr121.h ****     }
 2446              		.loc 13 66 40 view .LVU546
 2447 0578 0095     		str	r5, [sp]
 2448 057a 3148     		ldr	r0, .L16
 2449              	.LVL119:
  66:../../libDaisy//src/dev/mpr121.h ****     }
 2450              		.loc 13 66 40 view .LVU547
 2451              	.LBE1538:
 2452              	.LBE1541:
 2453              	.LBB1542:
 2454              	.LBB1535:
 2455              		.loc 13 343 55 view .LVU548
 2456 057c 84F83030 		strb	r3, [r4, #48]
 2457              	.LVL120:
 2458              		.loc 13 343 55 view .LVU549
 2459              	.LBE1535:
 2460              	.LBE1542:
 289:../../libDaisy//src/dev/mpr121.h ****             SetTransportErr(transport_.Write(buff, 2));
 2461              		.loc 13 289 21 view .LVU550
 2462 0580 9DF80830 		ldrb	r3, [sp, #8]	@ zero_extendqisi2
ARM GAS  /var/folders/hl/qgbwny5j0fd895c2c41bk3tw0000gp/T//cckqgw4a.s 			page 73


 288:../../libDaisy//src/dev/mpr121.h ****             buff[1] = ecr_backup;
 2463              		.loc 13 288 21 view .LVU551
 2464 0584 8DF81C60 		strb	r6, [sp, #28]
 289:../../libDaisy//src/dev/mpr121.h ****             SetTransportErr(transport_.Write(buff, 2));
 2465              		.loc 13 289 21 view .LVU552
 2466 0588 8DF81D30 		strb	r3, [sp, #29]
 2467              	.LVL121:
 2468              	.LBB1543:
 2469              	.LBI1536:
  63:../../libDaisy//src/dev/mpr121.h ****     {
 2470              		.loc 13 63 10 is_stmt 1 view .LVU553
 2471              	.LBB1539:
  65:../../libDaisy//src/dev/mpr121.h ****                != i2c_.TransmitBlocking(config_.dev_addr, data, size, 10);
 2472              		.loc 13 65 9 view .LVU554
  66:../../libDaisy//src/dev/mpr121.h ****     }
 2473              		.loc 13 66 40 is_stmt 0 view .LVU555
 2474 058c 0223     		movs	r3, #2
 2475 058e FFF7FEFF 		bl	_ZN5daisy9I2CHandle16TransmitBlockingEtPhtm
 2476              	.LVL122:
  66:../../libDaisy//src/dev/mpr121.h ****     }
 2477              		.loc 13 66 40 view .LVU556
 2478              	.LBE1539:
 2479              	.LBE1543:
 2480              	.LBB1544:
 2481              	.LBI1544:
 2482              		.loc 13 343 10 is_stmt 1 view .LVU557
 2483              	.LBB1545:
 2484              		.loc 13 343 55 is_stmt 0 view .LVU558
 2485 0592 94F83030 		ldrb	r3, [r4, #48]	@ zero_extendqisi2
 2486              	.LBE1545:
 2487              	.LBE1544:
 2488              	.LBE1551:
 2489              	.LBE1557:
 2490              	.LBB1558:
 2491              	.LBB1559:
 2492              	.LBB1560:
 2493              	.LBB1561:
  66:../../libDaisy//src/dev/mpr121.h ****     }
 2494              		.loc 13 66 40 view .LVU559
 2495 0596 07AA     		add	r2, sp, #28
 2496 0598 94F82C10 		ldrb	r1, [r4, #44]	@ zero_extendqisi2
 2497              	.LBE1561:
 2498              	.LBE1560:
 2499              	.LBE1559:
 2500              	.LBE1558:
 2501              	.LBB1628:
 2502              	.LBB1552:
 2503              	.LBB1548:
 2504              	.LBB1546:
 2505              		.loc 13 343 55 view .LVU560
 2506 059c 4045     		cmp	r0, r8
 2507 059e 18BF     		it	ne
 2508 05a0 43F00103 		orrne	r3, r3, #1
 2509              	.LBE1546:
 2510              	.LBE1548:
 2511              	.LBE1552:
 2512              	.LBE1628:
ARM GAS  /var/folders/hl/qgbwny5j0fd895c2c41bk3tw0000gp/T//cckqgw4a.s 			page 74


 2513              	.LBB1629:
 2514              	.LBB1624:
 2515              	.LBB1565:
 2516              	.LBB1562:
  66:../../libDaisy//src/dev/mpr121.h ****     }
 2517              		.loc 13 66 40 view .LVU561
 2518 05a4 0095     		str	r5, [sp]
 2519 05a6 2648     		ldr	r0, .L16
 2520              	.LVL123:
  66:../../libDaisy//src/dev/mpr121.h ****     }
 2521              		.loc 13 66 40 view .LVU562
 2522              	.LBE1562:
 2523              	.LBE1565:
 2524              	.LBE1624:
 2525              	.LBE1629:
 2526              	.LBB1630:
 2527              	.LBB1553:
 2528              	.LBB1549:
 2529              	.LBB1547:
 2530              		.loc 13 343 55 view .LVU563
 2531 05a8 84F83030 		strb	r3, [r4, #48]
 2532              	.LVL124:
 2533              		.loc 13 343 55 view .LVU564
 2534              	.LBE1547:
 2535              	.LBE1549:
 2536              	.LBE1553:
 2537              	.LBE1630:
 2538              	.LBB1631:
 2539              	.LBI1558:
 257:../../libDaisy//src/dev/mpr121.h ****     {
 2540              		.loc 13 257 10 is_stmt 1 view .LVU565
 2541              	.LBB1625:
 2542              	.LBB1566:
 2543              	.LBI1560:
  63:../../libDaisy//src/dev/mpr121.h ****     {
 2544              		.loc 13 63 10 view .LVU566
 2545              	.LBB1563:
  65:../../libDaisy//src/dev/mpr121.h ****                != i2c_.TransmitBlocking(config_.dev_addr, data, size, 10);
 2546              		.loc 13 65 9 view .LVU567
  66:../../libDaisy//src/dev/mpr121.h ****     }
 2547              		.loc 13 66 40 is_stmt 0 view .LVU568
 2548 05ac 3B46     		mov	r3, r7
 2549              	.LBE1563:
 2550              	.LBE1566:
 264:../../libDaisy//src/dev/mpr121.h **** 
 2551              		.loc 13 264 17 view .LVU569
 2552 05ae 8DF81D80 		strb	r8, [sp, #29]
 2553 05b2 8DF81C60 		strb	r6, [sp, #28]
 2554              	.LBB1567:
 2555              	.LBB1564:
  66:../../libDaisy//src/dev/mpr121.h ****     }
 2556              		.loc 13 66 40 view .LVU570
 2557 05b6 FFF7FEFF 		bl	_ZN5daisy9I2CHandle16TransmitBlockingEtPhtm
 2558              	.LVL125:
  66:../../libDaisy//src/dev/mpr121.h ****     }
 2559              		.loc 13 66 40 view .LVU571
 2560              	.LBE1564:
ARM GAS  /var/folders/hl/qgbwny5j0fd895c2c41bk3tw0000gp/T//cckqgw4a.s 			page 75


 2561              	.LBE1567:
 2562              	.LBB1568:
 2563              	.LBI1568:
 2564              		.loc 13 343 10 is_stmt 1 view .LVU572
 2565              	.LBB1569:
 2566              		.loc 13 343 55 is_stmt 0 view .LVU573
 2567 05ba 94F83030 		ldrb	r3, [r4, #48]	@ zero_extendqisi2
 2568              	.LBE1569:
 2569              	.LBE1568:
 2570              	.LBB1572:
 2571              	.LBB1573:
  73:../../libDaisy//src/dev/mpr121.h ****     }
 2572              		.loc 13 73 39 view .LVU574
 2573 05be 02AA     		add	r2, sp, #8
 2574 05c0 94F82C10 		ldrb	r1, [r4, #44]	@ zero_extendqisi2
 2575              	.LBE1573:
 2576              	.LBE1572:
 2577              	.LBB1576:
 2578              	.LBB1570:
 2579              		.loc 13 343 55 view .LVU575
 2580 05c4 4045     		cmp	r0, r8
 2581 05c6 18BF     		it	ne
 2582 05c8 43F00103 		orrne	r3, r3, #1
 2583              	.LBE1570:
 2584              	.LBE1576:
 2585              	.LBB1577:
 2586              	.LBB1574:
  73:../../libDaisy//src/dev/mpr121.h ****     }
 2587              		.loc 13 73 39 view .LVU576
 2588 05cc 0095     		str	r5, [sp]
 2589 05ce 1C48     		ldr	r0, .L16
 2590              	.LVL126:
  73:../../libDaisy//src/dev/mpr121.h ****     }
 2591              		.loc 13 73 39 view .LVU577
 2592              	.LBE1574:
 2593              	.LBE1577:
 2594              	.LBB1578:
 2595              	.LBB1571:
 2596              		.loc 13 343 55 view .LVU578
 2597 05d0 84F83030 		strb	r3, [r4, #48]
 2598              	.LVL127:
 2599              		.loc 13 343 55 view .LVU579
 2600              	.LBE1571:
 2601              	.LBE1578:
 2602              	.LBB1579:
 2603              	.LBI1572:
  70:../../libDaisy//src/dev/mpr121.h ****     {
 2604              		.loc 13 70 10 is_stmt 1 view .LVU580
 2605              	.LBB1575:
  72:../../libDaisy//src/dev/mpr121.h ****                != i2c_.ReceiveBlocking(config_.dev_addr, data, size, 10);
 2606              		.loc 13 72 9 view .LVU581
  73:../../libDaisy//src/dev/mpr121.h ****     }
 2607              		.loc 13 73 39 is_stmt 0 view .LVU582
 2608 05d4 3B46     		mov	r3, r7
 2609 05d6 FFF7FEFF 		bl	_ZN5daisy9I2CHandle15ReceiveBlockingEtPhtm
 2610              	.LVL128:
  73:../../libDaisy//src/dev/mpr121.h ****     }
ARM GAS  /var/folders/hl/qgbwny5j0fd895c2c41bk3tw0000gp/T//cckqgw4a.s 			page 76


 2611              		.loc 13 73 39 view .LVU583
 2612              	.LBE1575:
 2613              	.LBE1579:
 2614              	.LBB1580:
 2615              	.LBI1580:
 2616              		.loc 13 343 10 is_stmt 1 view .LVU584
 2617              	.LBB1581:
 2618              		.loc 13 343 55 is_stmt 0 view .LVU585
 2619 05da 94F83030 		ldrb	r3, [r4, #48]	@ zero_extendqisi2
 2620              	.LBE1581:
 2621              	.LBE1580:
 2622              	.LBB1584:
 2623              	.LBB1585:
  66:../../libDaisy//src/dev/mpr121.h ****     }
 2624              		.loc 13 66 40 view .LVU586
 2625 05de 07AA     		add	r2, sp, #28
 2626 05e0 94F82C10 		ldrb	r1, [r4, #44]	@ zero_extendqisi2
 2627              	.LBE1585:
 2628              	.LBE1584:
 2629              	.LBB1588:
 2630              	.LBB1582:
 2631              		.loc 13 343 55 view .LVU587
 2632 05e4 4045     		cmp	r0, r8
 2633 05e6 18BF     		it	ne
 2634 05e8 43F00103 		orrne	r3, r3, #1
 2635              	.LBE1582:
 2636              	.LBE1588:
 2637              	.LBB1589:
 2638              	.LBB1586:
  66:../../libDaisy//src/dev/mpr121.h ****     }
 2639              		.loc 13 66 40 view .LVU588
 2640 05ec 0095     		str	r5, [sp]
 2641 05ee 1448     		ldr	r0, .L16
 2642              	.LVL129:
  66:../../libDaisy//src/dev/mpr121.h ****     }
 2643              		.loc 13 66 40 view .LVU589
 2644              	.LBE1586:
 2645              	.LBE1589:
 2646              	.LBB1590:
 2647              	.LBB1583:
 2648              		.loc 13 343 55 view .LVU590
 2649 05f0 84F83030 		strb	r3, [r4, #48]
 2650              	.LVL130:
 2651              		.loc 13 343 55 view .LVU591
 2652              	.LBE1583:
 2653              	.LBE1590:
 2654              	.LBB1591:
 2655              	.LBI1584:
  63:../../libDaisy//src/dev/mpr121.h ****     {
 2656              		.loc 13 63 10 is_stmt 1 view .LVU592
 2657              	.LBB1587:
  65:../../libDaisy//src/dev/mpr121.h ****                != i2c_.TransmitBlocking(config_.dev_addr, data, size, 10);
 2658              		.loc 13 65 9 view .LVU593
  66:../../libDaisy//src/dev/mpr121.h ****     }
 2659              		.loc 13 66 40 is_stmt 0 view .LVU594
 2660 05f4 0223     		movs	r3, #2
 2661 05f6 FFF7FEFF 		bl	_ZN5daisy9I2CHandle16TransmitBlockingEtPhtm
ARM GAS  /var/folders/hl/qgbwny5j0fd895c2c41bk3tw0000gp/T//cckqgw4a.s 			page 77


 2662              	.LVL131:
  66:../../libDaisy//src/dev/mpr121.h ****     }
 2663              		.loc 13 66 40 view .LVU595
 2664              	.LBE1587:
 2665              	.LBE1591:
 2666              	.LBB1592:
 2667              	.LBI1592:
 2668              		.loc 13 343 10 is_stmt 1 view .LVU596
 2669              	.LBB1593:
 2670              		.loc 13 343 55 is_stmt 0 view .LVU597
 2671 05fa 94F83030 		ldrb	r3, [r4, #48]	@ zero_extendqisi2
 2672              	.LBE1593:
 2673              	.LBE1592:
 2674              	.LBB1596:
 2675              	.LBB1597:
  66:../../libDaisy//src/dev/mpr121.h ****     }
 2676              		.loc 13 66 40 view .LVU598
 2677 05fe 07AA     		add	r2, sp, #28
 2678 0600 94F82C10 		ldrb	r1, [r4, #44]	@ zero_extendqisi2
 2679              	.LBE1597:
 2680              	.LBE1596:
 2681              	.LBB1601:
 2682              	.LBB1594:
 2683              		.loc 13 343 55 view .LVU599
 2684 0604 4045     		cmp	r0, r8
 2685 0606 18BF     		it	ne
 2686 0608 43F00103 		orrne	r3, r3, #1
 2687              	.LBE1594:
 2688              	.LBE1601:
 2689              	.LBB1602:
 2690              	.LBB1598:
  66:../../libDaisy//src/dev/mpr121.h ****     }
 2691              		.loc 13 66 40 view .LVU600
 2692 060c 0095     		str	r5, [sp]
 2693 060e 0C48     		ldr	r0, .L16
 2694              	.LVL132:
  66:../../libDaisy//src/dev/mpr121.h ****     }
 2695              		.loc 13 66 40 view .LVU601
 2696              	.LBE1598:
 2697              	.LBE1602:
 2698              	.LBB1603:
 2699              	.LBB1595:
 2700              		.loc 13 343 55 view .LVU602
 2701 0610 84F83030 		strb	r3, [r4, #48]
 2702              	.LVL133:
 2703              		.loc 13 343 55 view .LVU603
 2704              	.LBE1595:
 2705              	.LBE1603:
 2706              	.LBB1604:
 2707              	.LBI1596:
  63:../../libDaisy//src/dev/mpr121.h ****     {
 2708              		.loc 13 63 10 is_stmt 1 view .LVU604
 2709              	.LBB1599:
  65:../../libDaisy//src/dev/mpr121.h ****                != i2c_.TransmitBlocking(config_.dev_addr, data, size, 10);
 2710              		.loc 13 65 9 view .LVU605
 2711              	.LBE1599:
 2712              	.LBE1604:
ARM GAS  /var/folders/hl/qgbwny5j0fd895c2c41bk3tw0000gp/T//cckqgw4a.s 			page 78


 281:../../libDaisy//src/dev/mpr121.h ****         buff[1] = value;
 2713              		.loc 13 281 17 is_stmt 0 view .LVU606
 2714 0614 2E23     		movs	r3, #46
 282:../../libDaisy//src/dev/mpr121.h ****         SetTransportErr(transport_.Write(buff, 2));
 2715              		.loc 13 282 17 view .LVU607
 2716 0616 8DF81D80 		strb	r8, [sp, #29]
 281:../../libDaisy//src/dev/mpr121.h ****         buff[1] = value;
 2717              		.loc 13 281 17 view .LVU608
 2718 061a 8DF81C30 		strb	r3, [sp, #28]
 2719              	.LBB1605:
 2720              	.LBB1600:
  66:../../libDaisy//src/dev/mpr121.h ****     }
 2721              		.loc 13 66 40 view .LVU609
 2722 061e 0223     		movs	r3, #2
 2723 0620 FFF7FEFF 		bl	_ZN5daisy9I2CHandle16TransmitBlockingEtPhtm
 2724              	.LVL134:
  66:../../libDaisy//src/dev/mpr121.h ****     }
 2725              		.loc 13 66 40 view .LVU610
 2726              	.LBE1600:
 2727              	.LBE1605:
 2728              	.LBB1606:
 2729              	.LBI1606:
 2730              		.loc 13 343 10 is_stmt 1 view .LVU611
 2731              	.LBB1607:
 2732              		.loc 13 343 55 is_stmt 0 view .LVU612
 2733 0624 94F83030 		ldrb	r3, [r4, #48]	@ zero_extendqisi2
 2734              	.LBE1607:
 2735              	.LBE1606:
 2736              	.LBB1610:
 2737              	.LBB1611:
  66:../../libDaisy//src/dev/mpr121.h ****     }
 2738              		.loc 13 66 40 view .LVU613
 2739 0628 07AA     		add	r2, sp, #28
 2740 062a 94F82C10 		ldrb	r1, [r4, #44]	@ zero_extendqisi2
 2741              	.LBE1611:
 2742              	.LBE1610:
 2743              	.LBB1614:
 2744              	.LBB1608:
 2745              		.loc 13 343 55 view .LVU614
 2746 062e 4045     		cmp	r0, r8
 2747 0630 18BF     		it	ne
 2748 0632 43F00103 		orrne	r3, r3, #1
 2749              	.LBE1608:
 2750              	.LBE1614:
 2751              	.LBB1615:
 2752              	.LBB1612:
  66:../../libDaisy//src/dev/mpr121.h ****     }
 2753              		.loc 13 66 40 view .LVU615
 2754 0636 0095     		str	r5, [sp]
 2755 0638 0148     		ldr	r0, .L16
 2756              	.LVL135:
  66:../../libDaisy//src/dev/mpr121.h ****     }
 2757              		.loc 13 66 40 view .LVU616
 2758              	.LBE1612:
 2759              	.LBE1615:
 2760              	.LBB1616:
 2761              	.LBB1609:
ARM GAS  /var/folders/hl/qgbwny5j0fd895c2c41bk3tw0000gp/T//cckqgw4a.s 			page 79


 2762              		.loc 13 343 55 view .LVU617
 2763 063a 84F83030 		strb	r3, [r4, #48]
 2764 063e 01E0     		b	.L17
 2765              	.L18:
 2766              		.align	2
 2767              	.L16:
 2768 0640 18000000 		.word	.LANCHOR0+24
 2769              	.L17:
 2770              	.LVL136:
 2771              		.loc 13 343 55 view .LVU618
 2772              	.LBE1609:
 2773              	.LBE1616:
 289:../../libDaisy//src/dev/mpr121.h ****             SetTransportErr(transport_.Write(buff, 2));
 2774              		.loc 13 289 21 view .LVU619
 2775 0644 9DF80830 		ldrb	r3, [sp, #8]	@ zero_extendqisi2
 288:../../libDaisy//src/dev/mpr121.h ****             buff[1] = ecr_backup;
 2776              		.loc 13 288 21 view .LVU620
 2777 0648 8DF81C60 		strb	r6, [sp, #28]
 289:../../libDaisy//src/dev/mpr121.h ****             SetTransportErr(transport_.Write(buff, 2));
 2778              		.loc 13 289 21 view .LVU621
 2779 064c 8DF81D30 		strb	r3, [sp, #29]
 2780              	.LVL137:
 2781              	.LBB1617:
 2782              	.LBI1610:
  63:../../libDaisy//src/dev/mpr121.h ****     {
 2783              		.loc 13 63 10 is_stmt 1 view .LVU622
 2784              	.LBB1613:
  65:../../libDaisy//src/dev/mpr121.h ****                != i2c_.TransmitBlocking(config_.dev_addr, data, size, 10);
 2785              		.loc 13 65 9 view .LVU623
  66:../../libDaisy//src/dev/mpr121.h ****     }
 2786              		.loc 13 66 40 is_stmt 0 view .LVU624
 2787 0650 0223     		movs	r3, #2
 2788 0652 FFF7FEFF 		bl	_ZN5daisy9I2CHandle16TransmitBlockingEtPhtm
 2789              	.LVL138:
  66:../../libDaisy//src/dev/mpr121.h ****     }
 2790              		.loc 13 66 40 view .LVU625
 2791              	.LBE1613:
 2792              	.LBE1617:
 2793              	.LBB1618:
 2794              	.LBI1618:
 2795              		.loc 13 343 10 is_stmt 1 view .LVU626
 2796              	.LBB1619:
 2797              		.loc 13 343 55 is_stmt 0 view .LVU627
 2798 0656 94F83030 		ldrb	r3, [r4, #48]	@ zero_extendqisi2
 2799              	.LBE1619:
 2800              	.LBE1618:
 2801              	.LBE1625:
 2802              	.LBE1631:
 2803              	.LBB1632:
 2804              	.LBB1633:
 2805              	.LBB1634:
 2806              	.LBB1635:
  66:../../libDaisy//src/dev/mpr121.h ****     }
 2807              		.loc 13 66 40 view .LVU628
 2808 065a 07AA     		add	r2, sp, #28
 2809 065c 94F82C10 		ldrb	r1, [r4, #44]	@ zero_extendqisi2
 2810              	.LBE1635:
ARM GAS  /var/folders/hl/qgbwny5j0fd895c2c41bk3tw0000gp/T//cckqgw4a.s 			page 80


 2811              	.LBE1634:
 2812              	.LBE1633:
 2813              	.LBE1632:
 2814              	.LBB1702:
 2815              	.LBB1626:
 2816              	.LBB1622:
 2817              	.LBB1620:
 2818              		.loc 13 343 55 view .LVU629
 2819 0660 4045     		cmp	r0, r8
 2820 0662 18BF     		it	ne
 2821 0664 43F00103 		orrne	r3, r3, #1
 2822              	.LBE1620:
 2823              	.LBE1622:
 2824              	.LBE1626:
 2825              	.LBE1702:
 2826              	.LBB1703:
 2827              	.LBB1698:
 2828              	.LBB1639:
 2829              	.LBB1636:
  66:../../libDaisy//src/dev/mpr121.h ****     }
 2830              		.loc 13 66 40 view .LVU630
 2831 0668 0095     		str	r5, [sp]
 2832 066a C248     		ldr	r0, .L19
 2833              	.LVL139:
  66:../../libDaisy//src/dev/mpr121.h ****     }
 2834              		.loc 13 66 40 view .LVU631
 2835              	.LBE1636:
 2836              	.LBE1639:
 2837              	.LBE1698:
 2838              	.LBE1703:
 2839              	.LBB1704:
 2840              	.LBB1627:
 2841              	.LBB1623:
 2842              	.LBB1621:
 2843              		.loc 13 343 55 view .LVU632
 2844 066c 84F83030 		strb	r3, [r4, #48]
 2845              	.LVL140:
 2846              		.loc 13 343 55 view .LVU633
 2847              	.LBE1621:
 2848              	.LBE1623:
 2849              	.LBE1627:
 2850              	.LBE1704:
 2851              	.LBB1705:
 2852              	.LBI1632:
 257:../../libDaisy//src/dev/mpr121.h ****     {
 2853              		.loc 13 257 10 is_stmt 1 view .LVU634
 2854              	.LBB1699:
 2855              	.LBB1640:
 2856              	.LBI1634:
  63:../../libDaisy//src/dev/mpr121.h ****     {
 2857              		.loc 13 63 10 view .LVU635
 2858              	.LBB1637:
  65:../../libDaisy//src/dev/mpr121.h ****                != i2c_.TransmitBlocking(config_.dev_addr, data, size, 10);
 2859              		.loc 13 65 9 view .LVU636
  66:../../libDaisy//src/dev/mpr121.h ****     }
 2860              		.loc 13 66 40 is_stmt 0 view .LVU637
 2861 0670 3B46     		mov	r3, r7
ARM GAS  /var/folders/hl/qgbwny5j0fd895c2c41bk3tw0000gp/T//cckqgw4a.s 			page 81


 2862              	.LBE1637:
 2863              	.LBE1640:
 264:../../libDaisy//src/dev/mpr121.h **** 
 2864              		.loc 13 264 17 view .LVU638
 2865 0672 8DF81D80 		strb	r8, [sp, #29]
 2866 0676 8DF81C60 		strb	r6, [sp, #28]
 2867              	.LBB1641:
 2868              	.LBB1638:
  66:../../libDaisy//src/dev/mpr121.h ****     }
 2869              		.loc 13 66 40 view .LVU639
 2870 067a FFF7FEFF 		bl	_ZN5daisy9I2CHandle16TransmitBlockingEtPhtm
 2871              	.LVL141:
  66:../../libDaisy//src/dev/mpr121.h ****     }
 2872              		.loc 13 66 40 view .LVU640
 2873              	.LBE1638:
 2874              	.LBE1641:
 2875              	.LBB1642:
 2876              	.LBI1642:
 2877              		.loc 13 343 10 is_stmt 1 view .LVU641
 2878              	.LBB1643:
 2879              		.loc 13 343 55 is_stmt 0 view .LVU642
 2880 067e 94F83030 		ldrb	r3, [r4, #48]	@ zero_extendqisi2
 2881              	.LBE1643:
 2882              	.LBE1642:
 2883              	.LBB1646:
 2884              	.LBB1647:
  73:../../libDaisy//src/dev/mpr121.h ****     }
 2885              		.loc 13 73 39 view .LVU643
 2886 0682 02AA     		add	r2, sp, #8
 2887 0684 94F82C10 		ldrb	r1, [r4, #44]	@ zero_extendqisi2
 2888              	.LBE1647:
 2889              	.LBE1646:
 2890              	.LBB1650:
 2891              	.LBB1644:
 2892              		.loc 13 343 55 view .LVU644
 2893 0688 4045     		cmp	r0, r8
 2894 068a 18BF     		it	ne
 2895 068c 43F00103 		orrne	r3, r3, #1
 2896              	.LBE1644:
 2897              	.LBE1650:
 2898              	.LBB1651:
 2899              	.LBB1648:
  73:../../libDaisy//src/dev/mpr121.h ****     }
 2900              		.loc 13 73 39 view .LVU645
 2901 0690 0095     		str	r5, [sp]
 2902 0692 B848     		ldr	r0, .L19
 2903              	.LVL142:
  73:../../libDaisy//src/dev/mpr121.h ****     }
 2904              		.loc 13 73 39 view .LVU646
 2905              	.LBE1648:
 2906              	.LBE1651:
 2907              	.LBB1652:
 2908              	.LBB1645:
 2909              		.loc 13 343 55 view .LVU647
 2910 0694 84F83030 		strb	r3, [r4, #48]
 2911              	.LVL143:
 2912              		.loc 13 343 55 view .LVU648
ARM GAS  /var/folders/hl/qgbwny5j0fd895c2c41bk3tw0000gp/T//cckqgw4a.s 			page 82


 2913              	.LBE1645:
 2914              	.LBE1652:
 2915              	.LBB1653:
 2916              	.LBI1646:
  70:../../libDaisy//src/dev/mpr121.h ****     {
 2917              		.loc 13 70 10 is_stmt 1 view .LVU649
 2918              	.LBB1649:
  72:../../libDaisy//src/dev/mpr121.h ****                != i2c_.ReceiveBlocking(config_.dev_addr, data, size, 10);
 2919              		.loc 13 72 9 view .LVU650
  73:../../libDaisy//src/dev/mpr121.h ****     }
 2920              		.loc 13 73 39 is_stmt 0 view .LVU651
 2921 0698 3B46     		mov	r3, r7
 2922 069a FFF7FEFF 		bl	_ZN5daisy9I2CHandle15ReceiveBlockingEtPhtm
 2923              	.LVL144:
  73:../../libDaisy//src/dev/mpr121.h ****     }
 2924              		.loc 13 73 39 view .LVU652
 2925              	.LBE1649:
 2926              	.LBE1653:
 2927              	.LBB1654:
 2928              	.LBI1654:
 2929              		.loc 13 343 10 is_stmt 1 view .LVU653
 2930              	.LBB1655:
 2931              		.loc 13 343 55 is_stmt 0 view .LVU654
 2932 069e 94F83030 		ldrb	r3, [r4, #48]	@ zero_extendqisi2
 2933              	.LBE1655:
 2934              	.LBE1654:
 2935              	.LBB1658:
 2936              	.LBB1659:
  66:../../libDaisy//src/dev/mpr121.h ****     }
 2937              		.loc 13 66 40 view .LVU655
 2938 06a2 07AA     		add	r2, sp, #28
 2939 06a4 94F82C10 		ldrb	r1, [r4, #44]	@ zero_extendqisi2
 2940              	.LBE1659:
 2941              	.LBE1658:
 2942              	.LBB1662:
 2943              	.LBB1656:
 2944              		.loc 13 343 55 view .LVU656
 2945 06a8 4045     		cmp	r0, r8
 2946 06aa 18BF     		it	ne
 2947 06ac 43F00103 		orrne	r3, r3, #1
 2948              	.LBE1656:
 2949              	.LBE1662:
 2950              	.LBB1663:
 2951              	.LBB1660:
  66:../../libDaisy//src/dev/mpr121.h ****     }
 2952              		.loc 13 66 40 view .LVU657
 2953 06b0 0095     		str	r5, [sp]
 2954 06b2 B048     		ldr	r0, .L19
 2955              	.LVL145:
  66:../../libDaisy//src/dev/mpr121.h ****     }
 2956              		.loc 13 66 40 view .LVU658
 2957              	.LBE1660:
 2958              	.LBE1663:
 2959              	.LBB1664:
 2960              	.LBB1657:
 2961              		.loc 13 343 55 view .LVU659
 2962 06b4 84F83030 		strb	r3, [r4, #48]
ARM GAS  /var/folders/hl/qgbwny5j0fd895c2c41bk3tw0000gp/T//cckqgw4a.s 			page 83


 2963              	.LVL146:
 2964              		.loc 13 343 55 view .LVU660
 2965              	.LBE1657:
 2966              	.LBE1664:
 2967              	.LBB1665:
 2968              	.LBI1658:
  63:../../libDaisy//src/dev/mpr121.h ****     {
 2969              		.loc 13 63 10 is_stmt 1 view .LVU661
 2970              	.LBB1661:
  65:../../libDaisy//src/dev/mpr121.h ****                != i2c_.TransmitBlocking(config_.dev_addr, data, size, 10);
 2971              		.loc 13 65 9 view .LVU662
  66:../../libDaisy//src/dev/mpr121.h ****     }
 2972              		.loc 13 66 40 is_stmt 0 view .LVU663
 2973 06b8 0223     		movs	r3, #2
 2974 06ba FFF7FEFF 		bl	_ZN5daisy9I2CHandle16TransmitBlockingEtPhtm
 2975              	.LVL147:
  66:../../libDaisy//src/dev/mpr121.h ****     }
 2976              		.loc 13 66 40 view .LVU664
 2977              	.LBE1661:
 2978              	.LBE1665:
 2979              	.LBB1666:
 2980              	.LBI1666:
 2981              		.loc 13 343 10 is_stmt 1 view .LVU665
 2982              	.LBB1667:
 2983              		.loc 13 343 55 is_stmt 0 view .LVU666
 2984 06be 94F83030 		ldrb	r3, [r4, #48]	@ zero_extendqisi2
 2985              	.LBE1667:
 2986              	.LBE1666:
 2987              	.LBB1670:
 2988              	.LBB1671:
  66:../../libDaisy//src/dev/mpr121.h ****     }
 2989              		.loc 13 66 40 view .LVU667
 2990 06c2 07AA     		add	r2, sp, #28
 2991 06c4 94F82C10 		ldrb	r1, [r4, #44]	@ zero_extendqisi2
 2992              	.LBE1671:
 2993              	.LBE1670:
 2994              	.LBB1675:
 2995              	.LBB1668:
 2996              		.loc 13 343 55 view .LVU668
 2997 06c8 4045     		cmp	r0, r8
 2998 06ca 18BF     		it	ne
 2999 06cc 43F00103 		orrne	r3, r3, #1
 3000              	.LBE1668:
 3001              	.LBE1675:
 3002              	.LBB1676:
 3003              	.LBB1672:
  66:../../libDaisy//src/dev/mpr121.h ****     }
 3004              		.loc 13 66 40 view .LVU669
 3005 06d0 0095     		str	r5, [sp]
 3006 06d2 A848     		ldr	r0, .L19
 3007              	.LVL148:
  66:../../libDaisy//src/dev/mpr121.h ****     }
 3008              		.loc 13 66 40 view .LVU670
 3009              	.LBE1672:
 3010              	.LBE1676:
 3011              	.LBB1677:
 3012              	.LBB1669:
ARM GAS  /var/folders/hl/qgbwny5j0fd895c2c41bk3tw0000gp/T//cckqgw4a.s 			page 84


 3013              		.loc 13 343 55 view .LVU671
 3014 06d4 84F83030 		strb	r3, [r4, #48]
 3015              	.LVL149:
 3016              		.loc 13 343 55 view .LVU672
 3017              	.LBE1669:
 3018              	.LBE1677:
 3019              	.LBB1678:
 3020              	.LBI1670:
  63:../../libDaisy//src/dev/mpr121.h ****     {
 3021              		.loc 13 63 10 is_stmt 1 view .LVU673
 3022              	.LBB1673:
  65:../../libDaisy//src/dev/mpr121.h ****                != i2c_.TransmitBlocking(config_.dev_addr, data, size, 10);
 3023              		.loc 13 65 9 view .LVU674
 3024              	.LBE1673:
 3025              	.LBE1678:
 281:../../libDaisy//src/dev/mpr121.h ****         buff[1] = value;
 3026              		.loc 13 281 17 is_stmt 0 view .LVU675
 3027 06d8 2F23     		movs	r3, #47
 282:../../libDaisy//src/dev/mpr121.h ****         SetTransportErr(transport_.Write(buff, 2));
 3028              		.loc 13 282 17 view .LVU676
 3029 06da 8DF81D70 		strb	r7, [sp, #29]
 281:../../libDaisy//src/dev/mpr121.h ****         buff[1] = value;
 3030              		.loc 13 281 17 view .LVU677
 3031 06de 8DF81C30 		strb	r3, [sp, #28]
 3032              	.LBB1679:
 3033              	.LBB1674:
  66:../../libDaisy//src/dev/mpr121.h ****     }
 3034              		.loc 13 66 40 view .LVU678
 3035 06e2 0223     		movs	r3, #2
 3036 06e4 FFF7FEFF 		bl	_ZN5daisy9I2CHandle16TransmitBlockingEtPhtm
 3037              	.LVL150:
  66:../../libDaisy//src/dev/mpr121.h ****     }
 3038              		.loc 13 66 40 view .LVU679
 3039              	.LBE1674:
 3040              	.LBE1679:
 3041              	.LBB1680:
 3042              	.LBI1680:
 3043              		.loc 13 343 10 is_stmt 1 view .LVU680
 3044              	.LBB1681:
 3045              		.loc 13 343 55 is_stmt 0 view .LVU681
 3046 06e8 94F83030 		ldrb	r3, [r4, #48]	@ zero_extendqisi2
 3047              	.LBE1681:
 3048              	.LBE1680:
 3049              	.LBB1684:
 3050              	.LBB1685:
  66:../../libDaisy//src/dev/mpr121.h ****     }
 3051              		.loc 13 66 40 view .LVU682
 3052 06ec 07AA     		add	r2, sp, #28
 3053 06ee 94F82C10 		ldrb	r1, [r4, #44]	@ zero_extendqisi2
 3054              	.LBE1685:
 3055              	.LBE1684:
 3056              	.LBB1688:
 3057              	.LBB1682:
 3058              		.loc 13 343 55 view .LVU683
 3059 06f2 4045     		cmp	r0, r8
 3060 06f4 18BF     		it	ne
 3061 06f6 43F00103 		orrne	r3, r3, #1
ARM GAS  /var/folders/hl/qgbwny5j0fd895c2c41bk3tw0000gp/T//cckqgw4a.s 			page 85


 3062              	.LBE1682:
 3063              	.LBE1688:
 3064              	.LBB1689:
 3065              	.LBB1686:
  66:../../libDaisy//src/dev/mpr121.h ****     }
 3066              		.loc 13 66 40 view .LVU684
 3067 06fa 0095     		str	r5, [sp]
 3068 06fc 9D48     		ldr	r0, .L19
 3069              	.LVL151:
  66:../../libDaisy//src/dev/mpr121.h ****     }
 3070              		.loc 13 66 40 view .LVU685
 3071              	.LBE1686:
 3072              	.LBE1689:
 3073              	.LBB1690:
 3074              	.LBB1683:
 3075              		.loc 13 343 55 view .LVU686
 3076 06fe 84F83030 		strb	r3, [r4, #48]
 3077              	.LVL152:
 3078              		.loc 13 343 55 view .LVU687
 3079              	.LBE1683:
 3080              	.LBE1690:
 289:../../libDaisy//src/dev/mpr121.h ****             SetTransportErr(transport_.Write(buff, 2));
 3081              		.loc 13 289 21 view .LVU688
 3082 0702 9DF80830 		ldrb	r3, [sp, #8]	@ zero_extendqisi2
 288:../../libDaisy//src/dev/mpr121.h ****             buff[1] = ecr_backup;
 3083              		.loc 13 288 21 view .LVU689
 3084 0706 8DF81C60 		strb	r6, [sp, #28]
 289:../../libDaisy//src/dev/mpr121.h ****             SetTransportErr(transport_.Write(buff, 2));
 3085              		.loc 13 289 21 view .LVU690
 3086 070a 8DF81D30 		strb	r3, [sp, #29]
 3087              	.LVL153:
 3088              	.LBB1691:
 3089              	.LBI1684:
  63:../../libDaisy//src/dev/mpr121.h ****     {
 3090              		.loc 13 63 10 is_stmt 1 view .LVU691
 3091              	.LBB1687:
  65:../../libDaisy//src/dev/mpr121.h ****                != i2c_.TransmitBlocking(config_.dev_addr, data, size, 10);
 3092              		.loc 13 65 9 view .LVU692
  66:../../libDaisy//src/dev/mpr121.h ****     }
 3093              		.loc 13 66 40 is_stmt 0 view .LVU693
 3094 070e 0223     		movs	r3, #2
 3095 0710 FFF7FEFF 		bl	_ZN5daisy9I2CHandle16TransmitBlockingEtPhtm
 3096              	.LVL154:
  66:../../libDaisy//src/dev/mpr121.h ****     }
 3097              		.loc 13 66 40 view .LVU694
 3098              	.LBE1687:
 3099              	.LBE1691:
 3100              	.LBB1692:
 3101              	.LBI1692:
 3102              		.loc 13 343 10 is_stmt 1 view .LVU695
 3103              	.LBB1693:
 3104              		.loc 13 343 55 is_stmt 0 view .LVU696
 3105 0714 94F83030 		ldrb	r3, [r4, #48]	@ zero_extendqisi2
 3106              	.LBE1693:
 3107              	.LBE1692:
 3108              	.LBE1699:
 3109              	.LBE1705:
ARM GAS  /var/folders/hl/qgbwny5j0fd895c2c41bk3tw0000gp/T//cckqgw4a.s 			page 86


 3110              	.LBB1706:
 3111              	.LBB1707:
 3112              	.LBB1708:
 3113              	.LBB1709:
  66:../../libDaisy//src/dev/mpr121.h ****     }
 3114              		.loc 13 66 40 view .LVU697
 3115 0718 07AA     		add	r2, sp, #28
 3116 071a 94F82C10 		ldrb	r1, [r4, #44]	@ zero_extendqisi2
 3117              	.LBE1709:
 3118              	.LBE1708:
 3119              	.LBE1707:
 3120              	.LBE1706:
 3121              	.LBB1774:
 3122              	.LBB1700:
 3123              	.LBB1696:
 3124              	.LBB1694:
 3125              		.loc 13 343 55 view .LVU698
 3126 071e 4045     		cmp	r0, r8
 3127 0720 18BF     		it	ne
 3128 0722 43F00103 		orrne	r3, r3, #1
 3129              	.LBE1694:
 3130              	.LBE1696:
 3131              	.LBE1700:
 3132              	.LBE1774:
 3133              	.LBB1775:
 3134              	.LBB1770:
 3135              	.LBB1713:
 3136              	.LBB1710:
  66:../../libDaisy//src/dev/mpr121.h ****     }
 3137              		.loc 13 66 40 view .LVU699
 3138 0726 0095     		str	r5, [sp]
 3139 0728 9248     		ldr	r0, .L19
 3140              	.LVL155:
  66:../../libDaisy//src/dev/mpr121.h ****     }
 3141              		.loc 13 66 40 view .LVU700
 3142              	.LBE1710:
 3143              	.LBE1713:
 3144              	.LBE1770:
 3145              	.LBE1775:
 3146              	.LBB1776:
 3147              	.LBB1701:
 3148              	.LBB1697:
 3149              	.LBB1695:
 3150              		.loc 13 343 55 view .LVU701
 3151 072a 84F83030 		strb	r3, [r4, #48]
 3152              	.LVL156:
 3153              		.loc 13 343 55 view .LVU702
 3154              	.LBE1695:
 3155              	.LBE1697:
 3156              	.LBE1701:
 3157              	.LBE1776:
 3158              	.LBB1777:
 3159              	.LBI1706:
 257:../../libDaisy//src/dev/mpr121.h ****     {
 3160              		.loc 13 257 10 is_stmt 1 view .LVU703
 3161              	.LBB1771:
 3162              	.LBB1714:
ARM GAS  /var/folders/hl/qgbwny5j0fd895c2c41bk3tw0000gp/T//cckqgw4a.s 			page 87


 3163              	.LBI1708:
  63:../../libDaisy//src/dev/mpr121.h ****     {
 3164              		.loc 13 63 10 view .LVU704
 3165              	.LBB1711:
  65:../../libDaisy//src/dev/mpr121.h ****                != i2c_.TransmitBlocking(config_.dev_addr, data, size, 10);
 3166              		.loc 13 65 9 view .LVU705
  66:../../libDaisy//src/dev/mpr121.h ****     }
 3167              		.loc 13 66 40 is_stmt 0 view .LVU706
 3168 072e 3B46     		mov	r3, r7
 3169              	.LBE1711:
 3170              	.LBE1714:
 264:../../libDaisy//src/dev/mpr121.h **** 
 3171              		.loc 13 264 17 view .LVU707
 3172 0730 8DF81D80 		strb	r8, [sp, #29]
 3173 0734 8DF81C60 		strb	r6, [sp, #28]
 3174              	.LBB1715:
 3175              	.LBB1712:
  66:../../libDaisy//src/dev/mpr121.h ****     }
 3176              		.loc 13 66 40 view .LVU708
 3177 0738 FFF7FEFF 		bl	_ZN5daisy9I2CHandle16TransmitBlockingEtPhtm
 3178              	.LVL157:
  66:../../libDaisy//src/dev/mpr121.h ****     }
 3179              		.loc 13 66 40 view .LVU709
 3180              	.LBE1712:
 3181              	.LBE1715:
 3182              	.LBB1716:
 3183              	.LBI1716:
 3184              		.loc 13 343 10 is_stmt 1 view .LVU710
 3185              	.LBB1717:
 3186              		.loc 13 343 55 is_stmt 0 view .LVU711
 3187 073c 94F83030 		ldrb	r3, [r4, #48]	@ zero_extendqisi2
 3188              	.LBE1717:
 3189              	.LBE1716:
 3190              	.LBB1720:
 3191              	.LBB1721:
  73:../../libDaisy//src/dev/mpr121.h ****     }
 3192              		.loc 13 73 39 view .LVU712
 3193 0740 02AA     		add	r2, sp, #8
 3194 0742 94F82C10 		ldrb	r1, [r4, #44]	@ zero_extendqisi2
 3195              	.LBE1721:
 3196              	.LBE1720:
 3197              	.LBB1724:
 3198              	.LBB1718:
 3199              		.loc 13 343 55 view .LVU713
 3200 0746 4045     		cmp	r0, r8
 3201 0748 18BF     		it	ne
 3202 074a 43F00103 		orrne	r3, r3, #1
 3203              	.LBE1718:
 3204              	.LBE1724:
 3205              	.LBB1725:
 3206              	.LBB1722:
  73:../../libDaisy//src/dev/mpr121.h ****     }
 3207              		.loc 13 73 39 view .LVU714
 3208 074e 0095     		str	r5, [sp]
 3209 0750 8848     		ldr	r0, .L19
 3210              	.LVL158:
  73:../../libDaisy//src/dev/mpr121.h ****     }
ARM GAS  /var/folders/hl/qgbwny5j0fd895c2c41bk3tw0000gp/T//cckqgw4a.s 			page 88


 3211              		.loc 13 73 39 view .LVU715
 3212              	.LBE1722:
 3213              	.LBE1725:
 3214              	.LBB1726:
 3215              	.LBB1719:
 3216              		.loc 13 343 55 view .LVU716
 3217 0752 84F83030 		strb	r3, [r4, #48]
 3218              	.LVL159:
 3219              		.loc 13 343 55 view .LVU717
 3220              	.LBE1719:
 3221              	.LBE1726:
 3222              	.LBB1727:
 3223              	.LBI1720:
  70:../../libDaisy//src/dev/mpr121.h ****     {
 3224              		.loc 13 70 10 is_stmt 1 view .LVU718
 3225              	.LBB1723:
  72:../../libDaisy//src/dev/mpr121.h ****                != i2c_.ReceiveBlocking(config_.dev_addr, data, size, 10);
 3226              		.loc 13 72 9 view .LVU719
  73:../../libDaisy//src/dev/mpr121.h ****     }
 3227              		.loc 13 73 39 is_stmt 0 view .LVU720
 3228 0756 3B46     		mov	r3, r7
 3229 0758 FFF7FEFF 		bl	_ZN5daisy9I2CHandle15ReceiveBlockingEtPhtm
 3230              	.LVL160:
  73:../../libDaisy//src/dev/mpr121.h ****     }
 3231              		.loc 13 73 39 view .LVU721
 3232              	.LBE1723:
 3233              	.LBE1727:
 3234              	.LBB1728:
 3235              	.LBI1728:
 3236              		.loc 13 343 10 is_stmt 1 view .LVU722
 3237              	.LBB1729:
 3238              		.loc 13 343 55 is_stmt 0 view .LVU723
 3239 075c 94F83030 		ldrb	r3, [r4, #48]	@ zero_extendqisi2
 3240              	.LBE1729:
 3241              	.LBE1728:
