ARM GAS  /var/folders/hl/qgbwny5j0fd895c2c41bk3tw0000gp/T//cckqgw4a.s 			page 1


   1              		.cpu cortex-m7
   2              		.eabi_attribute 28, 1
   3              		.eabi_attribute 20, 1
   4              		.eabi_attribute 21, 1
   5              		.eabi_attribute 23, 3
   6              		.eabi_attribute 24, 1
   7              		.eabi_attribute 25, 1
   8              		.eabi_attribute 26, 1
   9              		.eabi_attribute 30, 2
  10              		.eabi_attribute 34, 1
  11              		.eabi_attribute 18, 4
  12              		.file	"OmniSeed.cpp"
  13              		.text
  14              	.Ltext0:
  15              		.cfi_sections	.debug_frame
  16              		.section	.text._ZN5daisy6SwitchD2Ev,"axG",%progbits,_ZN5daisy6SwitchD5Ev,comdat
  17              		.align	1
  18              		.p2align 2,,3
  19              		.weak	_ZN5daisy6SwitchD2Ev
  20              		.arch armv7e-m
  21              		.syntax unified
  22              		.thumb
  23              		.thumb_func
  24              		.fpu fpv5-d16
  26              	_ZN5daisy6SwitchD2Ev:
  27              	.LVL0:
  28              	.LFB1606:
  29              		.file 1 "../../libDaisy//src/hid/switch.h"
   1:../../libDaisy//src/hid/switch.h **** #pragma once
   2:../../libDaisy//src/hid/switch.h **** #ifndef DSY_SWITCH_H
   3:../../libDaisy//src/hid/switch.h **** #define DSY_SWITCH_H
   4:../../libDaisy//src/hid/switch.h **** #include "daisy_core.h"
   5:../../libDaisy//src/hid/switch.h **** #include "per/gpio.h"
   6:../../libDaisy//src/hid/switch.h **** #include "sys/system.h"
   7:../../libDaisy//src/hid/switch.h **** 
   8:../../libDaisy//src/hid/switch.h **** namespace daisy
   9:../../libDaisy//src/hid/switch.h **** {
  10:../../libDaisy//src/hid/switch.h **** /** 
  11:../../libDaisy//src/hid/switch.h ****     Generic Class for handling momentary/latching switches \n 
  12:../../libDaisy//src/hid/switch.h ****     Inspired/influenced by Mutable Instruments (pichenettes) Switch classes
  13:../../libDaisy//src/hid/switch.h ****     @author Stephen Hensley
  14:../../libDaisy//src/hid/switch.h ****     @date December 2019
  15:../../libDaisy//src/hid/switch.h ****     @ingroup controls
  16:../../libDaisy//src/hid/switch.h **** */
  17:../../libDaisy//src/hid/switch.h **** class Switch
  18:../../libDaisy//src/hid/switch.h **** {
  19:../../libDaisy//src/hid/switch.h ****   public:
  20:../../libDaisy//src/hid/switch.h ****     /** Specifies the expected behavior of the switch */
  21:../../libDaisy//src/hid/switch.h ****     enum Type
  22:../../libDaisy//src/hid/switch.h ****     {
  23:../../libDaisy//src/hid/switch.h ****         TYPE_TOGGLE,    /**< & */
  24:../../libDaisy//src/hid/switch.h ****         TYPE_MOMENTARY, /**< & */
  25:../../libDaisy//src/hid/switch.h ****     };
  26:../../libDaisy//src/hid/switch.h ****     /** Specifies whether the pressed is HIGH or LOW. */
  27:../../libDaisy//src/hid/switch.h ****     enum Polarity
  28:../../libDaisy//src/hid/switch.h ****     {
  29:../../libDaisy//src/hid/switch.h ****         POLARITY_NORMAL,   /**< & */
ARM GAS  /var/folders/hl/qgbwny5j0fd895c2c41bk3tw0000gp/T//cckqgw4a.s 			page 2


  30:../../libDaisy//src/hid/switch.h ****         POLARITY_INVERTED, /**< & */
  31:../../libDaisy//src/hid/switch.h ****     };
  32:../../libDaisy//src/hid/switch.h **** 
  33:../../libDaisy//src/hid/switch.h ****     /** Specifies whether to use built-in Pull Up/Down resistors to hold button at a given state wh
  34:../../libDaisy//src/hid/switch.h ****     enum Pull
  35:../../libDaisy//src/hid/switch.h ****     {
  36:../../libDaisy//src/hid/switch.h ****         PULL_UP,   /**< & */
  37:../../libDaisy//src/hid/switch.h ****         PULL_DOWN, /**< & */
  38:../../libDaisy//src/hid/switch.h ****         PULL_NONE, /**< & */
  39:../../libDaisy//src/hid/switch.h ****     };
  40:../../libDaisy//src/hid/switch.h **** 
  41:../../libDaisy//src/hid/switch.h ****     Switch() {}
  42:../../libDaisy//src/hid/switch.h ****     ~Switch() {}
  30              		.loc 1 42 5 view -0
  31              		.cfi_startproc
  32              		@ args = 0, pretend = 0, frame = 0
  33              		@ frame_needed = 0, uses_anonymous_args = 0
  34              		@ link register save eliminated.
  35              		.loc 1 42 16 is_stmt 0 view .LVU1
  36 0000 7047     		bx	lr
  37              		.cfi_endproc
  38              	.LFE1606:
  40              		.weak	_ZN5daisy6SwitchD1Ev
  41              		.thumb_set _ZN5daisy6SwitchD1Ev,_ZN5daisy6SwitchD2Ev
  42 0002 00BF     		.section	.text._ZN5daisy15WaveTableLoaderD2Ev,"axG",%progbits,_ZN5daisy15WaveTableLoaderD5Ev,comda
  43              		.align	1
  44              		.p2align 2,,3
  45              		.weak	_ZN5daisy15WaveTableLoaderD2Ev
  46              		.syntax unified
  47              		.thumb
  48              		.thumb_func
  49              		.fpu fpv5-d16
  51              	_ZN5daisy15WaveTableLoaderD2Ev:
  52              	.LVL1:
  53              	.LFB2511:
  54              		.file 2 "../../libDaisy//src/util/WaveTableLoader.h"
   1:../../libDaisy//src/util/WaveTableLoader.h **** #pragma once
   2:../../libDaisy//src/util/WaveTableLoader.h **** #include "fatfs.h"
   3:../../libDaisy//src/util/WaveTableLoader.h **** #include "util/wav_format.h"
   4:../../libDaisy//src/util/WaveTableLoader.h **** namespace daisy
   5:../../libDaisy//src/util/WaveTableLoader.h **** {
   6:../../libDaisy//src/util/WaveTableLoader.h **** /** Loads a bank of wavetables into memory. 
   7:../../libDaisy//src/util/WaveTableLoader.h ****  ** Pointers to the start of each waveform will be provided, 
   8:../../libDaisy//src/util/WaveTableLoader.h ****  ** but the user can do whatever they want with the data once
   9:../../libDaisy//src/util/WaveTableLoader.h ****  ** it's imported. 
  10:../../libDaisy//src/util/WaveTableLoader.h ****  **
  11:../../libDaisy//src/util/WaveTableLoader.h ****  ** A internal 4kB workspace is used for reading from the file, and conveting to the correct memory
  12:../../libDaisy//src/util/WaveTableLoader.h ****  ** */
  13:../../libDaisy//src/util/WaveTableLoader.h **** class WaveTableLoader
  14:../../libDaisy//src/util/WaveTableLoader.h **** {
  15:../../libDaisy//src/util/WaveTableLoader.h ****   public:
  16:../../libDaisy//src/util/WaveTableLoader.h ****     enum class Result
  17:../../libDaisy//src/util/WaveTableLoader.h ****     {
  18:../../libDaisy//src/util/WaveTableLoader.h ****         OK,
  19:../../libDaisy//src/util/WaveTableLoader.h ****         ERR_TABLE_INFO_OVERFLOW,
  20:../../libDaisy//src/util/WaveTableLoader.h ****         ERR_FILE_READ,
  21:../../libDaisy//src/util/WaveTableLoader.h ****         ERR_GENERIC,
ARM GAS  /var/folders/hl/qgbwny5j0fd895c2c41bk3tw0000gp/T//cckqgw4a.s 			page 3


  22:../../libDaisy//src/util/WaveTableLoader.h ****     };
  23:../../libDaisy//src/util/WaveTableLoader.h ****     WaveTableLoader() {}
  24:../../libDaisy//src/util/WaveTableLoader.h ****     ~WaveTableLoader() {}
  55              		.loc 2 24 5 is_stmt 1 view -0
  56              		.cfi_startproc
  57              		@ args = 0, pretend = 0, frame = 0
  58              		@ frame_needed = 0, uses_anonymous_args = 0
  59              		@ link register save eliminated.
  60              		.loc 2 24 25 is_stmt 0 view .LVU3
  61 0000 7047     		bx	lr
  62              		.cfi_endproc
  63              	.LFE2511:
  65              		.weak	_ZN5daisy15WaveTableLoaderD1Ev
  66              		.thumb_set _ZN5daisy15WaveTableLoaderD1Ev,_ZN5daisy15WaveTableLoaderD2Ev
  67 0002 00BF     		.section	.text._ZN5daisy9DaisySeedD2Ev,"axG",%progbits,_ZN5daisy9DaisySeedD5Ev,comdat
  68              		.align	1
  69              		.p2align 2,,3
  70              		.weak	_ZN5daisy9DaisySeedD2Ev
  71              		.syntax unified
  72              		.thumb
  73              		.thumb_func
  74              		.fpu fpv5-d16
  76              	_ZN5daisy9DaisySeedD2Ev:
  77              	.LVL2:
  78              	.LFB2529:
  79              		.file 3 "../../libDaisy//src/daisy_seed.h"
   1:../../libDaisy//src/daisy_seed.h **** #pragma once
   2:../../libDaisy//src/daisy_seed.h **** #ifndef DSY_SEED_H
   3:../../libDaisy//src/daisy_seed.h **** #define DSY_SEED_H
   4:../../libDaisy//src/daisy_seed.h **** 
   5:../../libDaisy//src/daisy_seed.h **** #include "daisy.h"
   6:../../libDaisy//src/daisy_seed.h **** 
   7:../../libDaisy//src/daisy_seed.h **** //Uncomment this out if you're still using the rev2 hardware
   8:../../libDaisy//src/daisy_seed.h **** //#define SEED_REV2
   9:../../libDaisy//src/daisy_seed.h **** 
  10:../../libDaisy//src/daisy_seed.h **** namespace daisy
  11:../../libDaisy//src/daisy_seed.h **** {
  12:../../libDaisy//src/daisy_seed.h **** /**
  13:../../libDaisy//src/daisy_seed.h ****    @brief This is the higher-level interface for the Daisy board. \n 
  14:../../libDaisy//src/daisy_seed.h ****     All basic peripheral configuration/initialization is setup here. \n
  15:../../libDaisy//src/daisy_seed.h **** 
  16:../../libDaisy//src/daisy_seed.h ****    @ingroup boards
  17:../../libDaisy//src/daisy_seed.h **** */
  18:../../libDaisy//src/daisy_seed.h **** class DaisySeed
  19:../../libDaisy//src/daisy_seed.h **** {
  20:../../libDaisy//src/daisy_seed.h ****   public:
  21:../../libDaisy//src/daisy_seed.h ****     DaisySeed() {}
  22:../../libDaisy//src/daisy_seed.h ****     ~DaisySeed() {}
  80              		.loc 3 22 5 is_stmt 1 view -0
  81              		.cfi_startproc
  82              		@ args = 0, pretend = 0, frame = 0
  83              		@ frame_needed = 0, uses_anonymous_args = 0
  84              		@ link register save eliminated.
  85              	.LBB591:
  86              	.LBI591:
  87              		.file 4 "../../libDaisy//src/sys/system.h"
   1:../../libDaisy//src/sys/system.h **** #ifndef DSY_SYSTEM_H
ARM GAS  /var/folders/hl/qgbwny5j0fd895c2c41bk3tw0000gp/T//cckqgw4a.s 			page 4


   2:../../libDaisy//src/sys/system.h **** #define DSY_SYSTEM_H
   3:../../libDaisy//src/sys/system.h **** 
   4:../../libDaisy//src/sys/system.h **** #ifndef UNIT_TEST // for unit tests, a dummy implementation is provided below
   5:../../libDaisy//src/sys/system.h **** 
   6:../../libDaisy//src/sys/system.h **** #include <cstdint>
   7:../../libDaisy//src/sys/system.h **** #include "per/tim.h"
   8:../../libDaisy//src/sys/system.h **** 
   9:../../libDaisy//src/sys/system.h **** namespace daisy
  10:../../libDaisy//src/sys/system.h **** {
  11:../../libDaisy//src/sys/system.h **** /** A handle for interacting with the Core System. 
  12:../../libDaisy//src/sys/system.h ****  ** This includes the Clock tree, MPU, global DMA initialization,
  13:../../libDaisy//src/sys/system.h ****  ** cache handling, and any other necessary global initiailzation
  14:../../libDaisy//src/sys/system.h ****  **
  15:../../libDaisy//src/sys/system.h ****  ** @author shensley
  16:../../libDaisy//src/sys/system.h ****  ** @ingroup system
  17:../../libDaisy//src/sys/system.h ****  */
  18:../../libDaisy//src/sys/system.h **** class System
  19:../../libDaisy//src/sys/system.h **** {
  20:../../libDaisy//src/sys/system.h ****   public:
  21:../../libDaisy//src/sys/system.h ****     /** Contains settings for initializing the System */
  22:../../libDaisy//src/sys/system.h ****     struct Config
  23:../../libDaisy//src/sys/system.h ****     {
  24:../../libDaisy//src/sys/system.h ****         /** Specifies the system clock frequency that feeds APB/AHB clocks, etc. */
  25:../../libDaisy//src/sys/system.h ****         enum class SysClkFreq
  26:../../libDaisy//src/sys/system.h ****         {
  27:../../libDaisy//src/sys/system.h ****             FREQ_400MHZ,
  28:../../libDaisy//src/sys/system.h ****             FREQ_480MHZ,
  29:../../libDaisy//src/sys/system.h ****         };
  30:../../libDaisy//src/sys/system.h **** 
  31:../../libDaisy//src/sys/system.h ****         /** Method to call on the struct to set to defaults
  32:../../libDaisy//src/sys/system.h ****          ** CPU Freq set to 400MHz
  33:../../libDaisy//src/sys/system.h ****          ** Cache Enabled 
  34:../../libDaisy//src/sys/system.h ****          ** */
  35:../../libDaisy//src/sys/system.h ****         void Defaults()
  36:../../libDaisy//src/sys/system.h ****         {
  37:../../libDaisy//src/sys/system.h ****             cpu_freq    = SysClkFreq::FREQ_400MHZ;
  38:../../libDaisy//src/sys/system.h ****             use_dcache  = true;
  39:../../libDaisy//src/sys/system.h ****             use_icache  = true;
  40:../../libDaisy//src/sys/system.h ****             skip_clocks = false;
  41:../../libDaisy//src/sys/system.h ****         }
  42:../../libDaisy//src/sys/system.h **** 
  43:../../libDaisy//src/sys/system.h ****         /** Method to call on the struct to set to boost mode:
  44:../../libDaisy//src/sys/system.h ****          ** CPU Freq set to 480MHz
  45:../../libDaisy//src/sys/system.h ****          ** Cache Enabled 
  46:../../libDaisy//src/sys/system.h ****          ** */
  47:../../libDaisy//src/sys/system.h ****         void Boost()
  48:../../libDaisy//src/sys/system.h ****         {
  49:../../libDaisy//src/sys/system.h ****             cpu_freq    = SysClkFreq::FREQ_480MHZ;
  50:../../libDaisy//src/sys/system.h ****             use_dcache  = true;
  51:../../libDaisy//src/sys/system.h ****             use_icache  = true;
  52:../../libDaisy//src/sys/system.h ****             skip_clocks = false;
  53:../../libDaisy//src/sys/system.h ****         }
  54:../../libDaisy//src/sys/system.h **** 
  55:../../libDaisy//src/sys/system.h ****         SysClkFreq cpu_freq;
  56:../../libDaisy//src/sys/system.h ****         bool       use_dcache;
  57:../../libDaisy//src/sys/system.h ****         bool       use_icache;
  58:../../libDaisy//src/sys/system.h ****         bool       skip_clocks;
ARM GAS  /var/folders/hl/qgbwny5j0fd895c2c41bk3tw0000gp/T//cckqgw4a.s 			page 5


  59:../../libDaisy//src/sys/system.h ****     };
  60:../../libDaisy//src/sys/system.h **** 
  61:../../libDaisy//src/sys/system.h ****     /** Describes the different regions of memory available to the Daisy
  62:../../libDaisy//src/sys/system.h ****      * 
  63:../../libDaisy//src/sys/system.h ****      */
  64:../../libDaisy//src/sys/system.h ****     enum MemoryRegion
  65:../../libDaisy//src/sys/system.h ****     {
  66:../../libDaisy//src/sys/system.h ****         INTERNAL_FLASH = 0,
  67:../../libDaisy//src/sys/system.h ****         ITCMRAM,
  68:../../libDaisy//src/sys/system.h ****         DTCMRAM,
  69:../../libDaisy//src/sys/system.h ****         SRAM_D1,
  70:../../libDaisy//src/sys/system.h ****         SRAM_D2,
  71:../../libDaisy//src/sys/system.h ****         SRAM_D3,
  72:../../libDaisy//src/sys/system.h ****         SDRAM,
  73:../../libDaisy//src/sys/system.h ****         QSPI,
  74:../../libDaisy//src/sys/system.h ****         INVALID_ADDRESS,
  75:../../libDaisy//src/sys/system.h ****     };
  76:../../libDaisy//src/sys/system.h **** 
  77:../../libDaisy//src/sys/system.h ****     System() {}
  78:../../libDaisy//src/sys/system.h ****     ~System() {}
  88              		.loc 4 78 5 view .LVU5
  89              		.loc 4 78 5 is_stmt 0 view .LVU6
  90              	.LBE591:
  91              	.LBB592:
  92              	.LBI592:
  93              		.file 5 "../../libDaisy//src/hid/usb.h"
   1:../../libDaisy//src/hid/usb.h **** #pragma once
   2:../../libDaisy//src/hid/usb.h **** #ifndef DSY_HID_USB_H
   3:../../libDaisy//src/hid/usb.h **** #define DSY_HID_USB_H
   4:../../libDaisy//src/hid/usb.h **** #include <stdint.h>
   5:../../libDaisy//src/hid/usb.h **** #include <stdlib.h>
   6:../../libDaisy//src/hid/usb.h **** 
   7:../../libDaisy//src/hid/usb.h **** namespace daisy
   8:../../libDaisy//src/hid/usb.h **** /** @addtogroup human_interface
   9:../../libDaisy//src/hid/usb.h ****     @{
  10:../../libDaisy//src/hid/usb.h **** */
  11:../../libDaisy//src/hid/usb.h **** 
  12:../../libDaisy//src/hid/usb.h **** {
  13:../../libDaisy//src/hid/usb.h **** /** 
  14:../../libDaisy//src/hid/usb.h ****     @brief Interface for initializing and using the USB Peripherals on the daisy
  15:../../libDaisy//src/hid/usb.h ****     @author Stephen Hensley
  16:../../libDaisy//src/hid/usb.h ****     @date December 2019
  17:../../libDaisy//src/hid/usb.h **** */
  18:../../libDaisy//src/hid/usb.h **** class UsbHandle
  19:../../libDaisy//src/hid/usb.h **** {
  20:../../libDaisy//src/hid/usb.h ****   public:
  21:../../libDaisy//src/hid/usb.h ****     /** Return values for USBHandle Functions */
  22:../../libDaisy//src/hid/usb.h ****     enum class Result
  23:../../libDaisy//src/hid/usb.h ****     {
  24:../../libDaisy//src/hid/usb.h ****         OK,
  25:../../libDaisy//src/hid/usb.h ****         ERR,
  26:../../libDaisy//src/hid/usb.h ****     };
  27:../../libDaisy//src/hid/usb.h **** 
  28:../../libDaisy//src/hid/usb.h ****     /** Specified which of the two USB Peripherals to initialize. */
  29:../../libDaisy//src/hid/usb.h ****     enum UsbPeriph
  30:../../libDaisy//src/hid/usb.h ****     {
  31:../../libDaisy//src/hid/usb.h ****         FS_INTERNAL, /**< Internal pin */
ARM GAS  /var/folders/hl/qgbwny5j0fd895c2c41bk3tw0000gp/T//cckqgw4a.s 			page 6


  32:../../libDaisy//src/hid/usb.h ****         FS_EXTERNAL, /**< FS External D+ pin is Pin 38 (GPIO32). FS External D- pin is Pin 37 (GPIO
  33:../../libDaisy//src/hid/usb.h ****         FS_BOTH,     /**< Both */
  34:../../libDaisy//src/hid/usb.h ****     };
  35:../../libDaisy//src/hid/usb.h **** 
  36:../../libDaisy//src/hid/usb.h **** 
  37:../../libDaisy//src/hid/usb.h ****     /** Function called upon reception of a buffer */
  38:../../libDaisy//src/hid/usb.h ****     typedef void (*ReceiveCallback)(uint8_t* buff, uint32_t* len);
  39:../../libDaisy//src/hid/usb.h **** 
  40:../../libDaisy//src/hid/usb.h ****     UsbHandle() {}
  41:../../libDaisy//src/hid/usb.h **** 
  42:../../libDaisy//src/hid/usb.h ****     ~UsbHandle() {}
  94              		.loc 5 42 5 is_stmt 1 view .LVU7
  95              		.loc 5 42 5 is_stmt 0 view .LVU8
  96              	.LBE592:
  97              	.LBB593:
  98              	.LBI593:
  99              		.file 6 "../../libDaisy//src/per/adc.h"
   1:../../libDaisy//src/per/adc.h **** #pragma once
   2:../../libDaisy//src/per/adc.h **** #ifndef DSY_ADC_H
   3:../../libDaisy//src/per/adc.h **** #define DSY_ADC_H /**< Macro */
   4:../../libDaisy//src/per/adc.h **** #include <stdint.h>
   5:../../libDaisy//src/per/adc.h **** #include <stdlib.h>
   6:../../libDaisy//src/per/adc.h **** #include "daisy_core.h"
   7:../../libDaisy//src/per/adc.h **** #include "per/gpio.h"
   8:../../libDaisy//src/per/adc.h **** 
   9:../../libDaisy//src/per/adc.h **** #define DSY_ADC_MAX_CHANNELS 16 /**< Maximum number of ADC channels */
  10:../../libDaisy//src/per/adc.h **** 
  11:../../libDaisy//src/per/adc.h **** namespace daisy
  12:../../libDaisy//src/per/adc.h **** {
  13:../../libDaisy//src/per/adc.h **** /** @addtogroup per_analog
  14:../../libDaisy//src/per/adc.h ****     @{
  15:../../libDaisy//src/per/adc.h **** */
  16:../../libDaisy//src/per/adc.h **** 
  17:../../libDaisy//src/per/adc.h **** /* While there may not be many configuration options here,
  18:../../libDaisy//src/per/adc.h **** using a struct like this allows us to add more configuration
  19:../../libDaisy//src/per/adc.h **** later without breaking existing functionality.
  20:../../libDaisy//src/per/adc.h **** */
  21:../../libDaisy//src/per/adc.h **** 
  22:../../libDaisy//src/per/adc.h **** /** @brief   Configuration Structure for an ADC Channel 
  23:../../libDaisy//src/per/adc.h ****  *  @details This can be used to configure a a single input, 
  24:../../libDaisy//src/per/adc.h ****  *           or a multiplexed input, allowing up to 8 inputs on 
  25:../../libDaisy//src/per/adc.h ****  *           one channel.
  26:../../libDaisy//src/per/adc.h ****  *  @note    Sharing data lines to multiple muxes _is_ possible, but
  27:../../libDaisy//src/per/adc.h ****  *           each channel sharing data lines must be set to the maximum
  28:../../libDaisy//src/per/adc.h ****  *           number of channels, even if some multiplexers have fewer
  29:../../libDaisy//src/per/adc.h ****  *           inputs connected.
  30:../../libDaisy//src/per/adc.h **** */
  31:../../libDaisy//src/per/adc.h **** struct AdcChannelConfig
  32:../../libDaisy//src/per/adc.h **** {
  33:../../libDaisy//src/per/adc.h ****     /** Which pin to use for multiplexing */
  34:../../libDaisy//src/per/adc.h ****     enum MuxPin
  35:../../libDaisy//src/per/adc.h ****     {
  36:../../libDaisy//src/per/adc.h ****         MUX_SEL_0,    /**< & */
  37:../../libDaisy//src/per/adc.h ****         MUX_SEL_1,    /**< & */
  38:../../libDaisy//src/per/adc.h ****         MUX_SEL_2,    /**< & */
  39:../../libDaisy//src/per/adc.h ****         MUX_SEL_LAST, /**< & */
  40:../../libDaisy//src/per/adc.h ****     };
ARM GAS  /var/folders/hl/qgbwny5j0fd895c2c41bk3tw0000gp/T//cckqgw4a.s 			page 7


  41:../../libDaisy//src/per/adc.h **** 
  42:../../libDaisy//src/per/adc.h ****     /** Initializes a single ADC pin as an ADC. 
  43:../../libDaisy//src/per/adc.h ****     \param pin Pin to init.
  44:../../libDaisy//src/per/adc.h ****      */
  45:../../libDaisy//src/per/adc.h ****     void InitSingle(dsy_gpio_pin pin);
  46:../../libDaisy//src/per/adc.h **** 
  47:../../libDaisy//src/per/adc.h ****     /** 
  48:../../libDaisy//src/per/adc.h ****     Initializes a single ADC pin as a Multiplexed ADC.
  49:../../libDaisy//src/per/adc.h ****     Requires a CD405X Multiplexer connected to the pin.
  50:../../libDaisy//src/per/adc.h ****     You only need to supply the mux pins that are required,
  51:../../libDaisy//src/per/adc.h ****     e.g. a 4052 mux would only require mux_0 and mux_1.
  52:../../libDaisy//src/per/adc.h ****     Internal Callbacks handle the pin addressing.
  53:../../libDaisy//src/per/adc.h ****     \param mux_channels must be 1-8
  54:../../libDaisy//src/per/adc.h ****     \param mux_0 First mux pin
  55:../../libDaisy//src/per/adc.h ****     \param mux_1 Second mux pin
  56:../../libDaisy//src/per/adc.h ****     \param mux_2 Third mux pin
  57:../../libDaisy//src/per/adc.h ****     \param adc_pin &
  58:../../libDaisy//src/per/adc.h ****     */
  59:../../libDaisy//src/per/adc.h ****     void InitMux(dsy_gpio_pin adc_pin,
  60:../../libDaisy//src/per/adc.h ****                  size_t       mux_channels,
  61:../../libDaisy//src/per/adc.h ****                  dsy_gpio_pin mux_0,
  62:../../libDaisy//src/per/adc.h ****                  dsy_gpio_pin mux_1 = {DSY_GPIOX, 0},
  63:../../libDaisy//src/per/adc.h ****                  dsy_gpio_pin mux_2 = {DSY_GPIOX, 0});
  64:../../libDaisy//src/per/adc.h **** 
  65:../../libDaisy//src/per/adc.h ****     dsy_gpio pin_;                   /**< & */
  66:../../libDaisy//src/per/adc.h ****     dsy_gpio mux_pin_[MUX_SEL_LAST]; /**< & */
  67:../../libDaisy//src/per/adc.h ****     uint8_t  mux_channels_;          /**< & */
  68:../../libDaisy//src/per/adc.h **** };
  69:../../libDaisy//src/per/adc.h **** 
  70:../../libDaisy//src/per/adc.h **** /**
  71:../../libDaisy//src/per/adc.h ****    @brief Handler for analog to digital conversion
  72:../../libDaisy//src/per/adc.h **** */
  73:../../libDaisy//src/per/adc.h **** class AdcHandle
  74:../../libDaisy//src/per/adc.h **** {
  75:../../libDaisy//src/per/adc.h ****   public:
  76:../../libDaisy//src/per/adc.h ****     /** Supported oversampling amounts */
  77:../../libDaisy//src/per/adc.h ****     enum OverSampling
  78:../../libDaisy//src/per/adc.h ****     {
  79:../../libDaisy//src/per/adc.h ****         OVS_NONE, /**< & */
  80:../../libDaisy//src/per/adc.h ****         OVS_4,    /**< & */
  81:../../libDaisy//src/per/adc.h ****         OVS_8,    /**< & */
  82:../../libDaisy//src/per/adc.h ****         OVS_16,   /**< & */
  83:../../libDaisy//src/per/adc.h ****         OVS_32,   /**< & */
  84:../../libDaisy//src/per/adc.h ****         OVS_64,   /**< & */
  85:../../libDaisy//src/per/adc.h ****         OVS_128,  /**< & */
  86:../../libDaisy//src/per/adc.h ****         OVS_256,  /**< & */
  87:../../libDaisy//src/per/adc.h ****         OVS_512,  /**< & */
  88:../../libDaisy//src/per/adc.h ****         OVS_1024, /**< & */
  89:../../libDaisy//src/per/adc.h ****         OVS_LAST, /**< & */
  90:../../libDaisy//src/per/adc.h ****     };
  91:../../libDaisy//src/per/adc.h **** 
  92:../../libDaisy//src/per/adc.h ****     AdcHandle() {}
  93:../../libDaisy//src/per/adc.h ****     ~AdcHandle() {}
 100              		.loc 6 93 5 is_stmt 1 view .LVU9
 101              		.loc 6 93 5 is_stmt 0 view .LVU10
 102              	.LBE593:
 103              	.LBB594:
ARM GAS  /var/folders/hl/qgbwny5j0fd895c2c41bk3tw0000gp/T//cckqgw4a.s 			page 8


 104              	.LBI594:
 105              		.file 7 "../../libDaisy//src/hid/audio.h"
   1:../../libDaisy//src/hid/audio.h **** #ifndef DSY_AUDIO_H
   2:../../libDaisy//src/hid/audio.h **** #define DSY_AUDIO_H /**< & */
   3:../../libDaisy//src/hid/audio.h **** 
   4:../../libDaisy//src/hid/audio.h **** #include "per/sai.h"
   5:../../libDaisy//src/hid/audio.h **** 
   6:../../libDaisy//src/hid/audio.h **** namespace daisy
   7:../../libDaisy//src/hid/audio.h **** {
   8:../../libDaisy//src/hid/audio.h **** /** @brief Audio Engine Handle
   9:../../libDaisy//src/hid/audio.h ****  *  @ingroup audio 
  10:../../libDaisy//src/hid/audio.h ****  *  @details This class allows for higher level access to an audio engine.
  11:../../libDaisy//src/hid/audio.h ****  *           If you're using a SOM like the DaisySeed or DaisyPatchSM (or any 
  12:../../libDaisy//src/hid/audio.h ****  *            board that includes one of those objects) then the intialization
  13:../../libDaisy//src/hid/audio.h ****  *            is already taken  care of.
  14:../../libDaisy//src/hid/audio.h ****  *           If you're setting up your own custom hardware, or need to make changes
  15:../../libDaisy//src/hid/audio.h ****  *           you will have to take the following steps:
  16:../../libDaisy//src/hid/audio.h ****  *             1. Create and Initialize an SaiHandle or two depending on your requirements
  17:../../libDaisy//src/hid/audio.h ****  *             2. Initialize the Audio Handle with the desired settings and the Initialized SaiHand
  18:../../libDaisy//src/hid/audio.h ****  *             3. If the connected codec requires special configuration or initialization, do so
  19:../../libDaisy//src/hid/audio.h ****  *             4. Write a callback method using either the AudioCallback or the InterleavingAudioCa
  20:../../libDaisy//src/hid/audio.h ****  *             5. Start the Audio using one of the StartAudio function
  21:../../libDaisy//src/hid/audio.h ****  */
  22:../../libDaisy//src/hid/audio.h **** class AudioHandle
  23:../../libDaisy//src/hid/audio.h **** {
  24:../../libDaisy//src/hid/audio.h ****   public:
  25:../../libDaisy//src/hid/audio.h ****     /** Manually configurable details about the Audio Engine */
  26:../../libDaisy//src/hid/audio.h ****     /** TODO: Figure out how to get samplerate in here. */
  27:../../libDaisy//src/hid/audio.h ****     struct Config
  28:../../libDaisy//src/hid/audio.h ****     {
  29:../../libDaisy//src/hid/audio.h ****         /** number of samples to process per callback */
  30:../../libDaisy//src/hid/audio.h ****         size_t blocksize;
  31:../../libDaisy//src/hid/audio.h **** 
  32:../../libDaisy//src/hid/audio.h ****         /**< Sample rate of audio */
  33:../../libDaisy//src/hid/audio.h ****         SaiHandle::Config::SampleRate samplerate;
  34:../../libDaisy//src/hid/audio.h **** 
  35:../../libDaisy//src/hid/audio.h ****         /** factor for adjustment before and after callback for hardware that may have extra headro
  36:../../libDaisy//src/hid/audio.h ****         float postgain;
  37:../../libDaisy//src/hid/audio.h **** 
  38:../../libDaisy//src/hid/audio.h ****         /** factor for additional one-sided compensation to audio path for hardware that may
  39:../../libDaisy//src/hid/audio.h ****          *  have unequal input/output ranges
  40:../../libDaisy//src/hid/audio.h ****          */
  41:../../libDaisy//src/hid/audio.h ****         float output_compensation;
  42:../../libDaisy//src/hid/audio.h **** 
  43:../../libDaisy//src/hid/audio.h ****         /** Sets default values for config struct */
  44:../../libDaisy//src/hid/audio.h ****         Config()
  45:../../libDaisy//src/hid/audio.h ****         : blocksize(48),
  46:../../libDaisy//src/hid/audio.h ****           samplerate(SaiHandle::Config::SampleRate::SAI_48KHZ),
  47:../../libDaisy//src/hid/audio.h ****           postgain(1.f),
  48:../../libDaisy//src/hid/audio.h ****           output_compensation(1.f)
  49:../../libDaisy//src/hid/audio.h ****         {
  50:../../libDaisy//src/hid/audio.h ****         }
  51:../../libDaisy//src/hid/audio.h ****     };
  52:../../libDaisy//src/hid/audio.h **** 
  53:../../libDaisy//src/hid/audio.h ****     enum class Result
  54:../../libDaisy//src/hid/audio.h ****     {
  55:../../libDaisy//src/hid/audio.h ****         OK,
ARM GAS  /var/folders/hl/qgbwny5j0fd895c2c41bk3tw0000gp/T//cckqgw4a.s 			page 9


  56:../../libDaisy//src/hid/audio.h ****         ERR,
  57:../../libDaisy//src/hid/audio.h ****     };
  58:../../libDaisy//src/hid/audio.h **** 
  59:../../libDaisy//src/hid/audio.h ****     /** Non-Interleaving input buffer
  60:../../libDaisy//src/hid/audio.h ****      * Buffer arranged by float[chn][sample] 
  61:../../libDaisy//src/hid/audio.h ****      * const so that the user can't modify the input
  62:../../libDaisy//src/hid/audio.h ****      */
  63:../../libDaisy//src/hid/audio.h ****     typedef const float* const* InputBuffer;
  64:../../libDaisy//src/hid/audio.h **** 
  65:../../libDaisy//src/hid/audio.h ****     /** Non-Interleaving output buffer
  66:../../libDaisy//src/hid/audio.h ****      * Arranged by float[chn][sample] 
  67:../../libDaisy//src/hid/audio.h ****      */
  68:../../libDaisy//src/hid/audio.h ****     typedef float** OutputBuffer;
  69:../../libDaisy//src/hid/audio.h **** 
  70:../../libDaisy//src/hid/audio.h ****     /** Type for a Non-Interleaving audio callback 
  71:../../libDaisy//src/hid/audio.h ****      * Non-Interleaving audio callbacks in daisy will be of this type
  72:../../libDaisy//src/hid/audio.h ****      */
  73:../../libDaisy//src/hid/audio.h ****     typedef void (*AudioCallback)(InputBuffer  in,
  74:../../libDaisy//src/hid/audio.h ****                                   OutputBuffer out,
  75:../../libDaisy//src/hid/audio.h ****                                   size_t       size);
  76:../../libDaisy//src/hid/audio.h **** 
  77:../../libDaisy//src/hid/audio.h ****     /** Interleaving Input buffer
  78:../../libDaisy//src/hid/audio.h ****      ** audio is prepared as { L0, R0, L1, R1, . . . LN, RN }]
  79:../../libDaisy//src/hid/audio.h ****      ** this is const, as the user shouldn't modify it
  80:../../libDaisy//src/hid/audio.h ****     */
  81:../../libDaisy//src/hid/audio.h ****     typedef const float* InterleavingInputBuffer;
  82:../../libDaisy//src/hid/audio.h **** 
  83:../../libDaisy//src/hid/audio.h ****     /** Interleaving Output buffer 
  84:../../libDaisy//src/hid/audio.h ****      ** audio is prepared as { L0, R0, L1, R1, . . . LN, RN }
  85:../../libDaisy//src/hid/audio.h ****     */
  86:../../libDaisy//src/hid/audio.h ****     typedef float* InterleavingOutputBuffer;
  87:../../libDaisy//src/hid/audio.h **** 
  88:../../libDaisy//src/hid/audio.h ****     /** Interleaving Audio Callback 
  89:../../libDaisy//src/hid/audio.h ****      * Interleaving audio callbacks in daisy must be of this type
  90:../../libDaisy//src/hid/audio.h ****      */
  91:../../libDaisy//src/hid/audio.h ****     typedef void (*InterleavingAudioCallback)(InterleavingInputBuffer  in,
  92:../../libDaisy//src/hid/audio.h ****                                               InterleavingOutputBuffer out,
  93:../../libDaisy//src/hid/audio.h ****                                               size_t                   size);
  94:../../libDaisy//src/hid/audio.h **** 
  95:../../libDaisy//src/hid/audio.h ****     AudioHandle() : pimpl_(nullptr) {}
  96:../../libDaisy//src/hid/audio.h ****     ~AudioHandle() {}
 106              		.loc 7 96 5 is_stmt 1 view .LVU11
 107              		.loc 7 96 5 is_stmt 0 view .LVU12
 108              	.LBE594:
 109              		.loc 3 22 19 view .LVU13
 110 0000 7047     		bx	lr
 111              		.cfi_endproc
 112              	.LFE2529:
 114              		.weak	_ZN5daisy9DaisySeedD1Ev
 115              		.thumb_set _ZN5daisy9DaisySeedD1Ev,_ZN5daisy9DaisySeedD2Ev
 116 0002 00BF     		.section	.text._ZN7daisysp9ResonatorD2Ev,"axG",%progbits,_ZN7daisysp9ResonatorD5Ev,comdat
 117              		.align	1
 118              		.p2align 2,,3
 119              		.weak	_ZN7daisysp9ResonatorD2Ev
 120              		.syntax unified
 121              		.thumb
 122              		.thumb_func
ARM GAS  /var/folders/hl/qgbwny5j0fd895c2c41bk3tw0000gp/T//cckqgw4a.s 			page 10


 123              		.fpu fpv5-d16
 125              	_ZN7daisysp9ResonatorD2Ev:
 126              	.LVL3:
 127              	.LFB4614:
 128              		.file 8 "../../DaisySP//Source/PhysicalModeling/resonator.h"
   1:../../DaisySP//Source/PhysicalModeling/resonator.h **** #pragma once
   2:../../DaisySP//Source/PhysicalModeling/resonator.h **** #ifndef DSY_RESONATOR_H
   3:../../DaisySP//Source/PhysicalModeling/resonator.h **** #define DSY_RESONATOR_H
   4:../../DaisySP//Source/PhysicalModeling/resonator.h **** 
   5:../../DaisySP//Source/PhysicalModeling/resonator.h **** #include <stdint.h>
   6:../../DaisySP//Source/PhysicalModeling/resonator.h **** #include <stddef.h>
   7:../../DaisySP//Source/PhysicalModeling/resonator.h **** #include "Utility/dsp.h"
   8:../../DaisySP//Source/PhysicalModeling/resonator.h **** #ifdef __cplusplus
   9:../../DaisySP//Source/PhysicalModeling/resonator.h **** 
  10:../../DaisySP//Source/PhysicalModeling/resonator.h **** 
  11:../../DaisySP//Source/PhysicalModeling/resonator.h **** /** @file resonator.h */
  12:../../DaisySP//Source/PhysicalModeling/resonator.h **** 
  13:../../DaisySP//Source/PhysicalModeling/resonator.h **** namespace daisysp
  14:../../DaisySP//Source/PhysicalModeling/resonator.h **** {
  15:../../DaisySP//Source/PhysicalModeling/resonator.h **** // We render 4 modes simultaneously since there are enough registers to hold
  16:../../DaisySP//Source/PhysicalModeling/resonator.h **** // all state variables.
  17:../../DaisySP//Source/PhysicalModeling/resonator.h **** /**  
  18:../../DaisySP//Source/PhysicalModeling/resonator.h ****        @brief SVF for use in the Resonator Class \n 
  19:../../DaisySP//Source/PhysicalModeling/resonator.h ****        @author Ported by Ben Sergentanis 
  20:../../DaisySP//Source/PhysicalModeling/resonator.h ****        @date Jan 2021 
  21:../../DaisySP//Source/PhysicalModeling/resonator.h ****        Ported from pichenettes/eurorack/plaits/dsp/physical_modelling/resonator.h \n
  22:../../DaisySP//Source/PhysicalModeling/resonator.h ****        to an independent module. \n
  23:../../DaisySP//Source/PhysicalModeling/resonator.h ****        Original code written by Emilie Gillet in 2016. \n
  24:../../DaisySP//Source/PhysicalModeling/resonator.h **** */
  25:../../DaisySP//Source/PhysicalModeling/resonator.h **** template <int batch_size>
  26:../../DaisySP//Source/PhysicalModeling/resonator.h **** class ResonatorSvf
  27:../../DaisySP//Source/PhysicalModeling/resonator.h **** {
  28:../../DaisySP//Source/PhysicalModeling/resonator.h ****   public:
  29:../../DaisySP//Source/PhysicalModeling/resonator.h ****     enum FilterMode
  30:../../DaisySP//Source/PhysicalModeling/resonator.h ****     {
  31:../../DaisySP//Source/PhysicalModeling/resonator.h ****         LOW_PASS,
  32:../../DaisySP//Source/PhysicalModeling/resonator.h ****         BAND_PASS,
  33:../../DaisySP//Source/PhysicalModeling/resonator.h ****         BAND_PASS_NORMALIZED,
  34:../../DaisySP//Source/PhysicalModeling/resonator.h ****         HIGH_PASS
  35:../../DaisySP//Source/PhysicalModeling/resonator.h ****     };
  36:../../DaisySP//Source/PhysicalModeling/resonator.h **** 
  37:../../DaisySP//Source/PhysicalModeling/resonator.h ****     ResonatorSvf() {}
  38:../../DaisySP//Source/PhysicalModeling/resonator.h ****     ~ResonatorSvf() {}
  39:../../DaisySP//Source/PhysicalModeling/resonator.h **** 
  40:../../DaisySP//Source/PhysicalModeling/resonator.h ****     void Init()
  41:../../DaisySP//Source/PhysicalModeling/resonator.h ****     {
  42:../../DaisySP//Source/PhysicalModeling/resonator.h ****         for(int i = 0; i < batch_size; ++i)
  43:../../DaisySP//Source/PhysicalModeling/resonator.h ****         {
  44:../../DaisySP//Source/PhysicalModeling/resonator.h ****             state_1_[i] = state_2_[i] = 0.0f;
  45:../../DaisySP//Source/PhysicalModeling/resonator.h ****         }
  46:../../DaisySP//Source/PhysicalModeling/resonator.h ****     }
  47:../../DaisySP//Source/PhysicalModeling/resonator.h **** 
  48:../../DaisySP//Source/PhysicalModeling/resonator.h ****     template <FilterMode mode, bool add>
  49:../../DaisySP//Source/PhysicalModeling/resonator.h ****     void Process(const float* f,
  50:../../DaisySP//Source/PhysicalModeling/resonator.h ****                  const float* q,
  51:../../DaisySP//Source/PhysicalModeling/resonator.h ****                  const float* gain,
  52:../../DaisySP//Source/PhysicalModeling/resonator.h ****                  const float  in,
ARM GAS  /var/folders/hl/qgbwny5j0fd895c2c41bk3tw0000gp/T//cckqgw4a.s 			page 11


  53:../../DaisySP//Source/PhysicalModeling/resonator.h ****                  float*       out)
  54:../../DaisySP//Source/PhysicalModeling/resonator.h ****     {
  55:../../DaisySP//Source/PhysicalModeling/resonator.h ****         float g[batch_size];
  56:../../DaisySP//Source/PhysicalModeling/resonator.h ****         float r[batch_size];
  57:../../DaisySP//Source/PhysicalModeling/resonator.h ****         float r_plus_g[batch_size];
  58:../../DaisySP//Source/PhysicalModeling/resonator.h ****         float h[batch_size];
  59:../../DaisySP//Source/PhysicalModeling/resonator.h ****         float state_1[batch_size];
  60:../../DaisySP//Source/PhysicalModeling/resonator.h ****         float state_2[batch_size];
  61:../../DaisySP//Source/PhysicalModeling/resonator.h ****         float gains[batch_size];
  62:../../DaisySP//Source/PhysicalModeling/resonator.h ****         for(int i = 0; i < batch_size; ++i)
  63:../../DaisySP//Source/PhysicalModeling/resonator.h ****         {
  64:../../DaisySP//Source/PhysicalModeling/resonator.h ****             g[i]        = fasttan(f[i]);
  65:../../DaisySP//Source/PhysicalModeling/resonator.h ****             r[i]        = 1.0f / q[i];
  66:../../DaisySP//Source/PhysicalModeling/resonator.h ****             h[i]        = 1.0f / (1.0f + r[i] * g[i] + g[i] * g[i]);
  67:../../DaisySP//Source/PhysicalModeling/resonator.h ****             r_plus_g[i] = r[i] + g[i];
  68:../../DaisySP//Source/PhysicalModeling/resonator.h ****             state_1[i]  = state_1_[i];
  69:../../DaisySP//Source/PhysicalModeling/resonator.h ****             state_2[i]  = state_2_[i];
  70:../../DaisySP//Source/PhysicalModeling/resonator.h ****             gains[i]    = gain[i];
  71:../../DaisySP//Source/PhysicalModeling/resonator.h ****         }
  72:../../DaisySP//Source/PhysicalModeling/resonator.h **** 
  73:../../DaisySP//Source/PhysicalModeling/resonator.h ****         float s_in  = in;
  74:../../DaisySP//Source/PhysicalModeling/resonator.h ****         float s_out = 0.0f;
  75:../../DaisySP//Source/PhysicalModeling/resonator.h ****         for(int i = 0; i < batch_size; ++i)
  76:../../DaisySP//Source/PhysicalModeling/resonator.h ****         {
  77:../../DaisySP//Source/PhysicalModeling/resonator.h ****             const float hp
  78:../../DaisySP//Source/PhysicalModeling/resonator.h ****                 = (s_in - r_plus_g[i] * state_1[i] - state_2[i]) * h[i];
  79:../../DaisySP//Source/PhysicalModeling/resonator.h ****             const float bp = g[i] * hp + state_1[i];
  80:../../DaisySP//Source/PhysicalModeling/resonator.h ****             state_1[i]     = g[i] * hp + bp;
  81:../../DaisySP//Source/PhysicalModeling/resonator.h ****             const float lp = g[i] * bp + state_2[i];
  82:../../DaisySP//Source/PhysicalModeling/resonator.h ****             state_2[i]     = g[i] * bp + lp;
  83:../../DaisySP//Source/PhysicalModeling/resonator.h ****             s_out += gains[i] * ((mode == LOW_PASS) ? lp : bp);
  84:../../DaisySP//Source/PhysicalModeling/resonator.h ****         }
  85:../../DaisySP//Source/PhysicalModeling/resonator.h ****         if(add)
  86:../../DaisySP//Source/PhysicalModeling/resonator.h ****         {
  87:../../DaisySP//Source/PhysicalModeling/resonator.h ****             *out++ += s_out;
  88:../../DaisySP//Source/PhysicalModeling/resonator.h ****         }
  89:../../DaisySP//Source/PhysicalModeling/resonator.h ****         else
  90:../../DaisySP//Source/PhysicalModeling/resonator.h ****         {
  91:../../DaisySP//Source/PhysicalModeling/resonator.h ****             *out++ = s_out;
  92:../../DaisySP//Source/PhysicalModeling/resonator.h ****         }
  93:../../DaisySP//Source/PhysicalModeling/resonator.h **** 
  94:../../DaisySP//Source/PhysicalModeling/resonator.h ****         for(int i = 0; i < batch_size; ++i)
  95:../../DaisySP//Source/PhysicalModeling/resonator.h ****         {
  96:../../DaisySP//Source/PhysicalModeling/resonator.h ****             state_1_[i] = state_1[i];
  97:../../DaisySP//Source/PhysicalModeling/resonator.h ****             state_2_[i] = state_2[i];
  98:../../DaisySP//Source/PhysicalModeling/resonator.h ****         }
  99:../../DaisySP//Source/PhysicalModeling/resonator.h ****     }
 100:../../DaisySP//Source/PhysicalModeling/resonator.h **** 
 101:../../DaisySP//Source/PhysicalModeling/resonator.h ****   private:
 102:../../DaisySP//Source/PhysicalModeling/resonator.h ****     static constexpr float kPiPow3 = PI_F * PI_F * PI_F;
 103:../../DaisySP//Source/PhysicalModeling/resonator.h ****     static constexpr float kPiPow5 = kPiPow3 * PI_F * PI_F;
 104:../../DaisySP//Source/PhysicalModeling/resonator.h ****     static inline float    fasttan(float f)
 105:../../DaisySP//Source/PhysicalModeling/resonator.h ****     {
 106:../../DaisySP//Source/PhysicalModeling/resonator.h ****         const float a  = 3.260e-01 * kPiPow3;
 107:../../DaisySP//Source/PhysicalModeling/resonator.h ****         const float b  = 1.823e-01 * kPiPow5;
 108:../../DaisySP//Source/PhysicalModeling/resonator.h ****         float       f2 = f * f;
 109:../../DaisySP//Source/PhysicalModeling/resonator.h ****         return f * (PI_F + f2 * (a + b * f2));
ARM GAS  /var/folders/hl/qgbwny5j0fd895c2c41bk3tw0000gp/T//cckqgw4a.s 			page 12


 110:../../DaisySP//Source/PhysicalModeling/resonator.h ****     }
 111:../../DaisySP//Source/PhysicalModeling/resonator.h **** 
 112:../../DaisySP//Source/PhysicalModeling/resonator.h ****     float state_1_[batch_size];
 113:../../DaisySP//Source/PhysicalModeling/resonator.h ****     float state_2_[batch_size];
 114:../../DaisySP//Source/PhysicalModeling/resonator.h **** };
 115:../../DaisySP//Source/PhysicalModeling/resonator.h **** 
 116:../../DaisySP//Source/PhysicalModeling/resonator.h **** 
 117:../../DaisySP//Source/PhysicalModeling/resonator.h **** /**         
 118:../../DaisySP//Source/PhysicalModeling/resonator.h ****        @brief Resonant Body Simulation
 119:../../DaisySP//Source/PhysicalModeling/resonator.h ****        @author Ported by Ben Sergentanis 
 120:../../DaisySP//Source/PhysicalModeling/resonator.h ****        @date Jan 2021 
 121:../../DaisySP//Source/PhysicalModeling/resonator.h ****        Ported from pichenettes/eurorack/plaits/dsp/physical_modelling/resonator.h \n
 122:../../DaisySP//Source/PhysicalModeling/resonator.h ****        to an independent module. \n
 123:../../DaisySP//Source/PhysicalModeling/resonator.h ****        Original code written by Emilie Gillet in 2016. \n 
 124:../../DaisySP//Source/PhysicalModeling/resonator.h **** */
 125:../../DaisySP//Source/PhysicalModeling/resonator.h **** class Resonator
 126:../../DaisySP//Source/PhysicalModeling/resonator.h **** {
 127:../../DaisySP//Source/PhysicalModeling/resonator.h ****   public:
 128:../../DaisySP//Source/PhysicalModeling/resonator.h ****     Resonator() {}
 129:../../DaisySP//Source/PhysicalModeling/resonator.h ****     ~Resonator() {}
 129              		.loc 8 129 5 is_stmt 1 view -0
 130              		.cfi_startproc
 131              		@ args = 0, pretend = 0, frame = 0
 132              		@ frame_needed = 0, uses_anonymous_args = 0
 133              		@ link register save eliminated.
 134              		.loc 8 129 19 is_stmt 0 view .LVU15
 135 0000 7047     		bx	lr
 136              		.cfi_endproc
 137              	.LFE4614:
 139              		.weak	_ZN7daisysp9ResonatorD1Ev
 140              		.thumb_set _ZN7daisysp9ResonatorD1Ev,_ZN7daisysp9ResonatorD2Ev
 141 0002 00BF     		.section	.text._ZN7daisysp11PolyPluck_pILj24EED2Ev,"axG",%progbits,_ZN7daisysp11PolyPluck_pILj24EE
 142              		.align	1
 143              		.p2align 2,,3
 144              		.weak	_ZN7daisysp11PolyPluck_pILj24EED2Ev
 145              		.syntax unified
 146              		.thumb
 147              		.thumb_func
 148              		.fpu fpv5-d16
 150              	_ZN7daisysp11PolyPluck_pILj24EED2Ev:
 151              	.LVL4:
 152              	.LFB5405:
 153              		.file 9 "PolyPluck_p.h"
   1:PolyPluck_p.h **** #pragma once
   2:PolyPluck_p.h **** #ifndef POLYPLUCK_D_H
   3:PolyPluck_p.h **** #define POLYPLUCK_D_H
   4:PolyPluck_p.h **** 
   5:PolyPluck_p.h **** #include <stdlib.h>
   6:PolyPluck_p.h **** #include "Utility/dsp.h"
   7:PolyPluck_p.h **** #include "PhysicalModeling/pluck.h"
   8:PolyPluck_p.h **** #include "Utility/dcblock.h"
   9:PolyPluck_p.h **** 
  10:PolyPluck_p.h **** namespace daisysp
  11:PolyPluck_p.h **** {
  12:PolyPluck_p.h **** /** Simplified Pseudo-Polyphonic Pluck Voice
  13:PolyPluck_p.h **** 
  14:PolyPluck_p.h **** Template Based Pluck Voice, with configurable number of voices and simple pseudo-polyphony.
ARM GAS  /var/folders/hl/qgbwny5j0fd895c2c41bk3tw0000gp/T//cckqgw4a.s 			page 13


  15:PolyPluck_p.h **** 
  16:PolyPluck_p.h **** DC Blocking included to prevent biases from causing unwanted saturation distortion.
  17:PolyPluck_p.h **** 
  18:PolyPluck_p.h **** adding some extra functions for finer control of the available parameters
  19:PolyPluck_p.h **** 
  20:PolyPluck_p.h **** **Changes**
  21:PolyPluck_p.h **** added set damp
  22:PolyPluck_p.h **** 
  23:PolyPluck_p.h **** **Author**: shensley
  24:PolyPluck_p.h **** **Modified by**: daniel lawler
  25:PolyPluck_p.h **** 
  26:PolyPluck_p.h **** **Date Added**: March 2020
  27:PolyPluck_p.h **** */
  28:PolyPluck_p.h **** template <size_t num_voices>
  29:PolyPluck_p.h **** class PolyPluck_p
 154              		.loc 9 29 7 is_stmt 1 view -0
 155              		.cfi_startproc
 156              		@ args = 0, pretend = 0, frame = 0
 157              		@ frame_needed = 0, uses_anonymous_args = 0
 158              		@ link register save eliminated.
 159              	.LBB595:
 160              	.LBI595:
 161              		.file 10 "../../DaisySP//Source/Utility/dcblock.h"
   1:../../DaisySP//Source/Utility/dcblock.h **** 
   2:../../DaisySP//Source/Utility/dcblock.h **** #pragma once
   3:../../DaisySP//Source/Utility/dcblock.h **** #ifndef DSY_DCBLOCK_H
   4:../../DaisySP//Source/Utility/dcblock.h **** #define DSY_DCBLOCK_H
   5:../../DaisySP//Source/Utility/dcblock.h **** #ifdef __cplusplus
   6:../../DaisySP//Source/Utility/dcblock.h **** 
   7:../../DaisySP//Source/Utility/dcblock.h **** namespace daisysp
   8:../../DaisySP//Source/Utility/dcblock.h **** {
   9:../../DaisySP//Source/Utility/dcblock.h **** /** Removes DC component of a signal
  10:../../DaisySP//Source/Utility/dcblock.h ****     */
  11:../../DaisySP//Source/Utility/dcblock.h **** class DcBlock
  12:../../DaisySP//Source/Utility/dcblock.h **** {
  13:../../DaisySP//Source/Utility/dcblock.h ****   public:
  14:../../DaisySP//Source/Utility/dcblock.h ****     DcBlock(){};
  15:../../DaisySP//Source/Utility/dcblock.h ****     ~DcBlock(){};
 162              		.loc 10 15 5 view .LVU17
 163              		.loc 10 15 5 is_stmt 0 view .LVU18
 164              	.LBE595:
 165              		.loc 9 29 7 view .LVU19
 166 0000 7047     		bx	lr
 167              		.cfi_endproc
 168              	.LFE5405:
 170              		.weak	_ZN7daisysp11PolyPluck_pILj24EED1Ev
 171              		.thumb_set _ZN7daisysp11PolyPluck_pILj24EED1Ev,_ZN7daisysp11PolyPluck_pILj24EED2Ev
 172 0002 00BF     		.section	.text._ZN7daisysp14PolyOscillatorD2Ev,"axG",%progbits,_ZN7daisysp14PolyOscillatorD5Ev,com
 173              		.align	1
 174              		.p2align 2,,3
 175              		.weak	_ZN7daisysp14PolyOscillatorD2Ev
 176              		.syntax unified
 177              		.thumb
 178              		.thumb_func
 179              		.fpu fpv5-d16
 181              	_ZN7daisysp14PolyOscillatorD2Ev:
 182              	.LVL5:
ARM GAS  /var/folders/hl/qgbwny5j0fd895c2c41bk3tw0000gp/T//cckqgw4a.s 			page 14


 183              	.LFB5408:
 184              		.file 11 "PolyOsc.h"
   1:PolyOsc.h     **** #pragma once
   2:PolyOsc.h     **** #ifndef POLYOSC_H_
   3:PolyOsc.h     **** #define POLYOSC_H_
   4:PolyOsc.h     **** 
   5:PolyOsc.h     **** #include "Synthesis/Oscillator.h"
   6:PolyOsc.h     **** #include "daisy_seed.h"
   7:PolyOsc.h     **** 
   8:PolyOsc.h     **** using namespace daisy;
   9:PolyOsc.h     **** 
  10:PolyOsc.h     **** const int NUM_OSC = 12;
  11:PolyOsc.h     **** 
  12:PolyOsc.h     **** namespace daisysp {
  13:PolyOsc.h     **** class PolyOscillator
 185              		.loc 11 13 7 is_stmt 1 view -0
 186              		.cfi_startproc
 187              		@ args = 0, pretend = 0, frame = 0
 188              		@ frame_needed = 0, uses_anonymous_args = 0
 189              		@ link register save eliminated.
 190              	.LBB596:
 191              	.LBI596:
 192              		.file 12 "../../DaisySP//Source/Effects/reverbsc.h"
   1:../../DaisySP//Source/Effects/reverbsc.h **** #pragma once
   2:../../DaisySP//Source/Effects/reverbsc.h **** #ifndef DSYSP_REVERBSC_H
   3:../../DaisySP//Source/Effects/reverbsc.h **** #define DSYSP_REVERBSC_H
   4:../../DaisySP//Source/Effects/reverbsc.h **** 
   5:../../DaisySP//Source/Effects/reverbsc.h **** #define DSY_REVERBSC_MAX_SIZE 98936
   6:../../DaisySP//Source/Effects/reverbsc.h **** 
   7:../../DaisySP//Source/Effects/reverbsc.h **** namespace daisysp
   8:../../DaisySP//Source/Effects/reverbsc.h **** {
   9:../../DaisySP//Source/Effects/reverbsc.h **** /**Delay line for internal reverb use
  10:../../DaisySP//Source/Effects/reverbsc.h **** */
  11:../../DaisySP//Source/Effects/reverbsc.h **** typedef struct
  12:../../DaisySP//Source/Effects/reverbsc.h **** {
  13:../../DaisySP//Source/Effects/reverbsc.h ****     int    write_pos;         /**< write position */
  14:../../DaisySP//Source/Effects/reverbsc.h ****     int    buffer_size;       /**< buffer size */
  15:../../DaisySP//Source/Effects/reverbsc.h ****     int    read_pos;          /**< read position */
  16:../../DaisySP//Source/Effects/reverbsc.h ****     int    read_pos_frac;     /**< fractional component of read pos */
  17:../../DaisySP//Source/Effects/reverbsc.h ****     int    read_pos_frac_inc; /**< increment for fractional */
  18:../../DaisySP//Source/Effects/reverbsc.h ****     int    dummy;             /**<  dummy var */
  19:../../DaisySP//Source/Effects/reverbsc.h ****     int    seed_val;          /**< randseed */
  20:../../DaisySP//Source/Effects/reverbsc.h ****     int    rand_line_cnt;     /**< number of random lines */
  21:../../DaisySP//Source/Effects/reverbsc.h ****     float  filter_state;      /**< state of filter */
  22:../../DaisySP//Source/Effects/reverbsc.h ****     float *buf;               /**< buffer ptr */
  23:../../DaisySP//Source/Effects/reverbsc.h **** } ReverbScDl;
  24:../../DaisySP//Source/Effects/reverbsc.h **** 
  25:../../DaisySP//Source/Effects/reverbsc.h **** /** Stereo Reverb
  26:../../DaisySP//Source/Effects/reverbsc.h **** 
  27:../../DaisySP//Source/Effects/reverbsc.h **** Reverb SC:               Ported from csound/soundpipe
  28:../../DaisySP//Source/Effects/reverbsc.h **** 
  29:../../DaisySP//Source/Effects/reverbsc.h **** Original author(s):        Sean Costello, Istvan Varga
  30:../../DaisySP//Source/Effects/reverbsc.h **** 
  31:../../DaisySP//Source/Effects/reverbsc.h **** Year:                    1999, 2005
  32:../../DaisySP//Source/Effects/reverbsc.h **** 
  33:../../DaisySP//Source/Effects/reverbsc.h **** Ported to soundpipe by:  Paul Batchelor
  34:../../DaisySP//Source/Effects/reverbsc.h **** 
ARM GAS  /var/folders/hl/qgbwny5j0fd895c2c41bk3tw0000gp/T//cckqgw4a.s 			page 15


  35:../../DaisySP//Source/Effects/reverbsc.h **** Ported by:                Stephen Hensley
  36:../../DaisySP//Source/Effects/reverbsc.h **** */
  37:../../DaisySP//Source/Effects/reverbsc.h **** class ReverbSc
  38:../../DaisySP//Source/Effects/reverbsc.h **** {
  39:../../DaisySP//Source/Effects/reverbsc.h ****   public:
  40:../../DaisySP//Source/Effects/reverbsc.h ****     ReverbSc() {}
  41:../../DaisySP//Source/Effects/reverbsc.h ****     ~ReverbSc() {}
 193              		.loc 12 41 5 view .LVU21
 194              		.loc 12 41 5 is_stmt 0 view .LVU22
 195              	.LBE596:
 196              		.loc 11 13 7 view .LVU23
 197 0000 7047     		bx	lr
 198              		.cfi_endproc
 199              	.LFE5408:
 201              		.weak	_ZN7daisysp14PolyOscillatorD1Ev
 202              		.thumb_set _ZN7daisysp14PolyOscillatorD1Ev,_ZN7daisysp14PolyOscillatorD2Ev
 203 0002 00BF     		.section	.text._ZN5daisy6Mpr121INS_18Mpr121I2CTransportEED2Ev,"axG",%progbits,_ZN5daisy6Mpr121INS_
 204              		.align	1
 205              		.p2align 2,,3
 206              		.weak	_ZN5daisy6Mpr121INS_18Mpr121I2CTransportEED2Ev
 207              		.syntax unified
 208              		.thumb
 209              		.thumb_func
 210              		.fpu fpv5-d16
 212              	_ZN5daisy6Mpr121INS_18Mpr121I2CTransportEED2Ev:
 213              	.LVL6:
 214              	.LFB5411:
 215              		.file 13 "../../libDaisy//src/dev/mpr121.h"
   1:../../libDaisy//src/dev/mpr121.h **** #pragma once
   2:../../libDaisy//src/dev/mpr121.h **** #ifndef DSY_MPR121_H
   3:../../libDaisy//src/dev/mpr121.h **** #define DSY_MPR121_H
   4:../../libDaisy//src/dev/mpr121.h **** 
   5:../../libDaisy//src/dev/mpr121.h **** // The default I2C address
   6:../../libDaisy//src/dev/mpr121.h **** #define MPR121_I2CADDR_DEFAULT 0x5A        ///< default I2C address
   7:../../libDaisy//src/dev/mpr121.h **** #define MPR121_TOUCH_THRESHOLD_DEFAULT 12  ///< default touch threshold value
   8:../../libDaisy//src/dev/mpr121.h **** #define MPR121_RELEASE_THRESHOLD_DEFAULT 6 ///< default relese threshold value
   9:../../libDaisy//src/dev/mpr121.h **** 
  10:../../libDaisy//src/dev/mpr121.h **** namespace daisy
  11:../../libDaisy//src/dev/mpr121.h **** {
  12:../../libDaisy//src/dev/mpr121.h **** /** @addtogroup external 
  13:../../libDaisy//src/dev/mpr121.h ****     @{ 
  14:../../libDaisy//src/dev/mpr121.h **** */
  15:../../libDaisy//src/dev/mpr121.h **** 
  16:../../libDaisy//src/dev/mpr121.h **** /** I2C Transport for MPR121 */
  17:../../libDaisy//src/dev/mpr121.h **** class Mpr121I2CTransport
  18:../../libDaisy//src/dev/mpr121.h **** {
  19:../../libDaisy//src/dev/mpr121.h ****   public:
  20:../../libDaisy//src/dev/mpr121.h ****     Mpr121I2CTransport() {}
  21:../../libDaisy//src/dev/mpr121.h ****     ~Mpr121I2CTransport() {}
  22:../../libDaisy//src/dev/mpr121.h **** 
  23:../../libDaisy//src/dev/mpr121.h ****     struct Config
  24:../../libDaisy//src/dev/mpr121.h ****     {
  25:../../libDaisy//src/dev/mpr121.h ****         I2CHandle::Config::Peripheral periph;
  26:../../libDaisy//src/dev/mpr121.h ****         I2CHandle::Config::Speed      speed;
  27:../../libDaisy//src/dev/mpr121.h ****         Pin                           scl;
  28:../../libDaisy//src/dev/mpr121.h ****         Pin                           sda;
  29:../../libDaisy//src/dev/mpr121.h **** 
ARM GAS  /var/folders/hl/qgbwny5j0fd895c2c41bk3tw0000gp/T//cckqgw4a.s 			page 16


  30:../../libDaisy//src/dev/mpr121.h ****         I2CHandle::Config::Mode mode;
  31:../../libDaisy//src/dev/mpr121.h **** 
  32:../../libDaisy//src/dev/mpr121.h ****         uint8_t dev_addr;
  33:../../libDaisy//src/dev/mpr121.h **** 
  34:../../libDaisy//src/dev/mpr121.h ****         Config()
  35:../../libDaisy//src/dev/mpr121.h ****         {
  36:../../libDaisy//src/dev/mpr121.h ****             periph = I2CHandle::Config::Peripheral::I2C_1;
  37:../../libDaisy//src/dev/mpr121.h ****             speed  = I2CHandle::Config::Speed::I2C_400KHZ;
  38:../../libDaisy//src/dev/mpr121.h **** 
  39:../../libDaisy//src/dev/mpr121.h ****             scl = Pin(PORTB, 8);
  40:../../libDaisy//src/dev/mpr121.h ****             sda = Pin(PORTB, 9);
  41:../../libDaisy//src/dev/mpr121.h **** 
  42:../../libDaisy//src/dev/mpr121.h ****             dev_addr = MPR121_I2CADDR_DEFAULT;
  43:../../libDaisy//src/dev/mpr121.h ****         }
  44:../../libDaisy//src/dev/mpr121.h ****     };
  45:../../libDaisy//src/dev/mpr121.h **** 
  46:../../libDaisy//src/dev/mpr121.h ****     /** \return Did the transaction error? i.e. Return true if error, false if ok */
  47:../../libDaisy//src/dev/mpr121.h ****     inline bool Init(Config config)
  48:../../libDaisy//src/dev/mpr121.h ****     {
  49:../../libDaisy//src/dev/mpr121.h ****         config_ = config;
  50:../../libDaisy//src/dev/mpr121.h **** 
  51:../../libDaisy//src/dev/mpr121.h ****         I2CHandle::Config i2c_conf;
  52:../../libDaisy//src/dev/mpr121.h ****         i2c_conf.mode   = I2CHandle::Config::Mode::I2C_MASTER;
  53:../../libDaisy//src/dev/mpr121.h ****         i2c_conf.periph = config.periph;
  54:../../libDaisy//src/dev/mpr121.h ****         i2c_conf.speed  = config.speed;
  55:../../libDaisy//src/dev/mpr121.h **** 
  56:../../libDaisy//src/dev/mpr121.h ****         i2c_conf.pin_config.scl = config.scl;
  57:../../libDaisy//src/dev/mpr121.h ****         i2c_conf.pin_config.sda = config.sda;
  58:../../libDaisy//src/dev/mpr121.h **** 
  59:../../libDaisy//src/dev/mpr121.h ****         return I2CHandle::Result::OK != i2c_.Init(i2c_conf);
  60:../../libDaisy//src/dev/mpr121.h ****     }
  61:../../libDaisy//src/dev/mpr121.h **** 
  62:../../libDaisy//src/dev/mpr121.h ****     /** \return Did the transaction error? i.e. Return true if error, false if ok */
  63:../../libDaisy//src/dev/mpr121.h ****     bool Write(uint8_t *data, uint16_t size)
  64:../../libDaisy//src/dev/mpr121.h ****     {
  65:../../libDaisy//src/dev/mpr121.h ****         return I2CHandle::Result::OK
  66:../../libDaisy//src/dev/mpr121.h ****                != i2c_.TransmitBlocking(config_.dev_addr, data, size, 10);
  67:../../libDaisy//src/dev/mpr121.h ****     }
  68:../../libDaisy//src/dev/mpr121.h **** 
  69:../../libDaisy//src/dev/mpr121.h ****     /** \return Did the transaction error? i.e. Return true if error, false if ok */
  70:../../libDaisy//src/dev/mpr121.h ****     bool Read(uint8_t *data, uint16_t size)
  71:../../libDaisy//src/dev/mpr121.h ****     {
  72:../../libDaisy//src/dev/mpr121.h ****         return I2CHandle::Result::OK
  73:../../libDaisy//src/dev/mpr121.h ****                != i2c_.ReceiveBlocking(config_.dev_addr, data, size, 10);
  74:../../libDaisy//src/dev/mpr121.h ****     }
  75:../../libDaisy//src/dev/mpr121.h **** 
  76:../../libDaisy//src/dev/mpr121.h ****   private:
  77:../../libDaisy//src/dev/mpr121.h ****     I2CHandle i2c_;
  78:../../libDaisy//src/dev/mpr121.h ****     Config    config_;
  79:../../libDaisy//src/dev/mpr121.h **** };
  80:../../libDaisy//src/dev/mpr121.h **** 
  81:../../libDaisy//src/dev/mpr121.h **** 
  82:../../libDaisy//src/dev/mpr121.h **** /** @brief Device support for MPR121 12x Capacitive Touch Sensor
  83:../../libDaisy//src/dev/mpr121.h ****     @author beserge
  84:../../libDaisy//src/dev/mpr121.h ****     @date December 2021
  85:../../libDaisy//src/dev/mpr121.h **** */
  86:../../libDaisy//src/dev/mpr121.h **** template <typename Transport>
ARM GAS  /var/folders/hl/qgbwny5j0fd895c2c41bk3tw0000gp/T//cckqgw4a.s 			page 17


  87:../../libDaisy//src/dev/mpr121.h **** class Mpr121
  88:../../libDaisy//src/dev/mpr121.h **** {
  89:../../libDaisy//src/dev/mpr121.h ****   public:
  90:../../libDaisy//src/dev/mpr121.h ****     Mpr121() {}
  91:../../libDaisy//src/dev/mpr121.h ****     ~Mpr121() {}
 216              		.loc 13 91 5 is_stmt 1 view -0
 217              		.cfi_startproc
 218              		@ args = 0, pretend = 0, frame = 0
 219              		@ frame_needed = 0, uses_anonymous_args = 0
 220              		@ link register save eliminated.
 221              	.LBB597:
 222              	.LBI597:
  21:../../libDaisy//src/dev/mpr121.h **** 
 223              		.loc 13 21 5 view .LVU25
  21:../../libDaisy//src/dev/mpr121.h **** 
 224              		.loc 13 21 5 is_stmt 0 view .LVU26
 225              	.LBE597:
 226              		.loc 13 91 16 view .LVU27
 227 0000 7047     		bx	lr
 228              		.cfi_endproc
 229              	.LFE5411:
 231              		.weak	_ZN5daisy6Mpr121INS_18Mpr121I2CTransportEED1Ev
 232              		.thumb_set _ZN5daisy6Mpr121INS_18Mpr121I2CTransportEED1Ev,_ZN5daisy6Mpr121INS_18Mpr121I2CTransport
 233 0002 00BF     		.section	.text._Z7Init121v,"ax",%progbits
 234              		.align	1
 235              		.p2align 2,,3
 236              		.global	_Z7Init121v
 237              		.syntax unified
 238              		.thumb
 239              		.thumb_func
 240              		.fpu fpv5-d16
 242              	_Z7Init121v:
 243              	.LFB4792:
 244              		.file 14 "touchEvent.h"
   1:touchEvent.h  **** #pragma once
   2:touchEvent.h  **** #ifndef TOUCHEVENT_H
   3:touchEvent.h  **** #define TOUCHEVENT_H 
   4:touchEvent.h  **** 
   5:touchEvent.h  **** #include "daisy.h"
   6:touchEvent.h  **** #include "daisy_seed.h"
   7:touchEvent.h  **** 
   8:touchEvent.h  **** extern daisy::DaisySeed hw;
   9:touchEvent.h  **** 
  10:touchEvent.h  **** using Mpr121a = daisy::Mpr121<daisy::Mpr121I2CTransport>;
  11:touchEvent.h  **** Mpr121a			touch1;
  12:touchEvent.h  **** 
  13:touchEvent.h  **** uint16_t lasttouched = 0;
  14:touchEvent.h  **** uint16_t currtouched = 0;
  15:touchEvent.h  **** int pad;
  16:touchEvent.h  **** 
  17:touchEvent.h  **** #ifndef _BV
  18:touchEvent.h  **** #define _BV(bit) (1 << (bit)) 
  19:touchEvent.h  **** #endif
  20:touchEvent.h  **** 
  21:touchEvent.h  **** void Init121(){
 245              		.loc 14 21 15 is_stmt 1 view -0
 246              		.cfi_startproc
ARM GAS  /var/folders/hl/qgbwny5j0fd895c2c41bk3tw0000gp/T//cckqgw4a.s 			page 18


 247              		@ args = 0, pretend = 0, frame = 40
 248              		@ frame_needed = 0, uses_anonymous_args = 0
  22:touchEvent.h  ****     // touch stuff
  23:touchEvent.h  **** 	Mpr121a::Config	touch_cfg;
 249              		.loc 14 23 2 view .LVU29
 250              	.LVL7:
 251              	.LBB1045:
 252              	.LBI1045:
  92:../../libDaisy//src/dev/mpr121.h **** 
  93:../../libDaisy//src/dev/mpr121.h ****     struct Config
  94:../../libDaisy//src/dev/mpr121.h ****     {
  95:../../libDaisy//src/dev/mpr121.h ****         typename Transport::Config transport_config;
  96:../../libDaisy//src/dev/mpr121.h ****         uint8_t                    touch_threshold;
  97:../../libDaisy//src/dev/mpr121.h ****         uint8_t                    release_threshold;
  98:../../libDaisy//src/dev/mpr121.h **** 
  99:../../libDaisy//src/dev/mpr121.h ****         Config()
 253              		.loc 13 99 9 view .LVU30
 254              	.LBB1046:
 255              	.LBI1046:
  34:../../libDaisy//src/dev/mpr121.h ****         {
 256              		.loc 13 34 9 view .LVU31
 257              	.LBB1047:
 258              	.LBI1047:
 259              		.file 15 "../../libDaisy//src/daisy_core.h"
   1:../../libDaisy//src/daisy_core.h **** #pragma once
   2:../../libDaisy//src/daisy_core.h **** #ifndef DSY_CORE_HW_H
   3:../../libDaisy//src/daisy_core.h **** #define DSY_CORE_HW_H /**< & */
   4:../../libDaisy//src/daisy_core.h **** #include <stdint.h>
   5:../../libDaisy//src/daisy_core.h **** #include <stdlib.h>
   6:../../libDaisy//src/daisy_core.h **** 
   7:../../libDaisy//src/daisy_core.h **** #if defined(_MSC_VER)
   8:../../libDaisy//src/daisy_core.h **** #define FORCE_INLINE __forceinline /**< & */
   9:../../libDaisy//src/daisy_core.h **** #elif defined(__clang__)
  10:../../libDaisy//src/daisy_core.h **** #define FORCE_INLINE inline __attribute__((always_inline)) /**< & */
  11:../../libDaisy//src/daisy_core.h **** #pragma clang diagnostic ignored "-Wduplicate-decl-specifier"
  12:../../libDaisy//src/daisy_core.h **** #elif defined(__GNUC__)
  13:../../libDaisy//src/daisy_core.h **** #define FORCE_INLINE inline __attribute__((always_inline)) /**< & */
  14:../../libDaisy//src/daisy_core.h **** #else
  15:../../libDaisy//src/daisy_core.h **** #error unknown compiler
  16:../../libDaisy//src/daisy_core.h **** #endif
  17:../../libDaisy//src/daisy_core.h **** 
  18:../../libDaisy//src/daisy_core.h **** /** @addtogroup utility
  19:../../libDaisy//src/daisy_core.h ****     @{
  20:../../libDaisy//src/daisy_core.h **** */
  21:../../libDaisy//src/daisy_core.h **** 
  22:../../libDaisy//src/daisy_core.h **** /** Macro for area of memory that is configured as cacheless
  23:../../libDaisy//src/daisy_core.h **** This should be used primarily for DMA buffers, and the like.
  24:../../libDaisy//src/daisy_core.h **** */
  25:../../libDaisy//src/daisy_core.h **** #define DMA_BUFFER_MEM_SECTION __attribute__((section(".sram1_bss")))
  26:../../libDaisy//src/daisy_core.h **** /** 
  27:../../libDaisy//src/daisy_core.h **** THE DTCM RAM section is also non-cached. However, is not suitable 
  28:../../libDaisy//src/daisy_core.h **** for DMA transfers. Performance is on par with internal SRAM w/ 
  29:../../libDaisy//src/daisy_core.h **** cache enabled.
  30:../../libDaisy//src/daisy_core.h **** */
  31:../../libDaisy//src/daisy_core.h **** #define DTCM_MEM_SECTION __attribute__((section(".dtcmram_bss")))
  32:../../libDaisy//src/daisy_core.h **** 
  33:../../libDaisy//src/daisy_core.h **** #define FBIPMAX 0.999985f             /**< close to 1.0f-LSB at 16 bit */
ARM GAS  /var/folders/hl/qgbwny5j0fd895c2c41bk3tw0000gp/T//cckqgw4a.s 			page 19


  34:../../libDaisy//src/daisy_core.h **** #define FBIPMIN (-FBIPMAX)            /**< - (1 - LSB) */
  35:../../libDaisy//src/daisy_core.h **** #define U82F_SCALE 0.0078740f         /**< 1 / 127 */
  36:../../libDaisy//src/daisy_core.h **** #define F2U8_SCALE 127.0f             /**< 128 - 1 */
  37:../../libDaisy//src/daisy_core.h **** #define S82F_SCALE 0.0078125f         /**< 1 / (2**7) */
  38:../../libDaisy//src/daisy_core.h **** #define F2S8_SCALE 127.0f             /**< (2 ** 7) - 1 */
  39:../../libDaisy//src/daisy_core.h **** #define S162F_SCALE 3.0517578125e-05f /**< 1 / (2** 15) */
  40:../../libDaisy//src/daisy_core.h **** #define F2S16_SCALE 32767.0f          /**< (2 ** 15) - 1 */
  41:../../libDaisy//src/daisy_core.h **** #define F2S24_SCALE 8388608.0f        /**< 2 ** 23 */
  42:../../libDaisy//src/daisy_core.h **** #define S242F_SCALE 1.192092896e-07f  /**< 1 / (2 ** 23) */
  43:../../libDaisy//src/daisy_core.h **** #define S24SIGN 0x800000              /**< 2 ** 23 */
  44:../../libDaisy//src/daisy_core.h **** #define S322F_SCALE 4.6566129e-10f    /**< 1 / (2** 31) */
  45:../../libDaisy//src/daisy_core.h **** #define F2S32_SCALE 2147483647.f      /**< (2 ** 31) - 1 */
  46:../../libDaisy//src/daisy_core.h **** 
  47:../../libDaisy//src/daisy_core.h **** 
  48:../../libDaisy//src/daisy_core.h **** /** shorthand macro for simplifying the reading of the left 
  49:../../libDaisy//src/daisy_core.h ****  *  channel of a non-interleaved output buffer named out */
  50:../../libDaisy//src/daisy_core.h **** #define OUT_L out[0]
  51:../../libDaisy//src/daisy_core.h **** 
  52:../../libDaisy//src/daisy_core.h **** /** shorthand macro for simplifying the reading of the right 
  53:../../libDaisy//src/daisy_core.h ****  *  channel of a non-interleaved output buffer named out */
  54:../../libDaisy//src/daisy_core.h **** #define OUT_R out[1]
  55:../../libDaisy//src/daisy_core.h **** 
  56:../../libDaisy//src/daisy_core.h **** /** shorthand macro for simplifying the reading of the left 
  57:../../libDaisy//src/daisy_core.h ****  *  channel of a non-interleaved input buffer named in */
  58:../../libDaisy//src/daisy_core.h **** #define IN_L in[0]
  59:../../libDaisy//src/daisy_core.h **** 
  60:../../libDaisy//src/daisy_core.h **** /** shorthand macro for simplifying the reading of the right 
  61:../../libDaisy//src/daisy_core.h ****  *  channel of a non-interleaved input buffer named in */
  62:../../libDaisy//src/daisy_core.h **** #define IN_R in[1]
  63:../../libDaisy//src/daisy_core.h **** 
  64:../../libDaisy//src/daisy_core.h **** /** 
  65:../../libDaisy//src/daisy_core.h ****     Computes cube.
  66:../../libDaisy//src/daisy_core.h ****     \param x Number to be cubed
  67:../../libDaisy//src/daisy_core.h ****     \return x ^ 3
  68:../../libDaisy//src/daisy_core.h **** */
  69:../../libDaisy//src/daisy_core.h **** FORCE_INLINE float cube(float x)
  70:../../libDaisy//src/daisy_core.h **** {
  71:../../libDaisy//src/daisy_core.h ****     return (x * x) * x;
  72:../../libDaisy//src/daisy_core.h **** }
  73:../../libDaisy//src/daisy_core.h **** 
  74:../../libDaisy//src/daisy_core.h **** /** 
  75:../../libDaisy//src/daisy_core.h ****     Converts unsigned 8-bit to float
  76:../../libDaisy//src/daisy_core.h ****     \param x Number to be scaled.
  77:../../libDaisy//src/daisy_core.h ****     \return Scaled number.
  78:../../libDaisy//src/daisy_core.h **** */
  79:../../libDaisy//src/daisy_core.h **** FORCE_INLINE float u82f(uint8_t x)
  80:../../libDaisy//src/daisy_core.h **** {
  81:../../libDaisy//src/daisy_core.h ****     return ((float)x - 127.f) * U82F_SCALE;
  82:../../libDaisy//src/daisy_core.h **** }
  83:../../libDaisy//src/daisy_core.h **** 
  84:../../libDaisy//src/daisy_core.h **** /**
  85:../../libDaisy//src/daisy_core.h ****     Converts float to unsigned 8-bit
  86:../../libDaisy//src/daisy_core.h **** */
  87:../../libDaisy//src/daisy_core.h **** FORCE_INLINE uint8_t f2u8(float x)
  88:../../libDaisy//src/daisy_core.h **** {
  89:../../libDaisy//src/daisy_core.h ****     x = x <= FBIPMIN ? FBIPMIN : x;
  90:../../libDaisy//src/daisy_core.h ****     x = x >= FBIPMAX ? FBIPMAX : x;
ARM GAS  /var/folders/hl/qgbwny5j0fd895c2c41bk3tw0000gp/T//cckqgw4a.s 			page 20


  91:../../libDaisy//src/daisy_core.h ****     return (uint8_t)((x * F2U8_SCALE) + F2U8_SCALE);
  92:../../libDaisy//src/daisy_core.h **** }
  93:../../libDaisy//src/daisy_core.h **** 
  94:../../libDaisy//src/daisy_core.h **** 
  95:../../libDaisy//src/daisy_core.h **** /** 
  96:../../libDaisy//src/daisy_core.h ****     Converts Signed 8-bit to float
  97:../../libDaisy//src/daisy_core.h ****     \param x Number to be scaled.
  98:../../libDaisy//src/daisy_core.h ****     \return Scaled number.
  99:../../libDaisy//src/daisy_core.h **** */
 100:../../libDaisy//src/daisy_core.h **** FORCE_INLINE float s82f(int8_t x)
 101:../../libDaisy//src/daisy_core.h **** {
 102:../../libDaisy//src/daisy_core.h ****     return (float)x * S82F_SCALE;
 103:../../libDaisy//src/daisy_core.h **** }
 104:../../libDaisy//src/daisy_core.h **** 
 105:../../libDaisy//src/daisy_core.h **** /**
 106:../../libDaisy//src/daisy_core.h ****     Converts float to Signed 8-bit
 107:../../libDaisy//src/daisy_core.h **** */
 108:../../libDaisy//src/daisy_core.h **** FORCE_INLINE int8_t f2s8(float x)
 109:../../libDaisy//src/daisy_core.h **** {
 110:../../libDaisy//src/daisy_core.h ****     x = x <= FBIPMIN ? FBIPMIN : x;
 111:../../libDaisy//src/daisy_core.h ****     x = x >= FBIPMAX ? FBIPMAX : x;
 112:../../libDaisy//src/daisy_core.h ****     return (int32_t)(x * F2S8_SCALE);
 113:../../libDaisy//src/daisy_core.h **** }
 114:../../libDaisy//src/daisy_core.h **** 
 115:../../libDaisy//src/daisy_core.h **** /** 
 116:../../libDaisy//src/daisy_core.h ****     Converts Signed 16-bit to float
 117:../../libDaisy//src/daisy_core.h ****     \param x Number to be scaled.
 118:../../libDaisy//src/daisy_core.h ****     \return Scaled number.
 119:../../libDaisy//src/daisy_core.h **** */
 120:../../libDaisy//src/daisy_core.h **** FORCE_INLINE float s162f(int16_t x)
 121:../../libDaisy//src/daisy_core.h **** {
 122:../../libDaisy//src/daisy_core.h ****     return (float)x * S162F_SCALE;
 123:../../libDaisy//src/daisy_core.h **** }
 124:../../libDaisy//src/daisy_core.h **** 
 125:../../libDaisy//src/daisy_core.h **** /**
 126:../../libDaisy//src/daisy_core.h ****     Converts float to Signed 16-bit
 127:../../libDaisy//src/daisy_core.h **** */
 128:../../libDaisy//src/daisy_core.h **** FORCE_INLINE int16_t f2s16(float x)
 129:../../libDaisy//src/daisy_core.h **** {
 130:../../libDaisy//src/daisy_core.h ****     x = x <= FBIPMIN ? FBIPMIN : x;
 131:../../libDaisy//src/daisy_core.h ****     x = x >= FBIPMAX ? FBIPMAX : x;
 132:../../libDaisy//src/daisy_core.h ****     return (int32_t)(x * F2S16_SCALE);
 133:../../libDaisy//src/daisy_core.h **** }
 134:../../libDaisy//src/daisy_core.h **** 
 135:../../libDaisy//src/daisy_core.h **** /**
 136:../../libDaisy//src/daisy_core.h ****     Converts Signed 24-bit to float
 137:../../libDaisy//src/daisy_core.h ****  */
 138:../../libDaisy//src/daisy_core.h **** FORCE_INLINE float s242f(int32_t x)
 139:../../libDaisy//src/daisy_core.h **** {
 140:../../libDaisy//src/daisy_core.h ****     x = (x ^ S24SIGN) - S24SIGN; //sign extend aka ((x<<8)>>8)
 141:../../libDaisy//src/daisy_core.h ****     return (float)x * S242F_SCALE;
 142:../../libDaisy//src/daisy_core.h **** }
 143:../../libDaisy//src/daisy_core.h **** /**
 144:../../libDaisy//src/daisy_core.h ****     Converts float to Signed 24-bit
 145:../../libDaisy//src/daisy_core.h ****  */
 146:../../libDaisy//src/daisy_core.h **** FORCE_INLINE int32_t f2s24(float x)
 147:../../libDaisy//src/daisy_core.h **** {
ARM GAS  /var/folders/hl/qgbwny5j0fd895c2c41bk3tw0000gp/T//cckqgw4a.s 			page 21


 148:../../libDaisy//src/daisy_core.h ****     x = x <= FBIPMIN ? FBIPMIN : x;
 149:../../libDaisy//src/daisy_core.h ****     x = x >= FBIPMAX ? FBIPMAX : x;
 150:../../libDaisy//src/daisy_core.h ****     return (int32_t)(x * F2S24_SCALE);
 151:../../libDaisy//src/daisy_core.h **** }
 152:../../libDaisy//src/daisy_core.h **** 
 153:../../libDaisy//src/daisy_core.h **** /**
 154:../../libDaisy//src/daisy_core.h ****     Converts Signed 32-bit to float
 155:../../libDaisy//src/daisy_core.h ****  */
 156:../../libDaisy//src/daisy_core.h **** FORCE_INLINE float s322f(int32_t x)
 157:../../libDaisy//src/daisy_core.h **** {
 158:../../libDaisy//src/daisy_core.h ****     return (float)x * S322F_SCALE;
 159:../../libDaisy//src/daisy_core.h **** }
 160:../../libDaisy//src/daisy_core.h **** /**
 161:../../libDaisy//src/daisy_core.h ****     Converts float to Signed 24-bit
 162:../../libDaisy//src/daisy_core.h ****  */
 163:../../libDaisy//src/daisy_core.h **** FORCE_INLINE int32_t f2s32(float x)
 164:../../libDaisy//src/daisy_core.h **** {
 165:../../libDaisy//src/daisy_core.h ****     x = x <= FBIPMIN ? FBIPMIN : x;
 166:../../libDaisy//src/daisy_core.h ****     x = x >= FBIPMAX ? FBIPMAX : x;
 167:../../libDaisy//src/daisy_core.h ****     return (int32_t)(x * F2S32_SCALE);
 168:../../libDaisy//src/daisy_core.h **** }
 169:../../libDaisy//src/daisy_core.h **** 
 170:../../libDaisy//src/daisy_core.h **** 
 171:../../libDaisy//src/daisy_core.h **** /** Enums and a simple struct for defining a hardware pin on the MCU
 172:../../libDaisy//src/daisy_core.h ****  *  These correlate with the stm32 datasheet, and are used to configure
 173:../../libDaisy//src/daisy_core.h ****  *  the hardware.
 174:../../libDaisy//src/daisy_core.h ****  * 
 175:../../libDaisy//src/daisy_core.h ****  *  This along with the dsy_gpio_pin class should no longer be used.
 176:../../libDaisy//src/daisy_core.h ****  *  They are available for backwards compatability. 
 177:../../libDaisy//src/daisy_core.h ****  * 
 178:../../libDaisy//src/daisy_core.h ****  *  Please use GPIOPort enum and the Pin struct instead.
 179:../../libDaisy//src/daisy_core.h ****  */
 180:../../libDaisy//src/daisy_core.h **** typedef enum
 181:../../libDaisy//src/daisy_core.h **** {
 182:../../libDaisy//src/daisy_core.h ****     DSY_GPIOA, /**< & */
 183:../../libDaisy//src/daisy_core.h ****     DSY_GPIOB, /**< & */
 184:../../libDaisy//src/daisy_core.h ****     DSY_GPIOC, /**< & */
 185:../../libDaisy//src/daisy_core.h ****     DSY_GPIOD, /**< & */
 186:../../libDaisy//src/daisy_core.h ****     DSY_GPIOE, /**< & */
 187:../../libDaisy//src/daisy_core.h ****     DSY_GPIOF, /**< & */
 188:../../libDaisy//src/daisy_core.h ****     DSY_GPIOG, /**< & */
 189:../../libDaisy//src/daisy_core.h ****     DSY_GPIOH, /**< & */
 190:../../libDaisy//src/daisy_core.h ****     DSY_GPIOI, /**< & */
 191:../../libDaisy//src/daisy_core.h ****     DSY_GPIOJ, /**< & */
 192:../../libDaisy//src/daisy_core.h ****     DSY_GPIOK, /**< & */
 193:../../libDaisy//src/daisy_core.h ****     DSY_GPIOX, /** This is a non-existant port for unsupported bits of hardware. */
 194:../../libDaisy//src/daisy_core.h ****     DSY_GPIO_LAST, /** Final enum member */
 195:../../libDaisy//src/daisy_core.h **** } dsy_gpio_port;
 196:../../libDaisy//src/daisy_core.h **** 
 197:../../libDaisy//src/daisy_core.h **** /** Hardware define pins 
 198:../../libDaisy//src/daisy_core.h ****  *  
 199:../../libDaisy//src/daisy_core.h ****  *  The dsy_gpio_pin struct should no longer be used, and is only available for
 200:../../libDaisy//src/daisy_core.h ****  *  backwards compatability.
 201:../../libDaisy//src/daisy_core.h ****  * 
 202:../../libDaisy//src/daisy_core.h ****  *  Please use Pin struct instead.
 203:../../libDaisy//src/daisy_core.h ****  */
 204:../../libDaisy//src/daisy_core.h **** typedef struct
ARM GAS  /var/folders/hl/qgbwny5j0fd895c2c41bk3tw0000gp/T//cckqgw4a.s 			page 22


 205:../../libDaisy//src/daisy_core.h **** {
 206:../../libDaisy//src/daisy_core.h ****     dsy_gpio_port port; /**< & */
 207:../../libDaisy//src/daisy_core.h ****     uint8_t       pin;  /**< number 0-15 */
 208:../../libDaisy//src/daisy_core.h **** } dsy_gpio_pin;
 209:../../libDaisy//src/daisy_core.h **** 
 210:../../libDaisy//src/daisy_core.h **** /** Helper for creating pins from port/pin combos easily
 211:../../libDaisy//src/daisy_core.h ****  * 
 212:../../libDaisy//src/daisy_core.h ****  *  The dsy_gpio_pin struct should no longer be used, and is only available for
 213:../../libDaisy//src/daisy_core.h ****  *  backwards compatability.
 214:../../libDaisy//src/daisy_core.h ****  * 
 215:../../libDaisy//src/daisy_core.h ****  *  Please use Pin struct instead.
 216:../../libDaisy//src/daisy_core.h **** */
 217:../../libDaisy//src/daisy_core.h **** FORCE_INLINE dsy_gpio_pin dsy_pin(dsy_gpio_port port, uint8_t pin)
 218:../../libDaisy//src/daisy_core.h **** {
 219:../../libDaisy//src/daisy_core.h ****     dsy_gpio_pin p;
 220:../../libDaisy//src/daisy_core.h ****     p.port = port;
 221:../../libDaisy//src/daisy_core.h ****     p.pin  = pin;
 222:../../libDaisy//src/daisy_core.h ****     return p;
 223:../../libDaisy//src/daisy_core.h **** }
 224:../../libDaisy//src/daisy_core.h **** 
 225:../../libDaisy//src/daisy_core.h **** /** Helper for testing sameness of two dsy_gpio_pins
 226:../../libDaisy//src/daisy_core.h ****  *  \return    1 if same, 0 if different
 227:../../libDaisy//src/daisy_core.h ****  * 
 228:../../libDaisy//src/daisy_core.h ****  *  The dsy_gpio_pin struct should no longer be used, and is only available for
 229:../../libDaisy//src/daisy_core.h ****  *  backwards compatability.
 230:../../libDaisy//src/daisy_core.h ****  * 
 231:../../libDaisy//src/daisy_core.h ****  *  Please use Pin struct instead.
 232:../../libDaisy//src/daisy_core.h ****  */
 233:../../libDaisy//src/daisy_core.h **** FORCE_INLINE uint8_t dsy_pin_cmp(dsy_gpio_pin *a, dsy_gpio_pin *b)
 234:../../libDaisy//src/daisy_core.h **** {
 235:../../libDaisy//src/daisy_core.h ****     return ((a->port == b->port) && (a->pin == b->pin));
 236:../../libDaisy//src/daisy_core.h **** }
 237:../../libDaisy//src/daisy_core.h **** 
 238:../../libDaisy//src/daisy_core.h **** #ifdef __cplusplus
 239:../../libDaisy//src/daisy_core.h **** 
 240:../../libDaisy//src/daisy_core.h **** namespace daisy
 241:../../libDaisy//src/daisy_core.h **** {
 242:../../libDaisy//src/daisy_core.h **** /** @brief GPIO Port names */
 243:../../libDaisy//src/daisy_core.h **** enum GPIOPort
 244:../../libDaisy//src/daisy_core.h **** {
 245:../../libDaisy//src/daisy_core.h ****     PORTA, /**< Port A */
 246:../../libDaisy//src/daisy_core.h ****     PORTB, /**< Port B */
 247:../../libDaisy//src/daisy_core.h ****     PORTC, /**< Port C */
 248:../../libDaisy//src/daisy_core.h ****     PORTD, /**< Port D */
 249:../../libDaisy//src/daisy_core.h ****     PORTE, /**< Port E */
 250:../../libDaisy//src/daisy_core.h ****     PORTF, /**< Port F */
 251:../../libDaisy//src/daisy_core.h ****     PORTG, /**< Port G */
 252:../../libDaisy//src/daisy_core.h ****     PORTH, /**< Port H */
 253:../../libDaisy//src/daisy_core.h ****     PORTI, /**< Port I */
 254:../../libDaisy//src/daisy_core.h ****     PORTJ, /**< Port J */
 255:../../libDaisy//src/daisy_core.h ****     PORTK, /**< Port K */
 256:../../libDaisy//src/daisy_core.h ****     PORTX, /**< Used as a dummy port to signal an invalid pin. */
 257:../../libDaisy//src/daisy_core.h **** };
 258:../../libDaisy//src/daisy_core.h **** 
 259:../../libDaisy//src/daisy_core.h **** /** @brief representation of hardware port/pin combination */
 260:../../libDaisy//src/daisy_core.h **** struct Pin
 261:../../libDaisy//src/daisy_core.h **** {
ARM GAS  /var/folders/hl/qgbwny5j0fd895c2c41bk3tw0000gp/T//cckqgw4a.s 			page 23


 262:../../libDaisy//src/daisy_core.h ****     GPIOPort port;
 263:../../libDaisy//src/daisy_core.h ****     uint8_t  pin;
 264:../../libDaisy//src/daisy_core.h **** 
 265:../../libDaisy//src/daisy_core.h ****     /** @brief Constructor creates a valid pin. 
 266:../../libDaisy//src/daisy_core.h ****      *  @param pt GPIOPort between PA, and PK corresponding to STM32 Port.
 267:../../libDaisy//src/daisy_core.h ****      *  @param pn pin number in range of 0-15
 268:../../libDaisy//src/daisy_core.h ****     */
 269:../../libDaisy//src/daisy_core.h ****     constexpr Pin(const GPIOPort pt, const uint8_t pn) : port(pt), pin(pn) {}
 270:../../libDaisy//src/daisy_core.h **** 
 271:../../libDaisy//src/daisy_core.h ****     /** @brief Basic Constructor creates an invalid Pin object */
 272:../../libDaisy//src/daisy_core.h ****     constexpr Pin() : port(PORTX), pin(255) {}
 260              		.loc 15 272 15 view .LVU32
 261              		.loc 15 272 15 is_stmt 0 view .LVU33
 262              	.LBE1047:
 263              	.LBB1048:
 264              	.LBI1048:
 265              		.loc 15 272 15 is_stmt 1 view .LVU34
 266              		.loc 15 272 15 is_stmt 0 view .LVU35
 267              	.LBE1048:
 268              	.LBE1046:
 269              	.LBE1045:
  36:../../libDaisy//src/dev/mpr121.h ****             speed  = I2CHandle::Config::Speed::I2C_400KHZ;
 270              		.loc 13 36 13 is_stmt 1 view .LVU36
  37:../../libDaisy//src/dev/mpr121.h **** 
 271              		.loc 13 37 13 view .LVU37
  39:../../libDaisy//src/dev/mpr121.h ****             sda = Pin(PORTB, 9);
 272              		.loc 13 39 13 view .LVU38
 273              	.LBB1053:
 274              	.LBB1051:
 275              	.LBB1049:
 276              	.LBI1049:
 269:../../libDaisy//src/daisy_core.h **** 
 277              		.loc 15 269 15 view .LVU39
 269:../../libDaisy//src/daisy_core.h **** 
 278              		.loc 15 269 15 is_stmt 0 view .LVU40
 279              	.LBE1049:
 280              	.LBE1051:
 281              	.LBE1053:
  40:../../libDaisy//src/dev/mpr121.h **** 
 282              		.loc 13 40 13 is_stmt 1 view .LVU41
 283              	.LBB1054:
 284              	.LBB1052:
 285              	.LBB1050:
 286              	.LBI1050:
 269:../../libDaisy//src/daisy_core.h **** 
 287              		.loc 15 269 15 view .LVU42
 269:../../libDaisy//src/daisy_core.h **** 
 288              		.loc 15 269 15 is_stmt 0 view .LVU43
 289              	.LBE1050:
 290              	.LBE1052:
 291              	.LBE1054:
  42:../../libDaisy//src/dev/mpr121.h ****         }
 292              		.loc 13 42 13 is_stmt 1 view .LVU44
  24:touchEvent.h  **** 	touch1.Init(touch_cfg);
 293              		.loc 14 24 2 view .LVU45
 294              	.LBB1055:
 295              	.LBI1055:
ARM GAS  /var/folders/hl/qgbwny5j0fd895c2c41bk3tw0000gp/T//cckqgw4a.s 			page 24


 100:../../libDaisy//src/dev/mpr121.h ****         {
 101:../../libDaisy//src/dev/mpr121.h ****             touch_threshold   = MPR121_TOUCH_THRESHOLD_DEFAULT;
 102:../../libDaisy//src/dev/mpr121.h ****             release_threshold = MPR121_RELEASE_THRESHOLD_DEFAULT;
 103:../../libDaisy//src/dev/mpr121.h ****         }
 104:../../libDaisy//src/dev/mpr121.h ****     };
 105:../../libDaisy//src/dev/mpr121.h **** 
 106:../../libDaisy//src/dev/mpr121.h ****     enum Result
 107:../../libDaisy//src/dev/mpr121.h ****     {
 108:../../libDaisy//src/dev/mpr121.h ****         OK = 0,
 109:../../libDaisy//src/dev/mpr121.h ****         ERR
 110:../../libDaisy//src/dev/mpr121.h ****     };
 111:../../libDaisy//src/dev/mpr121.h **** 
 112:../../libDaisy//src/dev/mpr121.h ****     /** Initialize the MPR121 device
 113:../../libDaisy//src/dev/mpr121.h ****         \param config Configuration settings
 114:../../libDaisy//src/dev/mpr121.h ****     */
 115:../../libDaisy//src/dev/mpr121.h ****     Result Init(Config config)
 296              		.loc 13 115 12 view .LVU46
 297              	.LBE1055:
  21:touchEvent.h  ****     // touch stuff
 298              		.loc 14 21 15 is_stmt 0 view .LVU47
 299 0000 2DE9F04F 		push	{r4, r5, r6, r7, r8, r9, r10, fp, lr}
 300              		.cfi_def_cfa_offset 36
 301              		.cfi_offset 4, -36
 302              		.cfi_offset 5, -32
 303              		.cfi_offset 6, -28
 304              		.cfi_offset 7, -24
 305              		.cfi_offset 8, -20
 306              		.cfi_offset 9, -16
 307              		.cfi_offset 10, -12
 308              		.cfi_offset 11, -8
 309              		.cfi_offset 14, -4
 310              	.LBB2415:
 311              	.LBB1056:
 116:../../libDaisy//src/dev/mpr121.h ****     {
 117:../../libDaisy//src/dev/mpr121.h ****         config_ = config;
 312              		.loc 13 117 9 view .LVU48
 313 0004 C94B     		ldr	r3, .L13
 314              	.LBE1056:
 315              	.LBE2415:
  21:touchEvent.h  ****     // touch stuff
 316              		.loc 14 21 15 view .LVU49
 317 0006 8DB0     		sub	sp, sp, #52
 318              		.cfi_def_cfa_offset 88
 319              	.LBB2416:
 320              	.LBB2412:
 321              		.loc 13 117 9 view .LVU50
 322 0008 C94C     		ldr	r4, .L13+4
 323 000a 4FF00008 		mov	r8, #0
 324              	.LBB1057:
 325              	.LBB1058:
  56:../../libDaisy//src/dev/mpr121.h ****         i2c_conf.pin_config.sda = config.sda;
 326              		.loc 13 56 42 view .LVU51
 327 000e 0893     		str	r3, [sp, #32]
 328              	.LBE1058:
 329              	.LBE1057:
 330              		.loc 13 117 9 view .LVU52
 331 0010 0126     		movs	r6, #1
ARM GAS  /var/folders/hl/qgbwny5j0fd895c2c41bk3tw0000gp/T//cckqgw4a.s 			page 25


 332 0012 A360     		str	r3, [r4, #8]
 333 0014 40F20C63 		movw	r3, #1548
 334 0018 5A22     		movs	r2, #90
 335 001a A246     		mov	r10, r4
 336 001c A382     		strh	r3, [r4, #20]	@ movhi
 337              	.LVL8:
 338              	.LBB1069:
 339              	.LBB1064:
 340              	.LBB1059:
 341              	.LBB1060:
 342              		.file 16 "../../libDaisy//src/per/i2c.h"
   1:../../libDaisy//src/per/i2c.h **** #pragma once
   2:../../libDaisy//src/per/i2c.h **** #include "daisy_core.h"
   3:../../libDaisy//src/per/i2c.h **** 
   4:../../libDaisy//src/per/i2c.h **** namespace daisy
   5:../../libDaisy//src/per/i2c.h **** {
   6:../../libDaisy//src/per/i2c.h **** /** A handle for interacting with an I2C peripheral. This is a dumb
   7:../../libDaisy//src/per/i2c.h ****  *  gateway that internally points to one of the four I2C peripherals
   8:../../libDaisy//src/per/i2c.h ****  *  after it was initialised. It can then be copied and passed around.
   9:../../libDaisy//src/per/i2c.h ****  *  Use an I2CHandle like this:
  10:../../libDaisy//src/per/i2c.h ****  *  
  11:../../libDaisy//src/per/i2c.h ****  *      // setup the configuration
  12:../../libDaisy//src/per/i2c.h ****  *      I2CHandle::Config i2c_conf;
  13:../../libDaisy//src/per/i2c.h ****  *      i2c_conf.periph = I2CHandle::Config::Peripheral::I2C_1;
  14:../../libDaisy//src/per/i2c.h ****  *      i2c_conf.speed  = I2CHandle::Config::Speed::I2C_400KHZ;
  15:../../libDaisy//src/per/i2c.h ****  *      i2c_conf.mode   = I2CHandle::Config::Mode::Master;
  16:../../libDaisy//src/per/i2c.h ****  *      i2c_conf.pin_config.scl  = {DSY_GPIOB, 8};
  17:../../libDaisy//src/per/i2c.h ****  *      i2c_conf.pin_config.sda  = {DSY_GPIOB, 9};
  18:../../libDaisy//src/per/i2c.h ****  *      // initialise the peripheral
  19:../../libDaisy//src/per/i2c.h ****  *      I2CHandle i2c;
  20:../../libDaisy//src/per/i2c.h ****  *      i2c.Init(i2c_conf);
  21:../../libDaisy//src/per/i2c.h ****  *      // now i2c points to the corresponding peripheral and can be used.
  22:../../libDaisy//src/per/i2c.h ****  *      i2c.TransmitBlocking( ... );
  23:../../libDaisy//src/per/i2c.h ****  */
  24:../../libDaisy//src/per/i2c.h **** class I2CHandle
  25:../../libDaisy//src/per/i2c.h **** {
  26:../../libDaisy//src/per/i2c.h ****   public:
  27:../../libDaisy//src/per/i2c.h ****     /** Contains settings for initialising an I2C interface. */
  28:../../libDaisy//src/per/i2c.h ****     struct Config
 343              		.loc 16 28 12 view .LVU53
 344 001e 1023     		movs	r3, #16
 345              	.LBE1060:
 346              	.LBE1059:
 347              	.LBE1064:
 348              	.LBE1069:
 349              		.loc 13 117 9 view .LVU54
 350 0020 2274     		strb	r2, [r4, #16]
 351 0022 0DF1080E 		add	lr, sp, #8
 352              	.LBB1070:
 353              	.LBB1065:
 354              	.LBB1062:
 355              	.LBB1061:
 356              		.loc 16 28 12 view .LVU55
 357 0026 8DF82C30 		strb	r3, [sp, #44]
 358              	.LBE1061:
 359              	.LBE1062:
  49:../../libDaisy//src/dev/mpr121.h **** 
ARM GAS  /var/folders/hl/qgbwny5j0fd895c2c41bk3tw0000gp/T//cckqgw4a.s 			page 26


 360              		.loc 13 49 17 view .LVU56
 361 002a 04F11C0C 		add	ip, r4, #28
 362 002e F346     		mov	fp, lr
  53:../../libDaisy//src/dev/mpr121.h ****         i2c_conf.speed  = config.speed;
 363              		.loc 13 53 25 view .LVU57
 364 0030 CDF81C80 		str	r8, [sp, #28]
 365              	.LBE1065:
 366              	.LBE1070:
 367              	.LBB1071:
 368              	.LBB1072:
 369              	.LBB1073:
 370              	.LBB1074:
  66:../../libDaisy//src/dev/mpr121.h ****     }
 371              		.loc 13 66 40 view .LVU58
 372 0034 0A25     		movs	r5, #10
 373              	.LBE1074:
 374              	.LBE1073:
 118:../../libDaisy//src/dev/mpr121.h **** 
 119:../../libDaisy//src/dev/mpr121.h ****         SetTransportErr(transport_.Init(config_.transport_config));
 120:../../libDaisy//src/dev/mpr121.h **** 
 121:../../libDaisy//src/dev/mpr121.h ****         // soft reset
 122:../../libDaisy//src/dev/mpr121.h ****         WriteRegister(MPR121_SOFTRESET, 0x63);
 123:../../libDaisy//src/dev/mpr121.h ****         System::Delay(1);
 124:../../libDaisy//src/dev/mpr121.h **** 
 125:../../libDaisy//src/dev/mpr121.h ****         WriteRegister(MPR121_ECR, 0x0);
 126:../../libDaisy//src/dev/mpr121.h **** 
 127:../../libDaisy//src/dev/mpr121.h ****         // this doesn't work for some reason...
 128:../../libDaisy//src/dev/mpr121.h ****         // uint8_t c = ReadRegister8(MPR121_CONFIG2);
 129:../../libDaisy//src/dev/mpr121.h **** 
 130:../../libDaisy//src/dev/mpr121.h ****         // if(c != 0x24)
 131:../../libDaisy//src/dev/mpr121.h ****         //     return ERR;
 132:../../libDaisy//src/dev/mpr121.h **** 
 133:../../libDaisy//src/dev/mpr121.h ****         SetThresholds(config_.touch_threshold, config_.release_threshold);
 134:../../libDaisy//src/dev/mpr121.h ****         WriteRegister(MPR121_MHDR, 0x01);
 135:../../libDaisy//src/dev/mpr121.h ****         WriteRegister(MPR121_NHDR, 0x01);
 136:../../libDaisy//src/dev/mpr121.h ****         WriteRegister(MPR121_NCLR, 0x0E);
 137:../../libDaisy//src/dev/mpr121.h ****         WriteRegister(MPR121_FDLR, 0x00);
 138:../../libDaisy//src/dev/mpr121.h **** 
 139:../../libDaisy//src/dev/mpr121.h ****         WriteRegister(MPR121_MHDF, 0x01);
 140:../../libDaisy//src/dev/mpr121.h ****         WriteRegister(MPR121_NHDF, 0x05);
 141:../../libDaisy//src/dev/mpr121.h ****         WriteRegister(MPR121_NCLF, 0x01);
 142:../../libDaisy//src/dev/mpr121.h ****         WriteRegister(MPR121_FDLF, 0x00);
 143:../../libDaisy//src/dev/mpr121.h **** 
 144:../../libDaisy//src/dev/mpr121.h ****         WriteRegister(MPR121_NHDT, 0x00);
 145:../../libDaisy//src/dev/mpr121.h ****         WriteRegister(MPR121_NCLT, 0x00);
 146:../../libDaisy//src/dev/mpr121.h ****         WriteRegister(MPR121_FDLT, 0x00);
 147:../../libDaisy//src/dev/mpr121.h **** 
 148:../../libDaisy//src/dev/mpr121.h ****         WriteRegister(MPR121_DEBOUNCE, 0);
 149:../../libDaisy//src/dev/mpr121.h ****         WriteRegister(MPR121_CONFIG1, 0x10); // default, 16uA charge current
 150:../../libDaisy//src/dev/mpr121.h ****         WriteRegister(MPR121_CONFIG2, 0x20); // 0.5uS encoding, 1ms period
 151:../../libDaisy//src/dev/mpr121.h **** 
 152:../../libDaisy//src/dev/mpr121.h ****         // autoconfig
 153:../../libDaisy//src/dev/mpr121.h ****         // WriteRegister(MPR121_AUTOCONFIG0, 0x0B);
 154:../../libDaisy//src/dev/mpr121.h **** 
 155:../../libDaisy//src/dev/mpr121.h ****         // correct values for Vdd = 3.3V
 156:../../libDaisy//src/dev/mpr121.h ****         // WriteRegister(MPR121_UPLIMIT, 200);     // ((Vdd - 0.7)/Vdd) * 256
 157:../../libDaisy//src/dev/mpr121.h ****         // WriteRegister(MPR121_TARGETLIMIT, 180); // UPLIMIT * 0.9
ARM GAS  /var/folders/hl/qgbwny5j0fd895c2c41bk3tw0000gp/T//cckqgw4a.s 			page 27


 158:../../libDaisy//src/dev/mpr121.h ****         // WriteRegister(MPR121_LOWLIMIT, 130);    // UPLIMIT * 0.65
 159:../../libDaisy//src/dev/mpr121.h ****         // autoconfig
 160:../../libDaisy//src/dev/mpr121.h **** 
 161:../../libDaisy//src/dev/mpr121.h ****         // enable X electrodes and start MPR121
 162:../../libDaisy//src/dev/mpr121.h ****         uint8_t ECR_SETTING
 163:../../libDaisy//src/dev/mpr121.h ****             = 0x80
 164:../../libDaisy//src/dev/mpr121.h ****               + 12; // 5 bits for baseline tracking & proximity disabled + X
 165:../../libDaisy//src/dev/mpr121.h ****                     // amount of electrodes running (12)
 166:../../libDaisy//src/dev/mpr121.h ****         WriteRegister(MPR121_ECR,
 167:../../libDaisy//src/dev/mpr121.h ****                       ECR_SETTING); // start with above ECR setting
 168:../../libDaisy//src/dev/mpr121.h **** 
 169:../../libDaisy//src/dev/mpr121.h ****         return GetTransportErr();
 170:../../libDaisy//src/dev/mpr121.h ****     }
 171:../../libDaisy//src/dev/mpr121.h **** 
 172:../../libDaisy//src/dev/mpr121.h ****     /** Set the touch and release thresholds for all 13 channels on the
 173:../../libDaisy//src/dev/mpr121.h ****         device to the passed values.
 174:../../libDaisy//src/dev/mpr121.h ****         \param      touch The touch threshold value from 0 to 255.
 175:../../libDaisy//src/dev/mpr121.h ****         \param      release The release threshold from 0 to 255.
 176:../../libDaisy//src/dev/mpr121.h ****     */
 177:../../libDaisy//src/dev/mpr121.h ****     void SetThresholds(uint8_t touch, uint8_t release)
 178:../../libDaisy//src/dev/mpr121.h ****     {
 179:../../libDaisy//src/dev/mpr121.h ****         // set all thresholds (the same)
 180:../../libDaisy//src/dev/mpr121.h ****         for(uint8_t i = 0; i < 12; i++)
 181:../../libDaisy//src/dev/mpr121.h ****         {
 182:../../libDaisy//src/dev/mpr121.h ****             WriteRegister(MPR121_TOUCHTH_0 + 2 * i, touch);
 183:../../libDaisy//src/dev/mpr121.h ****             WriteRegister(MPR121_RELEASETH_0 + 2 * i, release);
 184:../../libDaisy//src/dev/mpr121.h ****         }
 185:../../libDaisy//src/dev/mpr121.h ****     }
 186:../../libDaisy//src/dev/mpr121.h **** 
 187:../../libDaisy//src/dev/mpr121.h **** 
 188:../../libDaisy//src/dev/mpr121.h ****     /** Read the filtered data from channel t. The ADC raw data outputs
 189:../../libDaisy//src/dev/mpr121.h ****         run through 3 levels of digital filtering to filter out the high
 190:../../libDaisy//src/dev/mpr121.h ****         frequency and low frequency noise encountered. For detailed information on
 191:../../libDaisy//src/dev/mpr121.h ****         this filtering see page 6 of the device datasheet.
 192:../../libDaisy//src/dev/mpr121.h ****         \param      t the channel to read
 193:../../libDaisy//src/dev/mpr121.h ****         \returns    the filtered reading as a 10 bit unsigned value
 194:../../libDaisy//src/dev/mpr121.h ****     */
 195:../../libDaisy//src/dev/mpr121.h ****     uint16_t FilteredData(uint8_t t)
 196:../../libDaisy//src/dev/mpr121.h ****     {
 197:../../libDaisy//src/dev/mpr121.h ****         if(t > 12)
 198:../../libDaisy//src/dev/mpr121.h ****             return 0;
 199:../../libDaisy//src/dev/mpr121.h ****         return ReadRegister16(MPR121_FILTDATA_0L + t * 2);
 200:../../libDaisy//src/dev/mpr121.h ****     }
 201:../../libDaisy//src/dev/mpr121.h **** 
 202:../../libDaisy//src/dev/mpr121.h ****     /** Read the baseline value for the channel. The 3rd level filtered
 203:../../libDaisy//src/dev/mpr121.h ****         result is internally 10bit but only high 8 bits are readable
 204:../../libDaisy//src/dev/mpr121.h ****         from registers 0x1E~0x2A as the baseline value output for each channel.
 205:../../libDaisy//src/dev/mpr121.h ****         \param      t the channel to read.
 206:../../libDaisy//src/dev/mpr121.h ****         \returns    the baseline data that was read
 207:../../libDaisy//src/dev/mpr121.h ****     */
 208:../../libDaisy//src/dev/mpr121.h ****     uint16_t BaselineData(uint8_t t)
 209:../../libDaisy//src/dev/mpr121.h ****     {
 210:../../libDaisy//src/dev/mpr121.h ****         if(t > 12)
 211:../../libDaisy//src/dev/mpr121.h ****             return 0;
 212:../../libDaisy//src/dev/mpr121.h ****         uint16_t bl = ReadRegister8(MPR121_BASELINE_0 + t);
 213:../../libDaisy//src/dev/mpr121.h ****         return (bl << 2);
 214:../../libDaisy//src/dev/mpr121.h ****     }
ARM GAS  /var/folders/hl/qgbwny5j0fd895c2c41bk3tw0000gp/T//cckqgw4a.s 			page 28


 215:../../libDaisy//src/dev/mpr121.h **** 
 216:../../libDaisy//src/dev/mpr121.h ****     /** Read the touch status of all 13 channels as bit values in a 12 bit integer.
 217:../../libDaisy//src/dev/mpr121.h ****         \returns    a 12 bit integer with each bit corresponding to the touch status
 218:../../libDaisy//src/dev/mpr121.h ****         of a sensor. For example, if bit 0 is set then channel 0 of the
 219:../../libDaisy//src/dev/mpr121.h ****         device is currently deemed to be touched.
 220:../../libDaisy//src/dev/mpr121.h ****     */
 221:../../libDaisy//src/dev/mpr121.h ****     uint16_t Touched()
 222:../../libDaisy//src/dev/mpr121.h ****     {
 223:../../libDaisy//src/dev/mpr121.h ****         uint16_t t = ReadRegister16(MPR121_TOUCHSTATUS_L);
 224:../../libDaisy//src/dev/mpr121.h ****         return t & 0x0FFF;
 225:../../libDaisy//src/dev/mpr121.h ****     }
 226:../../libDaisy//src/dev/mpr121.h **** 
 227:../../libDaisy//src/dev/mpr121.h ****     /** Read the contents of an 8 bit device register.
 228:../../libDaisy//src/dev/mpr121.h ****         \param      reg the register address to read from
 229:../../libDaisy//src/dev/mpr121.h ****         \returns    the 8 bit value that was read.
 230:../../libDaisy//src/dev/mpr121.h ****     */
 231:../../libDaisy//src/dev/mpr121.h ****     uint8_t ReadRegister8(uint8_t reg)
 232:../../libDaisy//src/dev/mpr121.h ****     {
 233:../../libDaisy//src/dev/mpr121.h ****         uint8_t buff;
 234:../../libDaisy//src/dev/mpr121.h ****         SetTransportErr(transport_.Write(&reg, 1));
 235:../../libDaisy//src/dev/mpr121.h ****         SetTransportErr(transport_.Read(&buff, 1));
 236:../../libDaisy//src/dev/mpr121.h **** 
 237:../../libDaisy//src/dev/mpr121.h ****         return buff;
 238:../../libDaisy//src/dev/mpr121.h ****     }
 239:../../libDaisy//src/dev/mpr121.h **** 
 240:../../libDaisy//src/dev/mpr121.h ****     /** Read the contents of a 16 bit device register.
 241:../../libDaisy//src/dev/mpr121.h ****         \param      reg the register address to read from
 242:../../libDaisy//src/dev/mpr121.h ****         \returns    the 16 bit value that was read.
 243:../../libDaisy//src/dev/mpr121.h ****     */
 244:../../libDaisy//src/dev/mpr121.h ****     uint16_t ReadRegister16(uint8_t reg)
 245:../../libDaisy//src/dev/mpr121.h ****     {
 246:../../libDaisy//src/dev/mpr121.h ****         uint16_t buff;
 247:../../libDaisy//src/dev/mpr121.h ****         SetTransportErr(transport_.Write(&reg, 1));
 248:../../libDaisy//src/dev/mpr121.h ****         SetTransportErr(transport_.Read((uint8_t *)&buff, 2));
 249:../../libDaisy//src/dev/mpr121.h **** 
 250:../../libDaisy//src/dev/mpr121.h ****         return buff;
 251:../../libDaisy//src/dev/mpr121.h ****     }
 252:../../libDaisy//src/dev/mpr121.h **** 
 253:../../libDaisy//src/dev/mpr121.h ****     /** Writes 8-bits to the specified destination register
 254:../../libDaisy//src/dev/mpr121.h ****         \param  reg the register address to write to
 255:../../libDaisy//src/dev/mpr121.h ****         \param  value the value to write
 256:../../libDaisy//src/dev/mpr121.h ****     */
 257:../../libDaisy//src/dev/mpr121.h ****     void WriteRegister(uint8_t reg, uint8_t value)
 258:../../libDaisy//src/dev/mpr121.h ****     {
 259:../../libDaisy//src/dev/mpr121.h ****         // MPR121 must be put in Stop Mode to write to most registers
 260:../../libDaisy//src/dev/mpr121.h ****         bool stop_required = true;
 261:../../libDaisy//src/dev/mpr121.h **** 
 262:../../libDaisy//src/dev/mpr121.h ****         // first get the current set value of the MPR121_ECR register
 263:../../libDaisy//src/dev/mpr121.h ****         uint8_t ecr_reg = MPR121_ECR;
 264:../../libDaisy//src/dev/mpr121.h ****         uint8_t buff[2] = {ecr_reg, 0x00};
 375              		.loc 13 264 17 view .LVU59
 376 0036 4FF05E09 		mov	r9, #94
 377              	.LBE1072:
 378              	.LBE1071:
 133:../../libDaisy//src/dev/mpr121.h ****         WriteRegister(MPR121_MHDR, 0x01);
 379              		.loc 13 133 22 view .LVU60
 380 003a 4127     		movs	r7, #65
ARM GAS  /var/folders/hl/qgbwny5j0fd895c2c41bk3tw0000gp/T//cckqgw4a.s 			page 29


 117:../../libDaisy//src/dev/mpr121.h **** 
 381              		.loc 13 117 9 view .LVU61
 382 003c C4E90086 		strd	r8, r6, [r4]
 383 0040 BAE80F00 		ldmia	r10!, {r0, r1, r2, r3}
 384 0044 DAF800A0 		ldr	r10, [r10]
 385 0048 AEE80F00 		stmia	lr!, {r0, r1, r2, r3}
 386 004c CEF800A0 		str	r10, [lr]
 387              	.LBB1139:
 388              	.LBI1057:
  47:../../libDaisy//src/dev/mpr121.h ****     {
 389              		.loc 13 47 17 is_stmt 1 view .LVU62
 390              	.LBB1066:
  49:../../libDaisy//src/dev/mpr121.h **** 
 391              		.loc 13 49 9 view .LVU63
  49:../../libDaisy//src/dev/mpr121.h **** 
 392              		.loc 13 49 17 is_stmt 0 view .LVU64
 393 0050 BBE80F00 		ldmia	fp!, {r0, r1, r2, r3}
 394 0054 ACE80F00 		stmia	ip!, {r0, r1, r2, r3}
  59:../../libDaisy//src/dev/mpr121.h ****     }
 395              		.loc 13 59 50 view .LVU65
 396 0058 07A9     		add	r1, sp, #28
  49:../../libDaisy//src/dev/mpr121.h **** 
 397              		.loc 13 49 17 view .LVU66
 398 005a 8CF800A0 		strb	r10, [ip]
  51:../../libDaisy//src/dev/mpr121.h ****         i2c_conf.mode   = I2CHandle::Config::Mode::I2C_MASTER;
 399              		.loc 13 51 9 is_stmt 1 view .LVU67
 400              	.LVL9:
 401              	.LBB1063:
 402              	.LBI1059:
 403              		.loc 16 28 12 view .LVU68
 404              		.loc 16 28 12 is_stmt 0 view .LVU69
 405              	.LBE1063:
  52:../../libDaisy//src/dev/mpr121.h ****         i2c_conf.periph = config.periph;
 406              		.loc 13 52 9 is_stmt 1 view .LVU70
  53:../../libDaisy//src/dev/mpr121.h ****         i2c_conf.speed  = config.speed;
 407              		.loc 13 53 9 view .LVU71
  54:../../libDaisy//src/dev/mpr121.h **** 
 408              		.loc 13 54 9 view .LVU72
  56:../../libDaisy//src/dev/mpr121.h ****         i2c_conf.pin_config.sda = config.sda;
 409              		.loc 13 56 9 view .LVU73
  56:../../libDaisy//src/dev/mpr121.h ****         i2c_conf.pin_config.sda = config.sda;
 410              		.loc 13 56 9 is_stmt 0 view .LVU74
 411              	.LBE1066:
 412              	.LBE1139:
 413              	.LBE2412:
 414              	.LBE2416:
 273:../../libDaisy//src/daisy_core.h **** 
 274:../../libDaisy//src/daisy_core.h ****     /** @brief checks validity of a Pin 
 275:../../libDaisy//src/daisy_core.h ****      *  @retval returns true if the port is a valid hardware pin, otherwise false.
 276:../../libDaisy//src/daisy_core.h ****     */
 277:../../libDaisy//src/daisy_core.h ****     constexpr bool IsValid() const { return port != PORTX && pin < 16; }
 278:../../libDaisy//src/daisy_core.h **** 
 279:../../libDaisy//src/daisy_core.h ****     /** @brief comparison operator for checking equality between Pin objects */
 280:../../libDaisy//src/daisy_core.h ****     constexpr bool operator==(const Pin &rhs) const
 281:../../libDaisy//src/daisy_core.h ****     {
 282:../../libDaisy//src/daisy_core.h ****         return (rhs.port == port) && (rhs.pin == pin);
 283:../../libDaisy//src/daisy_core.h ****     }
ARM GAS  /var/folders/hl/qgbwny5j0fd895c2c41bk3tw0000gp/T//cckqgw4a.s 			page 30


 284:../../libDaisy//src/daisy_core.h **** 
 285:../../libDaisy//src/daisy_core.h ****     /** @brief comparison operator for checking inequality between Pin objects */
 286:../../libDaisy//src/daisy_core.h ****     constexpr bool operator!=(const Pin &rhs) const { return !operator==(rhs); }
 287:../../libDaisy//src/daisy_core.h **** 
 288:../../libDaisy//src/daisy_core.h ****     /** @brief conversion operation for converting to the old-style representation
 289:../../libDaisy//src/daisy_core.h ****      *         of a pin.
 290:../../libDaisy//src/daisy_core.h ****      * 
 291:../../libDaisy//src/daisy_core.h ****      *  This allows the new Pin type to be used in place of the older, dsy_gpio_pin
 292:../../libDaisy//src/daisy_core.h ****      *  type.
 293:../../libDaisy//src/daisy_core.h ****      */
 294:../../libDaisy//src/daisy_core.h ****     operator dsy_gpio_pin() const
 295:../../libDaisy//src/daisy_core.h ****     {
 296:../../libDaisy//src/daisy_core.h ****         return dsy_pin(static_cast<dsy_gpio_port>(port), pin);
 415              		.loc 15 296 9 is_stmt 1 view .LVU75
 219:../../libDaisy//src/daisy_core.h ****     p.port = port;
 416              		.loc 15 219 5 view .LVU76
 220:../../libDaisy//src/daisy_core.h ****     p.pin  = pin;
 417              		.loc 15 220 5 view .LVU77
 221:../../libDaisy//src/daisy_core.h ****     return p;
 418              		.loc 15 221 5 view .LVU78
 222:../../libDaisy//src/daisy_core.h **** }
 419              		.loc 15 222 5 view .LVU79
 420              	.LBB2417:
 421              	.LBB2413:
 422              	.LBB1140:
 423              	.LBB1067:
  57:../../libDaisy//src/dev/mpr121.h **** 
 424              		.loc 13 57 9 view .LVU80
  57:../../libDaisy//src/dev/mpr121.h **** 
 425              		.loc 13 57 9 is_stmt 0 view .LVU81
 426              	.LBE1067:
 427              	.LBE1140:
 428              	.LBE2413:
 429              	.LBE2417:
 430              		.loc 15 296 9 is_stmt 1 view .LVU82
 219:../../libDaisy//src/daisy_core.h ****     p.port = port;
 431              		.loc 15 219 5 view .LVU83
 220:../../libDaisy//src/daisy_core.h ****     p.pin  = pin;
 432              		.loc 15 220 5 view .LVU84
 221:../../libDaisy//src/daisy_core.h ****     return p;
 433              		.loc 15 221 5 view .LVU85
 222:../../libDaisy//src/daisy_core.h **** }
 434              		.loc 15 222 5 view .LVU86
 435              	.LBB2418:
 436              	.LBB2414:
 437              	.LBB1141:
 438              	.LBB1068:
  59:../../libDaisy//src/dev/mpr121.h ****     }
 439              		.loc 13 59 9 view .LVU87
  59:../../libDaisy//src/dev/mpr121.h ****     }
 440              		.loc 13 59 50 is_stmt 0 view .LVU88
 441 005e 04F11800 		add	r0, r4, #24
  52:../../libDaisy//src/dev/mpr121.h ****         i2c_conf.periph = config.periph;
 442              		.loc 13 52 25 view .LVU89
 443 0062 CDE90968 		strd	r6, r8, [sp, #36]
  59:../../libDaisy//src/dev/mpr121.h ****     }
 444              		.loc 13 59 50 view .LVU90
ARM GAS  /var/folders/hl/qgbwny5j0fd895c2c41bk3tw0000gp/T//cckqgw4a.s 			page 31


 445 0066 FFF7FEFF 		bl	_ZN5daisy9I2CHandle4InitERKNS0_6ConfigE
 446              	.LVL10:
  59:../../libDaisy//src/dev/mpr121.h ****     }
 447              		.loc 13 59 50 view .LVU91
 448              	.LBE1068:
 449              	.LBE1141:
 450              	.LBB1142:
 451              	.LBI1142:
 265:../../libDaisy//src/dev/mpr121.h **** 
 266:../../libDaisy//src/dev/mpr121.h ****         SetTransportErr(transport_.Write(buff, 1));
 267:../../libDaisy//src/dev/mpr121.h **** 
 268:../../libDaisy//src/dev/mpr121.h ****         uint8_t ecr_backup;
 269:../../libDaisy//src/dev/mpr121.h ****         SetTransportErr(transport_.Read(&ecr_backup, 1));
 270:../../libDaisy//src/dev/mpr121.h ****         if((reg == MPR121_ECR) || ((0x73 <= reg) && (reg <= 0x7A)))
 271:../../libDaisy//src/dev/mpr121.h ****         {
 272:../../libDaisy//src/dev/mpr121.h ****             stop_required = false;
 273:../../libDaisy//src/dev/mpr121.h ****         }
 274:../../libDaisy//src/dev/mpr121.h **** 
 275:../../libDaisy//src/dev/mpr121.h ****         if(stop_required)
 276:../../libDaisy//src/dev/mpr121.h ****         {
 277:../../libDaisy//src/dev/mpr121.h ****             // clear this register to set stop mode
 278:../../libDaisy//src/dev/mpr121.h ****             SetTransportErr(transport_.Write(buff, 2));
 279:../../libDaisy//src/dev/mpr121.h ****         }
 280:../../libDaisy//src/dev/mpr121.h **** 
 281:../../libDaisy//src/dev/mpr121.h ****         buff[0] = reg;
 282:../../libDaisy//src/dev/mpr121.h ****         buff[1] = value;
 283:../../libDaisy//src/dev/mpr121.h ****         SetTransportErr(transport_.Write(buff, 2));
 284:../../libDaisy//src/dev/mpr121.h **** 
 285:../../libDaisy//src/dev/mpr121.h ****         if(stop_required)
 286:../../libDaisy//src/dev/mpr121.h ****         {
 287:../../libDaisy//src/dev/mpr121.h ****             // write back the previous set ECR settings
 288:../../libDaisy//src/dev/mpr121.h ****             buff[0] = ecr_reg;
 289:../../libDaisy//src/dev/mpr121.h ****             buff[1] = ecr_backup;
 290:../../libDaisy//src/dev/mpr121.h ****             SetTransportErr(transport_.Write(buff, 2));
 291:../../libDaisy//src/dev/mpr121.h ****         }
 292:../../libDaisy//src/dev/mpr121.h ****     }
 293:../../libDaisy//src/dev/mpr121.h **** 
 294:../../libDaisy//src/dev/mpr121.h ****     /** Device register map */
 295:../../libDaisy//src/dev/mpr121.h ****     enum RegMap
 296:../../libDaisy//src/dev/mpr121.h ****     {
 297:../../libDaisy//src/dev/mpr121.h ****         MPR121_TOUCHSTATUS_L = 0x00,
 298:../../libDaisy//src/dev/mpr121.h ****         MPR121_TOUCHSTATUS_H = 0x01,
 299:../../libDaisy//src/dev/mpr121.h ****         MPR121_FILTDATA_0L   = 0x04,
 300:../../libDaisy//src/dev/mpr121.h ****         MPR121_FILTDATA_0H   = 0x05,
 301:../../libDaisy//src/dev/mpr121.h ****         MPR121_BASELINE_0    = 0x1E,
 302:../../libDaisy//src/dev/mpr121.h ****         MPR121_MHDR          = 0x2B,
 303:../../libDaisy//src/dev/mpr121.h ****         MPR121_NHDR          = 0x2C,
 304:../../libDaisy//src/dev/mpr121.h ****         MPR121_NCLR          = 0x2D,
 305:../../libDaisy//src/dev/mpr121.h ****         MPR121_FDLR          = 0x2E,
 306:../../libDaisy//src/dev/mpr121.h ****         MPR121_MHDF          = 0x2F,
 307:../../libDaisy//src/dev/mpr121.h ****         MPR121_NHDF          = 0x30,
 308:../../libDaisy//src/dev/mpr121.h ****         MPR121_NCLF          = 0x31,
 309:../../libDaisy//src/dev/mpr121.h ****         MPR121_FDLF          = 0x32,
 310:../../libDaisy//src/dev/mpr121.h ****         MPR121_NHDT          = 0x33,
 311:../../libDaisy//src/dev/mpr121.h ****         MPR121_NCLT          = 0x34,
 312:../../libDaisy//src/dev/mpr121.h ****         MPR121_FDLT          = 0x35,
 313:../../libDaisy//src/dev/mpr121.h **** 
ARM GAS  /var/folders/hl/qgbwny5j0fd895c2c41bk3tw0000gp/T//cckqgw4a.s 			page 32


 314:../../libDaisy//src/dev/mpr121.h ****         MPR121_TOUCHTH_0    = 0x41,
 315:../../libDaisy//src/dev/mpr121.h ****         MPR121_RELEASETH_0  = 0x42,
 316:../../libDaisy//src/dev/mpr121.h ****         MPR121_DEBOUNCE     = 0x5B,
 317:../../libDaisy//src/dev/mpr121.h ****         MPR121_CONFIG1      = 0x5C,
 318:../../libDaisy//src/dev/mpr121.h ****         MPR121_CONFIG2      = 0x5D,
 319:../../libDaisy//src/dev/mpr121.h ****         MPR121_CHARGECURR_0 = 0x5F,
 320:../../libDaisy//src/dev/mpr121.h ****         MPR121_CHARGETIME_1 = 0x6C,
 321:../../libDaisy//src/dev/mpr121.h ****         MPR121_ECR          = 0x5E,
 322:../../libDaisy//src/dev/mpr121.h ****         MPR121_AUTOCONFIG0  = 0x7B,
 323:../../libDaisy//src/dev/mpr121.h ****         MPR121_AUTOCONFIG1  = 0x7C,
 324:../../libDaisy//src/dev/mpr121.h ****         MPR121_UPLIMIT      = 0x7D,
 325:../../libDaisy//src/dev/mpr121.h ****         MPR121_LOWLIMIT     = 0x7E,
 326:../../libDaisy//src/dev/mpr121.h ****         MPR121_TARGETLIMIT  = 0x7F,
 327:../../libDaisy//src/dev/mpr121.h **** 
 328:../../libDaisy//src/dev/mpr121.h ****         MPR121_GPIODIR    = 0x76,
 329:../../libDaisy//src/dev/mpr121.h ****         MPR121_GPIOEN     = 0x77,
 330:../../libDaisy//src/dev/mpr121.h ****         MPR121_GPIOSET    = 0x78,
 331:../../libDaisy//src/dev/mpr121.h ****         MPR121_GPIOCLR    = 0x79,
 332:../../libDaisy//src/dev/mpr121.h ****         MPR121_GPIOTOGGLE = 0x7A,
 333:../../libDaisy//src/dev/mpr121.h **** 
 334:../../libDaisy//src/dev/mpr121.h ****         MPR121_SOFTRESET = 0x80,
 335:../../libDaisy//src/dev/mpr121.h ****     };
 336:../../libDaisy//src/dev/mpr121.h **** 
 337:../../libDaisy//src/dev/mpr121.h ****   private:
 338:../../libDaisy//src/dev/mpr121.h ****     Config    config_;
 339:../../libDaisy//src/dev/mpr121.h ****     Transport transport_;
 340:../../libDaisy//src/dev/mpr121.h ****     bool      transport_error_;
 341:../../libDaisy//src/dev/mpr121.h **** 
 342:../../libDaisy//src/dev/mpr121.h ****     /** Set the global transport_error_ bool */
 343:../../libDaisy//src/dev/mpr121.h ****     void SetTransportErr(bool err) { transport_error_ |= err; }
 452              		.loc 13 343 10 is_stmt 1 view .LVU92
 453              	.LBB1143:
 454              		.loc 13 343 55 is_stmt 0 view .LVU93
 455 006a 94F83030 		ldrb	r3, [r4, #48]	@ zero_extendqisi2
 456              	.LBE1143:
 457              	.LBE1142:
 458              	.LBB1146:
 459              	.LBB1135:
 460              	.LBB1079:
 461              	.LBB1075:
  66:../../libDaisy//src/dev/mpr121.h ****     }
 462              		.loc 13 66 40 view .LVU94
 463 006e 07AA     		add	r2, sp, #28
 464 0070 94F82C10 		ldrb	r1, [r4, #44]	@ zero_extendqisi2
 465              	.LBE1075:
 466              	.LBE1079:
 467              	.LBE1135:
 468              	.LBE1146:
 469              	.LBB1147:
 470              	.LBB1144:
 471              		.loc 13 343 55 view .LVU95
 472 0074 4045     		cmp	r0, r8
 473 0076 18BF     		it	ne
 474 0078 43F00103 		orrne	r3, r3, #1
 475              	.LBE1144:
 476              	.LBE1147:
 477              	.LBB1148:
ARM GAS  /var/folders/hl/qgbwny5j0fd895c2c41bk3tw0000gp/T//cckqgw4a.s 			page 33


 478              	.LBB1136:
 479              	.LBB1080:
 480              	.LBB1076:
  66:../../libDaisy//src/dev/mpr121.h ****     }
 481              		.loc 13 66 40 view .LVU96
 482 007c 0095     		str	r5, [sp]
 483 007e 04F11800 		add	r0, r4, #24
 484              	.LVL11:
  66:../../libDaisy//src/dev/mpr121.h ****     }
 485              		.loc 13 66 40 view .LVU97
 486              	.LBE1076:
 487              	.LBE1080:
 264:../../libDaisy//src/dev/mpr121.h **** 
 488              		.loc 13 264 17 view .LVU98
 489 0082 8DF81C90 		strb	r9, [sp, #28]
 490              	.LBE1136:
 491              	.LBE1148:
 492              	.LBB1149:
 493              	.LBB1145:
 494              		.loc 13 343 55 view .LVU99
 495 0086 84F83030 		strb	r3, [r4, #48]
 496              	.LVL12:
 497              		.loc 13 343 55 view .LVU100
 498              	.LBE1145:
 499              	.LBE1149:
 500              	.LBB1150:
 501              	.LBI1071:
 257:../../libDaisy//src/dev/mpr121.h ****     {
 502              		.loc 13 257 10 is_stmt 1 view .LVU101
 503              	.LBB1137:
 504              	.LBB1081:
 505              	.LBI1073:
  63:../../libDaisy//src/dev/mpr121.h ****     {
 506              		.loc 13 63 10 view .LVU102
 507              	.LBB1077:
  65:../../libDaisy//src/dev/mpr121.h ****                != i2c_.TransmitBlocking(config_.dev_addr, data, size, 10);
 508              		.loc 13 65 9 view .LVU103
  66:../../libDaisy//src/dev/mpr121.h ****     }
 509              		.loc 13 66 40 is_stmt 0 view .LVU104
 510 008a 3346     		mov	r3, r6
 511              	.LBE1077:
 512              	.LBE1081:
 264:../../libDaisy//src/dev/mpr121.h **** 
 513              		.loc 13 264 17 view .LVU105
 514 008c 8DF81D80 		strb	r8, [sp, #29]
 515              	.LBB1082:
 516              	.LBB1078:
  66:../../libDaisy//src/dev/mpr121.h ****     }
 517              		.loc 13 66 40 view .LVU106
 518 0090 FFF7FEFF 		bl	_ZN5daisy9I2CHandle16TransmitBlockingEtPhtm
 519              	.LVL13:
  66:../../libDaisy//src/dev/mpr121.h ****     }
 520              		.loc 13 66 40 view .LVU107
 521              	.LBE1078:
 522              	.LBE1082:
 523              	.LBB1083:
 524              	.LBI1083:
ARM GAS  /var/folders/hl/qgbwny5j0fd895c2c41bk3tw0000gp/T//cckqgw4a.s 			page 34


 525              		.loc 13 343 10 is_stmt 1 view .LVU108
 526              	.LBB1084:
 527              		.loc 13 343 55 is_stmt 0 view .LVU109
 528 0094 94F83030 		ldrb	r3, [r4, #48]	@ zero_extendqisi2
 529              	.LBE1084:
 530              	.LBE1083:
 531              	.LBB1087:
 532              	.LBB1088:
  73:../../libDaisy//src/dev/mpr121.h ****     }
 533              		.loc 13 73 39 view .LVU110
 534 0098 02AA     		add	r2, sp, #8
 535 009a 94F82C10 		ldrb	r1, [r4, #44]	@ zero_extendqisi2
 536              	.LBE1088:
 537              	.LBE1087:
 538              	.LBB1091:
 539              	.LBB1085:
 540              		.loc 13 343 55 view .LVU111
 541 009e 4045     		cmp	r0, r8
 542 00a0 18BF     		it	ne
 543 00a2 43F00103 		orrne	r3, r3, #1
 544              	.LBE1085:
 545              	.LBE1091:
 546              	.LBB1092:
 547              	.LBB1089:
  73:../../libDaisy//src/dev/mpr121.h ****     }
 548              		.loc 13 73 39 view .LVU112
 549 00a6 0095     		str	r5, [sp]
 550 00a8 04F11800 		add	r0, r4, #24
 551              	.LVL14:
  73:../../libDaisy//src/dev/mpr121.h ****     }
 552              		.loc 13 73 39 view .LVU113
 553              	.LBE1089:
 554              	.LBE1092:
 555              	.LBB1093:
 556              	.LBB1086:
 557              		.loc 13 343 55 view .LVU114
 558 00ac 84F83030 		strb	r3, [r4, #48]
 559              	.LVL15:
 560              		.loc 13 343 55 view .LVU115
 561              	.LBE1086:
 562              	.LBE1093:
 563              	.LBB1094:
 564              	.LBI1087:
  70:../../libDaisy//src/dev/mpr121.h ****     {
 565              		.loc 13 70 10 is_stmt 1 view .LVU116
 566              	.LBB1090:
  72:../../libDaisy//src/dev/mpr121.h ****                != i2c_.ReceiveBlocking(config_.dev_addr, data, size, 10);
 567              		.loc 13 72 9 view .LVU117
  73:../../libDaisy//src/dev/mpr121.h ****     }
 568              		.loc 13 73 39 is_stmt 0 view .LVU118
 569 00b0 3346     		mov	r3, r6
 570 00b2 FFF7FEFF 		bl	_ZN5daisy9I2CHandle15ReceiveBlockingEtPhtm
 571              	.LVL16:
  73:../../libDaisy//src/dev/mpr121.h ****     }
 572              		.loc 13 73 39 view .LVU119
 573              	.LBE1090:
 574              	.LBE1094:
ARM GAS  /var/folders/hl/qgbwny5j0fd895c2c41bk3tw0000gp/T//cckqgw4a.s 			page 35


 575              	.LBB1095:
 576              	.LBI1095:
 577              		.loc 13 343 10 is_stmt 1 view .LVU120
 578              	.LBB1096:
 579              		.loc 13 343 55 is_stmt 0 view .LVU121
 580 00b6 94F83030 		ldrb	r3, [r4, #48]	@ zero_extendqisi2
 581              	.LBE1096:
 582              	.LBE1095:
 583              	.LBB1099:
 584              	.LBB1100:
  66:../../libDaisy//src/dev/mpr121.h ****     }
 585              		.loc 13 66 40 view .LVU122
 586 00ba 07AA     		add	r2, sp, #28
 587 00bc 94F82C10 		ldrb	r1, [r4, #44]	@ zero_extendqisi2
 588              	.LBE1100:
 589              	.LBE1099:
 590              	.LBB1103:
 591              	.LBB1097:
 592              		.loc 13 343 55 view .LVU123
 593 00c0 4045     		cmp	r0, r8
 594 00c2 18BF     		it	ne
 595 00c4 43F00103 		orrne	r3, r3, #1
 596              	.LBE1097:
 597              	.LBE1103:
 598              	.LBB1104:
 599              	.LBB1101:
  66:../../libDaisy//src/dev/mpr121.h ****     }
 600              		.loc 13 66 40 view .LVU124
 601 00c8 0095     		str	r5, [sp]
 602 00ca 04F11800 		add	r0, r4, #24
 603              	.LVL17:
  66:../../libDaisy//src/dev/mpr121.h ****     }
 604              		.loc 13 66 40 view .LVU125
 605              	.LBE1101:
 606              	.LBE1104:
 607              	.LBB1105:
 608              	.LBB1098:
 609              		.loc 13 343 55 view .LVU126
 610 00ce 84F83030 		strb	r3, [r4, #48]
 611              	.LVL18:
 612              		.loc 13 343 55 view .LVU127
 613              	.LBE1098:
 614              	.LBE1105:
 615              	.LBB1106:
 616              	.LBI1099:
  63:../../libDaisy//src/dev/mpr121.h ****     {
 617              		.loc 13 63 10 is_stmt 1 view .LVU128
 618              	.LBB1102:
  65:../../libDaisy//src/dev/mpr121.h ****                != i2c_.TransmitBlocking(config_.dev_addr, data, size, 10);
 619              		.loc 13 65 9 view .LVU129
  66:../../libDaisy//src/dev/mpr121.h ****     }
 620              		.loc 13 66 40 is_stmt 0 view .LVU130
 621 00d2 0223     		movs	r3, #2
 622 00d4 FFF7FEFF 		bl	_ZN5daisy9I2CHandle16TransmitBlockingEtPhtm
 623              	.LVL19:
  66:../../libDaisy//src/dev/mpr121.h ****     }
 624              		.loc 13 66 40 view .LVU131
ARM GAS  /var/folders/hl/qgbwny5j0fd895c2c41bk3tw0000gp/T//cckqgw4a.s 			page 36


 625              	.LBE1102:
 626              	.LBE1106:
 627              	.LBB1107:
 628              	.LBI1107:
 629              		.loc 13 343 10 is_stmt 1 view .LVU132
 630              	.LBB1108:
 631              		.loc 13 343 55 is_stmt 0 view .LVU133
 632 00d8 94F83030 		ldrb	r3, [r4, #48]	@ zero_extendqisi2
 633              	.LBE1108:
 634              	.LBE1107:
 635              	.LBB1111:
 636              	.LBB1112:
  66:../../libDaisy//src/dev/mpr121.h ****     }
 637              		.loc 13 66 40 view .LVU134
 638 00dc 07AA     		add	r2, sp, #28
 639 00de 94F82C10 		ldrb	r1, [r4, #44]	@ zero_extendqisi2
 640              	.LBE1112:
 641              	.LBE1111:
 642              	.LBB1115:
 643              	.LBB1109:
 644              		.loc 13 343 55 view .LVU135
 645 00e2 4045     		cmp	r0, r8
 646 00e4 18BF     		it	ne
 647 00e6 43F00103 		orrne	r3, r3, #1
 648              	.LBE1109:
 649              	.LBE1115:
 650              	.LBB1116:
 651              	.LBB1113:
  66:../../libDaisy//src/dev/mpr121.h ****     }
 652              		.loc 13 66 40 view .LVU136
 653 00ea 0095     		str	r5, [sp]
 654 00ec 04F11800 		add	r0, r4, #24
 655              	.LVL20:
  66:../../libDaisy//src/dev/mpr121.h ****     }
 656              		.loc 13 66 40 view .LVU137
 657              	.LBE1113:
 658              	.LBE1116:
 659              	.LBB1117:
 660              	.LBB1110:
 661              		.loc 13 343 55 view .LVU138
 662 00f0 84F83030 		strb	r3, [r4, #48]
 663              	.LVL21:
 664              		.loc 13 343 55 view .LVU139
 665              	.LBE1110:
 666              	.LBE1117:
 281:../../libDaisy//src/dev/mpr121.h ****         buff[1] = value;
 667              		.loc 13 281 17 view .LVU140
 668 00f4 8023     		movs	r3, #128
 669 00f6 8DF81C30 		strb	r3, [sp, #28]
 282:../../libDaisy//src/dev/mpr121.h ****         SetTransportErr(transport_.Write(buff, 2));
 670              		.loc 13 282 17 view .LVU141
 671 00fa 6323     		movs	r3, #99
 672 00fc 8DF81D30 		strb	r3, [sp, #29]
 673              	.LVL22:
 674              	.LBB1118:
 675              	.LBI1111:
  63:../../libDaisy//src/dev/mpr121.h ****     {
ARM GAS  /var/folders/hl/qgbwny5j0fd895c2c41bk3tw0000gp/T//cckqgw4a.s 			page 37


 676              		.loc 13 63 10 is_stmt 1 view .LVU142
 677              	.LBB1114:
  65:../../libDaisy//src/dev/mpr121.h ****                != i2c_.TransmitBlocking(config_.dev_addr, data, size, 10);
 678              		.loc 13 65 9 view .LVU143
  66:../../libDaisy//src/dev/mpr121.h ****     }
 679              		.loc 13 66 40 is_stmt 0 view .LVU144
 680 0100 0223     		movs	r3, #2
 681 0102 FFF7FEFF 		bl	_ZN5daisy9I2CHandle16TransmitBlockingEtPhtm
 682              	.LVL23:
  66:../../libDaisy//src/dev/mpr121.h ****     }
 683              		.loc 13 66 40 view .LVU145
 684              	.LBE1114:
 685              	.LBE1118:
 686              	.LBB1119:
 687              	.LBI1119:
 688              		.loc 13 343 10 is_stmt 1 view .LVU146
 689              	.LBB1120:
 690              		.loc 13 343 55 is_stmt 0 view .LVU147
 691 0106 94F83030 		ldrb	r3, [r4, #48]	@ zero_extendqisi2
 692              	.LBE1120:
 693              	.LBE1119:
 694              	.LBB1123:
 695              	.LBB1124:
  66:../../libDaisy//src/dev/mpr121.h ****     }
 696              		.loc 13 66 40 view .LVU148
 697 010a 07AA     		add	r2, sp, #28
 698 010c 94F82C10 		ldrb	r1, [r4, #44]	@ zero_extendqisi2
 699              	.LBE1124:
 700              	.LBE1123:
 701              	.LBB1127:
 702              	.LBB1121:
 703              		.loc 13 343 55 view .LVU149
 704 0110 4045     		cmp	r0, r8
 705 0112 18BF     		it	ne
 706 0114 43F00103 		orrne	r3, r3, #1
 707              	.LBE1121:
 708              	.LBE1127:
 709              	.LBB1128:
 710              	.LBB1125:
  66:../../libDaisy//src/dev/mpr121.h ****     }
 711              		.loc 13 66 40 view .LVU150
 712 0118 0095     		str	r5, [sp]
 713 011a 04F11800 		add	r0, r4, #24
 714              	.LVL24:
  66:../../libDaisy//src/dev/mpr121.h ****     }
 715              		.loc 13 66 40 view .LVU151
 716              	.LBE1125:
 717              	.LBE1128:
 288:../../libDaisy//src/dev/mpr121.h ****             buff[1] = ecr_backup;
 718              		.loc 13 288 21 view .LVU152
 719 011e 8DF81C90 		strb	r9, [sp, #28]
 720              	.LBB1129:
 721              	.LBB1122:
 722              		.loc 13 343 55 view .LVU153
 723 0122 84F83030 		strb	r3, [r4, #48]
 724              	.LVL25:
 725              		.loc 13 343 55 view .LVU154
ARM GAS  /var/folders/hl/qgbwny5j0fd895c2c41bk3tw0000gp/T//cckqgw4a.s 			page 38


 726              	.LBE1122:
 727              	.LBE1129:
 289:../../libDaisy//src/dev/mpr121.h ****             SetTransportErr(transport_.Write(buff, 2));
 728              		.loc 13 289 21 view .LVU155
 729 0126 9DF80830 		ldrb	r3, [sp, #8]	@ zero_extendqisi2
 730 012a 8DF81D30 		strb	r3, [sp, #29]
 731              	.LVL26:
 732              	.LBB1130:
 733              	.LBI1123:
  63:../../libDaisy//src/dev/mpr121.h ****     {
 734              		.loc 13 63 10 is_stmt 1 view .LVU156
 735              	.LBB1126:
  65:../../libDaisy//src/dev/mpr121.h ****                != i2c_.TransmitBlocking(config_.dev_addr, data, size, 10);
 736              		.loc 13 65 9 view .LVU157
  66:../../libDaisy//src/dev/mpr121.h ****     }
 737              		.loc 13 66 40 is_stmt 0 view .LVU158
 738 012e 0223     		movs	r3, #2
 739 0130 FFF7FEFF 		bl	_ZN5daisy9I2CHandle16TransmitBlockingEtPhtm
 740              	.LVL27:
  66:../../libDaisy//src/dev/mpr121.h ****     }
 741              		.loc 13 66 40 view .LVU159
 742              	.LBE1126:
 743              	.LBE1130:
 744              	.LBB1131:
 745              	.LBI1131:
 746              		.loc 13 343 10 is_stmt 1 view .LVU160
 747              	.LBB1132:
 748              		.loc 13 343 55 is_stmt 0 view .LVU161
 749 0134 94F83030 		ldrb	r3, [r4, #48]	@ zero_extendqisi2
 750 0138 4045     		cmp	r0, r8
 751 013a 18BF     		it	ne
 752 013c 43F00103 		orrne	r3, r3, #1
 753              	.LBE1132:
 754              	.LBE1131:
 755              	.LBE1137:
 756              	.LBE1150:
 123:../../libDaisy//src/dev/mpr121.h **** 
 757              		.loc 13 123 22 view .LVU162
 758 0140 3046     		mov	r0, r6
 759              	.LVL28:
 760              	.LBB1151:
 761              	.LBB1138:
 762              	.LBB1134:
 763              	.LBB1133:
 764              		.loc 13 343 55 view .LVU163
 765 0142 84F83030 		strb	r3, [r4, #48]
 766              	.LVL29:
 767              		.loc 13 343 55 view .LVU164
 768              	.LBE1133:
 769              	.LBE1134:
 770              	.LBE1138:
 771              	.LBE1151:
 123:../../libDaisy//src/dev/mpr121.h **** 
 772              		.loc 13 123 22 view .LVU165
 773 0146 FFF7FEFF 		bl	_ZN5daisy6System5DelayEm
 774              	.LVL30:
 775              	.LBB1152:
ARM GAS  /var/folders/hl/qgbwny5j0fd895c2c41bk3tw0000gp/T//cckqgw4a.s 			page 39


 776              	.LBI1152:
 257:../../libDaisy//src/dev/mpr121.h ****     {
 777              		.loc 13 257 10 is_stmt 1 view .LVU166
 778              	.LBB1153:
 779              	.LBB1154:
 780              	.LBB1155:
  66:../../libDaisy//src/dev/mpr121.h ****     }
 781              		.loc 13 66 40 is_stmt 0 view .LVU167
 782 014a 3346     		mov	r3, r6
 783 014c 07AA     		add	r2, sp, #28
 784 014e 94F82C10 		ldrb	r1, [r4, #44]	@ zero_extendqisi2
 785 0152 04F11800 		add	r0, r4, #24
 786 0156 0095     		str	r5, [sp]
 787              	.LBE1155:
 788              	.LBE1154:
 264:../../libDaisy//src/dev/mpr121.h **** 
 789              		.loc 13 264 17 view .LVU168
 790 0158 8DF81C90 		strb	r9, [sp, #28]
 791              	.LVL31:
 792              	.LBB1158:
 793              	.LBI1154:
  63:../../libDaisy//src/dev/mpr121.h ****     {
 794              		.loc 13 63 10 is_stmt 1 view .LVU169
 795              	.LBB1156:
  65:../../libDaisy//src/dev/mpr121.h ****                != i2c_.TransmitBlocking(config_.dev_addr, data, size, 10);
 796              		.loc 13 65 9 view .LVU170
 797              	.LBE1156:
 798              	.LBE1158:
 264:../../libDaisy//src/dev/mpr121.h **** 
 799              		.loc 13 264 17 is_stmt 0 view .LVU171
 800 015c 8DF81D80 		strb	r8, [sp, #29]
 801              	.LBB1159:
 802              	.LBB1157:
  66:../../libDaisy//src/dev/mpr121.h ****     }
 803              		.loc 13 66 40 view .LVU172
 804 0160 FFF7FEFF 		bl	_ZN5daisy9I2CHandle16TransmitBlockingEtPhtm
 805              	.LVL32:
  66:../../libDaisy//src/dev/mpr121.h ****     }
 806              		.loc 13 66 40 view .LVU173
 807              	.LBE1157:
 808              	.LBE1159:
 809              	.LBB1160:
 810              	.LBI1160:
 811              		.loc 13 343 10 is_stmt 1 view .LVU174
 812              	.LBB1161:
 813              		.loc 13 343 55 is_stmt 0 view .LVU175
 814 0164 94F83020 		ldrb	r2, [r4, #48]	@ zero_extendqisi2
 815              	.LBE1161:
 816              	.LBE1160:
 817              	.LBB1164:
 818              	.LBB1165:
  73:../../libDaisy//src/dev/mpr121.h ****     }
 819              		.loc 13 73 39 view .LVU176
 820 0168 3346     		mov	r3, r6
 821 016a 94F82C10 		ldrb	r1, [r4, #44]	@ zero_extendqisi2
 822              	.LBE1165:
 823              	.LBE1164:
ARM GAS  /var/folders/hl/qgbwny5j0fd895c2c41bk3tw0000gp/T//cckqgw4a.s 			page 40


 824              	.LBB1168:
 825              	.LBB1162:
 826              		.loc 13 343 55 view .LVU177
 827 016e 4045     		cmp	r0, r8
 828 0170 18BF     		it	ne
 829 0172 42F00102 		orrne	r2, r2, #1
 830              	.LBE1162:
 831              	.LBE1168:
 832              	.LBB1169:
 833              	.LBB1166:
  73:../../libDaisy//src/dev/mpr121.h ****     }
 834              		.loc 13 73 39 view .LVU178
 835 0176 0095     		str	r5, [sp]
 836 0178 04F11800 		add	r0, r4, #24
 837              	.LVL33:
  73:../../libDaisy//src/dev/mpr121.h ****     }
 838              		.loc 13 73 39 view .LVU179
 839              	.LBE1166:
 840              	.LBE1169:
 841              	.LBB1170:
 842              	.LBB1163:
 843              		.loc 13 343 55 view .LVU180
 844 017c 84F83020 		strb	r2, [r4, #48]
 845              	.LVL34:
 846              		.loc 13 343 55 view .LVU181
 847              	.LBE1163:
 848              	.LBE1170:
 849              	.LBB1171:
 850              	.LBI1164:
  70:../../libDaisy//src/dev/mpr121.h ****     {
 851              		.loc 13 70 10 is_stmt 1 view .LVU182
 852              	.LBB1167:
  72:../../libDaisy//src/dev/mpr121.h ****                != i2c_.ReceiveBlocking(config_.dev_addr, data, size, 10);
 853              		.loc 13 72 9 view .LVU183
  73:../../libDaisy//src/dev/mpr121.h ****     }
 854              		.loc 13 73 39 is_stmt 0 view .LVU184
 855 0180 02AA     		add	r2, sp, #8
 856              	.LVL35:
  73:../../libDaisy//src/dev/mpr121.h ****     }
 857              		.loc 13 73 39 view .LVU185
 858 0182 FFF7FEFF 		bl	_ZN5daisy9I2CHandle15ReceiveBlockingEtPhtm
 859              	.LVL36:
  73:../../libDaisy//src/dev/mpr121.h ****     }
 860              		.loc 13 73 39 view .LVU186
 861              	.LBE1167:
 862              	.LBE1171:
 863              	.LBB1172:
 864              	.LBI1172:
 865              		.loc 13 343 10 is_stmt 1 view .LVU187
 866              	.LBB1173:
 867              		.loc 13 343 55 is_stmt 0 view .LVU188
 868 0186 94F83030 		ldrb	r3, [r4, #48]	@ zero_extendqisi2
 869              	.LBE1173:
 870              	.LBE1172:
 871              	.LBB1176:
 872              	.LBB1177:
  66:../../libDaisy//src/dev/mpr121.h ****     }
ARM GAS  /var/folders/hl/qgbwny5j0fd895c2c41bk3tw0000gp/T//cckqgw4a.s 			page 41


 873              		.loc 13 66 40 view .LVU189
 874 018a 07AA     		add	r2, sp, #28
 875 018c 94F82C10 		ldrb	r1, [r4, #44]	@ zero_extendqisi2
 876              	.LBE1177:
 877              	.LBE1176:
 878              	.LBB1181:
 879              	.LBB1174:
 880              		.loc 13 343 55 view .LVU190
 881 0190 4045     		cmp	r0, r8
 882 0192 18BF     		it	ne
 883 0194 43F00103 		orrne	r3, r3, #1
 884              	.LBE1174:
 885              	.LBE1181:
 886              	.LBB1182:
 887              	.LBB1178:
  66:../../libDaisy//src/dev/mpr121.h ****     }
 888              		.loc 13 66 40 view .LVU191
 889 0198 0095     		str	r5, [sp]
 890 019a 04F11800 		add	r0, r4, #24
 891              	.LVL37:
  66:../../libDaisy//src/dev/mpr121.h ****     }
 892              		.loc 13 66 40 view .LVU192
 893              	.LBE1178:
 894              	.LBE1182:
 281:../../libDaisy//src/dev/mpr121.h ****         buff[1] = value;
 895              		.loc 13 281 17 view .LVU193
 896 019e 8DF81C90 		strb	r9, [sp, #28]
 897              	.LBB1183:
 898              	.LBB1175:
 899              		.loc 13 343 55 view .LVU194
 900 01a2 84F83030 		strb	r3, [r4, #48]
 901              	.LVL38:
 902              		.loc 13 343 55 view .LVU195
 903              	.LBE1175:
 904              	.LBE1183:
 905              	.LBB1184:
 906              	.LBI1176:
  63:../../libDaisy//src/dev/mpr121.h ****     {
 907              		.loc 13 63 10 is_stmt 1 view .LVU196
 908              	.LBB1179:
  65:../../libDaisy//src/dev/mpr121.h ****                != i2c_.TransmitBlocking(config_.dev_addr, data, size, 10);
 909              		.loc 13 65 9 view .LVU197
  66:../../libDaisy//src/dev/mpr121.h ****     }
 910              		.loc 13 66 40 is_stmt 0 view .LVU198
 911 01a6 0223     		movs	r3, #2
 912              	.LBE1179:
 913              	.LBE1184:
 282:../../libDaisy//src/dev/mpr121.h ****         SetTransportErr(transport_.Write(buff, 2));
 914              		.loc 13 282 17 view .LVU199
 915 01a8 8DF81D80 		strb	r8, [sp, #29]
 916              	.LBB1185:
 917              	.LBB1180:
  66:../../libDaisy//src/dev/mpr121.h ****     }
 918              		.loc 13 66 40 view .LVU200
 919 01ac FFF7FEFF 		bl	_ZN5daisy9I2CHandle16TransmitBlockingEtPhtm
 920              	.LVL39:
  66:../../libDaisy//src/dev/mpr121.h ****     }
ARM GAS  /var/folders/hl/qgbwny5j0fd895c2c41bk3tw0000gp/T//cckqgw4a.s 			page 42


 921              		.loc 13 66 40 view .LVU201
 922              	.LBE1180:
 923              	.LBE1185:
 924              	.LBB1186:
 925              	.LBI1186:
 926              		.loc 13 343 10 is_stmt 1 view .LVU202
 927              	.LBB1187:
 928              		.loc 13 343 55 is_stmt 0 view .LVU203
 929 01b0 94F83030 		ldrb	r3, [r4, #48]	@ zero_extendqisi2
 930              	.LBE1187:
 931              	.LBE1186:
 932              	.LBE1153:
 933              	.LBE1152:
 133:../../libDaisy//src/dev/mpr121.h ****         WriteRegister(MPR121_MHDR, 0x01);
 934              		.loc 13 133 22 view .LVU204
 935 01b4 94F814A0 		ldrb	r10, [r4, #20]	@ zero_extendqisi2
 936              	.LBB1194:
 937              	.LBB1192:
 938              	.LBB1190:
 939              	.LBB1188:
 940              		.loc 13 343 55 view .LVU205
 941 01b8 4045     		cmp	r0, r8
 942 01ba 18BF     		it	ne
 943 01bc 43F00103 		orrne	r3, r3, #1
 944              	.LBE1188:
 945              	.LBE1190:
 946              	.LBE1192:
 947              	.LBE1194:
 133:../../libDaisy//src/dev/mpr121.h ****         WriteRegister(MPR121_MHDR, 0x01);
 948              		.loc 13 133 22 view .LVU206
 949 01c0 94F81590 		ldrb	r9, [r4, #21]	@ zero_extendqisi2
 950              	.LBB1195:
 951              	.LBB1193:
 952              	.LBB1191:
 953              	.LBB1189:
 954              		.loc 13 343 55 view .LVU207
 955 01c4 84F83030 		strb	r3, [r4, #48]
 956              	.LVL40:
 957              		.loc 13 343 55 view .LVU208
 958              	.LBE1189:
 959              	.LBE1191:
 960              	.LBE1193:
 961              	.LBE1195:
 962              	.LBB1196:
 963              	.LBI1196:
 177:../../libDaisy//src/dev/mpr121.h ****     {
 964              		.loc 13 177 10 is_stmt 1 view .LVU209
 965              	.LBB1197:
 180:../../libDaisy//src/dev/mpr121.h ****         {
 966              		.loc 13 180 30 view .LVU210
 967              	.L10:
 968              	.LBB1198:
 969              	.LBI1198:
 257:../../libDaisy//src/dev/mpr121.h ****     {
 970              		.loc 13 257 10 view .LVU211
 971              	.LBB1199:
 972              	.LBB1200:
ARM GAS  /var/folders/hl/qgbwny5j0fd895c2c41bk3tw0000gp/T//cckqgw4a.s 			page 43


 973              	.LBB1201:
  66:../../libDaisy//src/dev/mpr121.h ****     }
 974              		.loc 13 66 40 is_stmt 0 view .LVU212
 975 01c8 0A25     		movs	r5, #10
 976              	.LBE1201:
 977              	.LBE1200:
 264:../../libDaisy//src/dev/mpr121.h **** 
 978              		.loc 13 264 17 view .LVU213
 979 01ca 4FF00008 		mov	r8, #0
 980 01ce 5E26     		movs	r6, #94
 981              	.LBB1204:
 982              	.LBB1202:
  66:../../libDaisy//src/dev/mpr121.h ****     }
 983              		.loc 13 66 40 view .LVU214
 984 01d0 0123     		movs	r3, #1
 985 01d2 07AA     		add	r2, sp, #28
 986 01d4 94F82C10 		ldrb	r1, [r4, #44]	@ zero_extendqisi2
 987 01d8 5648     		ldr	r0, .L13+8
 988 01da 0095     		str	r5, [sp]
 989              	.LBE1202:
 990              	.LBE1204:
 264:../../libDaisy//src/dev/mpr121.h **** 
 991              		.loc 13 264 17 view .LVU215
 992 01dc 8DF81D80 		strb	r8, [sp, #29]
 993 01e0 8DF81C60 		strb	r6, [sp, #28]
 994              	.LVL41:
 995              	.LBB1205:
 996              	.LBI1200:
  63:../../libDaisy//src/dev/mpr121.h ****     {
 997              		.loc 13 63 10 is_stmt 1 view .LVU216
 998              	.LBB1203:
  65:../../libDaisy//src/dev/mpr121.h ****                != i2c_.TransmitBlocking(config_.dev_addr, data, size, 10);
 999              		.loc 13 65 9 view .LVU217
  66:../../libDaisy//src/dev/mpr121.h ****     }
 1000              		.loc 13 66 40 is_stmt 0 view .LVU218
 1001 01e4 FFF7FEFF 		bl	_ZN5daisy9I2CHandle16TransmitBlockingEtPhtm
 1002              	.LVL42:
  66:../../libDaisy//src/dev/mpr121.h ****     }
 1003              		.loc 13 66 40 view .LVU219
 1004              	.LBE1203:
 1005              	.LBE1205:
 1006              	.LBB1206:
 1007              	.LBI1206:
 1008              		.loc 13 343 10 is_stmt 1 view .LVU220
 1009              	.LBB1207:
 1010              		.loc 13 343 55 is_stmt 0 view .LVU221
 1011 01e8 94F83010 		ldrb	r1, [r4, #48]	@ zero_extendqisi2
 1012              	.LBE1207:
 1013              	.LBE1206:
 1014              	.LBB1210:
 1015              	.LBB1211:
  73:../../libDaisy//src/dev/mpr121.h ****     }
 1016              		.loc 13 73 39 view .LVU222
 1017 01ec 0123     		movs	r3, #1
 1018 01ee 02AA     		add	r2, sp, #8
 1019 01f0 0095     		str	r5, [sp]
 1020              	.LBE1211:
ARM GAS  /var/folders/hl/qgbwny5j0fd895c2c41bk3tw0000gp/T//cckqgw4a.s 			page 44


 1021              	.LBE1210:
 1022              	.LBB1214:
 1023              	.LBB1208:
 1024              		.loc 13 343 55 view .LVU223
 1025 01f2 4045     		cmp	r0, r8
 1026 01f4 18BF     		it	ne
 1027 01f6 41F00101 		orrne	r1, r1, #1
 1028              	.LBE1208:
 1029              	.LBE1214:
 1030              	.LBB1215:
 1031              	.LBB1212:
  73:../../libDaisy//src/dev/mpr121.h ****     }
 1032              		.loc 13 73 39 view .LVU224
 1033 01fa 4E48     		ldr	r0, .L13+8
 1034              	.LVL43:
  73:../../libDaisy//src/dev/mpr121.h ****     }
 1035              		.loc 13 73 39 view .LVU225
 1036              	.LBE1212:
 1037              	.LBE1215:
 1038              	.LBB1216:
 1039              	.LBB1209:
 1040              		.loc 13 343 55 view .LVU226
 1041 01fc 84F83010 		strb	r1, [r4, #48]
 1042              	.LVL44:
 1043              		.loc 13 343 55 view .LVU227
 1044              	.LBE1209:
 1045              	.LBE1216:
 1046              	.LBB1217:
 1047              	.LBI1210:
  70:../../libDaisy//src/dev/mpr121.h ****     {
 1048              		.loc 13 70 10 is_stmt 1 view .LVU228
 1049              	.LBB1213:
  72:../../libDaisy//src/dev/mpr121.h ****                != i2c_.ReceiveBlocking(config_.dev_addr, data, size, 10);
 1050              		.loc 13 72 9 view .LVU229
  73:../../libDaisy//src/dev/mpr121.h ****     }
 1051              		.loc 13 73 39 is_stmt 0 view .LVU230
 1052 0200 94F82C10 		ldrb	r1, [r4, #44]	@ zero_extendqisi2
 1053 0204 FFF7FEFF 		bl	_ZN5daisy9I2CHandle15ReceiveBlockingEtPhtm
 1054              	.LVL45:
  73:../../libDaisy//src/dev/mpr121.h ****     }
 1055              		.loc 13 73 39 view .LVU231
 1056              	.LBE1213:
 1057              	.LBE1217:
 1058              	.LBB1218:
 1059              	.LBI1218:
 1060              		.loc 13 343 10 is_stmt 1 view .LVU232
 1061              	.LBB1219:
 1062              		.loc 13 343 55 is_stmt 0 view .LVU233
 1063 0208 94F83010 		ldrb	r1, [r4, #48]	@ zero_extendqisi2
 1064              	.LBE1219:
 1065              	.LBE1218:
 1066              	.LBB1222:
 1067              	.LBB1223:
  66:../../libDaisy//src/dev/mpr121.h ****     }
 1068              		.loc 13 66 40 view .LVU234
 1069 020c 0223     		movs	r3, #2
 1070 020e 07AA     		add	r2, sp, #28
ARM GAS  /var/folders/hl/qgbwny5j0fd895c2c41bk3tw0000gp/T//cckqgw4a.s 			page 45


 1071              	.LBE1223:
 1072              	.LBE1222:
 1073              	.LBB1226:
 1074              	.LBB1220:
 1075              		.loc 13 343 55 view .LVU235
 1076 0210 4045     		cmp	r0, r8
 1077 0212 18BF     		it	ne
 1078 0214 41F00101 		orrne	r1, r1, #1
 1079              	.LBE1220:
 1080              	.LBE1226:
 1081              	.LBB1227:
 1082              	.LBB1224:
  66:../../libDaisy//src/dev/mpr121.h ****     }
 1083              		.loc 13 66 40 view .LVU236
 1084 0218 0095     		str	r5, [sp]
 1085 021a 4648     		ldr	r0, .L13+8
 1086              	.LVL46:
  66:../../libDaisy//src/dev/mpr121.h ****     }
 1087              		.loc 13 66 40 view .LVU237
 1088              	.LBE1224:
 1089              	.LBE1227:
 1090              	.LBB1228:
 1091              	.LBB1221:
 1092              		.loc 13 343 55 view .LVU238
 1093 021c 84F83010 		strb	r1, [r4, #48]
 1094              	.LVL47:
 1095              		.loc 13 343 55 view .LVU239
 1096              	.LBE1221:
 1097              	.LBE1228:
 1098              	.LBB1229:
 1099              	.LBI1222:
  63:../../libDaisy//src/dev/mpr121.h ****     {
 1100              		.loc 13 63 10 is_stmt 1 view .LVU240
 1101              	.LBB1225:
  65:../../libDaisy//src/dev/mpr121.h ****                != i2c_.TransmitBlocking(config_.dev_addr, data, size, 10);
 1102              		.loc 13 65 9 view .LVU241
  66:../../libDaisy//src/dev/mpr121.h ****     }
 1103              		.loc 13 66 40 is_stmt 0 view .LVU242
 1104 0220 94F82C10 		ldrb	r1, [r4, #44]	@ zero_extendqisi2
 1105 0224 FFF7FEFF 		bl	_ZN5daisy9I2CHandle16TransmitBlockingEtPhtm
 1106              	.LVL48:
  66:../../libDaisy//src/dev/mpr121.h ****     }
 1107              		.loc 13 66 40 view .LVU243
 1108              	.LBE1225:
 1109              	.LBE1229:
 1110              	.LBB1230:
 1111              	.LBI1230:
 1112              		.loc 13 343 10 is_stmt 1 view .LVU244
 1113              	.LBB1231:
 1114              		.loc 13 343 55 is_stmt 0 view .LVU245
 1115 0228 94F83010 		ldrb	r1, [r4, #48]	@ zero_extendqisi2
 1116              	.LBE1231:
 1117              	.LBE1230:
 1118              	.LBB1234:
 1119              	.LBB1235:
  66:../../libDaisy//src/dev/mpr121.h ****     }
 1120              		.loc 13 66 40 view .LVU246
ARM GAS  /var/folders/hl/qgbwny5j0fd895c2c41bk3tw0000gp/T//cckqgw4a.s 			page 46


 1121 022c 0223     		movs	r3, #2
 1122 022e 07AA     		add	r2, sp, #28
 1123              	.LBE1235:
 1124              	.LBE1234:
 1125              	.LBB1239:
 1126              	.LBB1232:
 1127              		.loc 13 343 55 view .LVU247
 1128 0230 4045     		cmp	r0, r8
 1129 0232 18BF     		it	ne
 1130 0234 41F00101 		orrne	r1, r1, #1
 1131              	.LBE1232:
 1132              	.LBE1239:
 1133              	.LBB1240:
 1134              	.LBB1236:
  66:../../libDaisy//src/dev/mpr121.h ****     }
 1135              		.loc 13 66 40 view .LVU248
 1136 0238 0095     		str	r5, [sp]
 1137 023a 3E48     		ldr	r0, .L13+8
 1138              	.LVL49:
  66:../../libDaisy//src/dev/mpr121.h ****     }
 1139              		.loc 13 66 40 view .LVU249
 1140              	.LBE1236:
 1141              	.LBE1240:
 1142              	.LBB1241:
 1143              	.LBB1233:
 1144              		.loc 13 343 55 view .LVU250
 1145 023c 84F83010 		strb	r1, [r4, #48]
 1146              	.LVL50:
 1147              		.loc 13 343 55 view .LVU251
 1148              	.LBE1233:
 1149              	.LBE1241:
 1150              	.LBB1242:
 1151              	.LBI1234:
  63:../../libDaisy//src/dev/mpr121.h ****     {
 1152              		.loc 13 63 10 is_stmt 1 view .LVU252
 1153              	.LBB1237:
  65:../../libDaisy//src/dev/mpr121.h ****                != i2c_.TransmitBlocking(config_.dev_addr, data, size, 10);
 1154              		.loc 13 65 9 view .LVU253
  66:../../libDaisy//src/dev/mpr121.h ****     }
 1155              		.loc 13 66 40 is_stmt 0 view .LVU254
 1156 0240 94F82C10 		ldrb	r1, [r4, #44]	@ zero_extendqisi2
 1157              	.LBE1237:
 1158              	.LBE1242:
 281:../../libDaisy//src/dev/mpr121.h ****         buff[1] = value;
 1159              		.loc 13 281 17 view .LVU255
 1160 0244 8DF81C70 		strb	r7, [sp, #28]
 282:../../libDaisy//src/dev/mpr121.h ****         SetTransportErr(transport_.Write(buff, 2));
 1161              		.loc 13 282 17 view .LVU256
 1162 0248 8DF81DA0 		strb	r10, [sp, #29]
 1163              	.LBB1243:
 1164              	.LBB1238:
  66:../../libDaisy//src/dev/mpr121.h ****     }
 1165              		.loc 13 66 40 view .LVU257
 1166 024c FFF7FEFF 		bl	_ZN5daisy9I2CHandle16TransmitBlockingEtPhtm
 1167              	.LVL51:
  66:../../libDaisy//src/dev/mpr121.h ****     }
 1168              		.loc 13 66 40 view .LVU258
ARM GAS  /var/folders/hl/qgbwny5j0fd895c2c41bk3tw0000gp/T//cckqgw4a.s 			page 47


 1169              	.LBE1238:
 1170              	.LBE1243:
 1171              	.LBB1244:
 1172              	.LBI1244:
 1173              		.loc 13 343 10 is_stmt 1 view .LVU259
 1174              	.LBB1245:
 1175              		.loc 13 343 55 is_stmt 0 view .LVU260
 1176 0250 94F830C0 		ldrb	ip, [r4, #48]	@ zero_extendqisi2
 1177              	.LBE1245:
 1178              	.LBE1244:
 1179              	.LBB1248:
 1180              	.LBB1249:
  66:../../libDaisy//src/dev/mpr121.h ****     }
 1181              		.loc 13 66 40 view .LVU261
 1182 0254 0223     		movs	r3, #2
 1183              	.LBE1249:
 1184              	.LBE1248:
 289:../../libDaisy//src/dev/mpr121.h ****             SetTransportErr(transport_.Write(buff, 2));
 1185              		.loc 13 289 21 view .LVU262
 1186 0256 9DF80820 		ldrb	r2, [sp, #8]	@ zero_extendqisi2
 1187              	.LBB1254:
 1188              	.LBB1246:
 1189              		.loc 13 343 55 view .LVU263
 1190 025a 4045     		cmp	r0, r8
 1191 025c 18BF     		it	ne
 1192 025e 4CF0010C 		orrne	ip, ip, #1
 1193              	.LBE1246:
 1194              	.LBE1254:
 1195              	.LBB1255:
 1196              	.LBB1250:
  66:../../libDaisy//src/dev/mpr121.h ****     }
 1197              		.loc 13 66 40 view .LVU264
 1198 0262 94F82C10 		ldrb	r1, [r4, #44]	@ zero_extendqisi2
 1199              	.LBE1250:
 1200              	.LBE1255:
 289:../../libDaisy//src/dev/mpr121.h ****             SetTransportErr(transport_.Write(buff, 2));
 1201              		.loc 13 289 21 view .LVU265
 1202 0266 8DF81D20 		strb	r2, [sp, #29]
 1203              	.LBB1256:
 1204              	.LBB1251:
  66:../../libDaisy//src/dev/mpr121.h ****     }
 1205              		.loc 13 66 40 view .LVU266
 1206 026a 07AA     		add	r2, sp, #28
 1207 026c 3148     		ldr	r0, .L13+8
 1208              	.LVL52:
  66:../../libDaisy//src/dev/mpr121.h ****     }
 1209              		.loc 13 66 40 view .LVU267
 1210 026e 0095     		str	r5, [sp]
 1211              	.LBE1251:
 1212              	.LBE1256:
 1213              	.LBB1257:
 1214              	.LBB1247:
 1215              		.loc 13 343 55 view .LVU268
 1216 0270 84F830C0 		strb	ip, [r4, #48]
 1217              	.LVL53:
 1218              		.loc 13 343 55 view .LVU269
 1219              	.LBE1247:
ARM GAS  /var/folders/hl/qgbwny5j0fd895c2c41bk3tw0000gp/T//cckqgw4a.s 			page 48


 1220              	.LBE1257:
 1221              	.LBB1258:
 1222              	.LBI1248:
  63:../../libDaisy//src/dev/mpr121.h ****     {
 1223              		.loc 13 63 10 is_stmt 1 view .LVU270
 1224              	.LBB1252:
  65:../../libDaisy//src/dev/mpr121.h ****                != i2c_.TransmitBlocking(config_.dev_addr, data, size, 10);
 1225              		.loc 13 65 9 view .LVU271
 1226              	.LBE1252:
 1227              	.LBE1258:
 288:../../libDaisy//src/dev/mpr121.h ****             buff[1] = ecr_backup;
 1228              		.loc 13 288 21 is_stmt 0 view .LVU272
 1229 0274 8DF81C60 		strb	r6, [sp, #28]
 1230              	.LBB1259:
 1231              	.LBB1253:
  66:../../libDaisy//src/dev/mpr121.h ****     }
 1232              		.loc 13 66 40 view .LVU273
 1233 0278 FFF7FEFF 		bl	_ZN5daisy9I2CHandle16TransmitBlockingEtPhtm
 1234              	.LVL54:
  66:../../libDaisy//src/dev/mpr121.h ****     }
 1235              		.loc 13 66 40 view .LVU274
 1236              	.LBE1253:
 1237              	.LBE1259:
 1238              	.LBB1260:
 1239              	.LBI1260:
 1240              		.loc 13 343 10 is_stmt 1 view .LVU275
 1241              	.LBB1261:
 1242              		.loc 13 343 55 is_stmt 0 view .LVU276
 1243 027c 94F83010 		ldrb	r1, [r4, #48]	@ zero_extendqisi2
 1244              	.LBE1261:
 1245              	.LBE1260:
 1246              	.LBE1199:
 1247              	.LBE1198:
 1248              	.LBB1268:
 1249              	.LBB1269:
 1250              	.LBB1270:
 1251              	.LBB1271:
  66:../../libDaisy//src/dev/mpr121.h ****     }
 1252              		.loc 13 66 40 view .LVU277
 1253 0280 0123     		movs	r3, #1
 1254 0282 07AA     		add	r2, sp, #28
 1255 0284 0095     		str	r5, [sp]
 1256              	.LBE1271:
 1257              	.LBE1270:
 1258              	.LBE1269:
 1259              	.LBE1268:
 1260              	.LBB1341:
 1261              	.LBB1266:
 1262              	.LBB1264:
 1263              	.LBB1262:
 1264              		.loc 13 343 55 view .LVU278
 1265 0286 4045     		cmp	r0, r8
 1266 0288 18BF     		it	ne
 1267 028a 41F00101 		orrne	r1, r1, #1
 1268              	.LBE1262:
 1269              	.LBE1264:
 1270              	.LBE1266:
ARM GAS  /var/folders/hl/qgbwny5j0fd895c2c41bk3tw0000gp/T//cckqgw4a.s 			page 49


 1271              	.LBE1341:
 1272              	.LBB1342:
 1273              	.LBB1336:
 1274              	.LBB1275:
 1275              	.LBB1272:
  66:../../libDaisy//src/dev/mpr121.h ****     }
 1276              		.loc 13 66 40 view .LVU279
 1277 028e 2948     		ldr	r0, .L13+8
 1278              	.LVL55:
  66:../../libDaisy//src/dev/mpr121.h ****     }
 1279              		.loc 13 66 40 view .LVU280
 1280              	.LBE1272:
 1281              	.LBE1275:
 264:../../libDaisy//src/dev/mpr121.h **** 
 1282              		.loc 13 264 17 view .LVU281
 1283 0290 8DF81D80 		strb	r8, [sp, #29]
 1284              	.LBE1336:
 1285              	.LBE1342:
 1286              	.LBB1343:
 1287              	.LBB1267:
 1288              	.LBB1265:
 1289              	.LBB1263:
 1290              		.loc 13 343 55 view .LVU282
 1291 0294 84F83010 		strb	r1, [r4, #48]
 1292              	.LVL56:
 1293              		.loc 13 343 55 view .LVU283
 1294              	.LBE1263:
 1295              	.LBE1265:
 1296              	.LBE1267:
 1297              	.LBE1343:
 1298              	.LBB1344:
 1299              	.LBI1268:
 257:../../libDaisy//src/dev/mpr121.h ****     {
 1300              		.loc 13 257 10 is_stmt 1 view .LVU284
 1301              	.LBB1337:
 1302              	.LBB1276:
 1303              	.LBI1270:
  63:../../libDaisy//src/dev/mpr121.h ****     {
 1304              		.loc 13 63 10 view .LVU285
 1305              	.LBB1273:
  65:../../libDaisy//src/dev/mpr121.h ****                != i2c_.TransmitBlocking(config_.dev_addr, data, size, 10);
 1306              		.loc 13 65 9 view .LVU286
  66:../../libDaisy//src/dev/mpr121.h ****     }
 1307              		.loc 13 66 40 is_stmt 0 view .LVU287
 1308 0298 94F82C10 		ldrb	r1, [r4, #44]	@ zero_extendqisi2
 1309              	.LBE1273:
 1310              	.LBE1276:
 264:../../libDaisy//src/dev/mpr121.h **** 
 1311              		.loc 13 264 17 view .LVU288
 1312 029c 8DF81C60 		strb	r6, [sp, #28]
 1313              	.LBB1277:
 1314              	.LBB1274:
  66:../../libDaisy//src/dev/mpr121.h ****     }
 1315              		.loc 13 66 40 view .LVU289
 1316 02a0 FFF7FEFF 		bl	_ZN5daisy9I2CHandle16TransmitBlockingEtPhtm
 1317              	.LVL57:
  66:../../libDaisy//src/dev/mpr121.h ****     }
ARM GAS  /var/folders/hl/qgbwny5j0fd895c2c41bk3tw0000gp/T//cckqgw4a.s 			page 50


 1318              		.loc 13 66 40 view .LVU290
 1319              	.LBE1274:
 1320              	.LBE1277:
 1321              	.LBB1278:
 1322              	.LBI1278:
 1323              		.loc 13 343 10 is_stmt 1 view .LVU291
 1324              	.LBB1279:
 1325              		.loc 13 343 55 is_stmt 0 view .LVU292
 1326 02a4 94F83010 		ldrb	r1, [r4, #48]	@ zero_extendqisi2
 1327              	.LBE1279:
 1328              	.LBE1278:
 1329              	.LBB1282:
 1330              	.LBB1283:
  73:../../libDaisy//src/dev/mpr121.h ****     }
 1331              		.loc 13 73 39 view .LVU293
 1332 02a8 0123     		movs	r3, #1
 1333 02aa 02AA     		add	r2, sp, #8
 1334 02ac 0095     		str	r5, [sp]
 1335              	.LBE1283:
 1336              	.LBE1282:
 1337              	.LBB1286:
 1338              	.LBB1280:
 1339              		.loc 13 343 55 view .LVU294
 1340 02ae 4045     		cmp	r0, r8
 1341 02b0 18BF     		it	ne
 1342 02b2 41F00101 		orrne	r1, r1, #1
 1343              	.LBE1280:
 1344              	.LBE1286:
 1345              	.LBB1287:
 1346              	.LBB1284:
  73:../../libDaisy//src/dev/mpr121.h ****     }
 1347              		.loc 13 73 39 view .LVU295
 1348 02b6 1F48     		ldr	r0, .L13+8
 1349              	.LVL58:
  73:../../libDaisy//src/dev/mpr121.h ****     }
 1350              		.loc 13 73 39 view .LVU296
 1351              	.LBE1284:
 1352              	.LBE1287:
 1353              	.LBB1288:
 1354              	.LBB1281:
 1355              		.loc 13 343 55 view .LVU297
 1356 02b8 84F83010 		strb	r1, [r4, #48]
 1357              	.LVL59:
 1358              		.loc 13 343 55 view .LVU298
 1359              	.LBE1281:
 1360              	.LBE1288:
 1361              	.LBB1289:
 1362              	.LBI1282:
  70:../../libDaisy//src/dev/mpr121.h ****     {
 1363              		.loc 13 70 10 is_stmt 1 view .LVU299
 1364              	.LBB1285:
  72:../../libDaisy//src/dev/mpr121.h ****                != i2c_.ReceiveBlocking(config_.dev_addr, data, size, 10);
 1365              		.loc 13 72 9 view .LVU300
  73:../../libDaisy//src/dev/mpr121.h ****     }
 1366              		.loc 13 73 39 is_stmt 0 view .LVU301
 1367 02bc 94F82C10 		ldrb	r1, [r4, #44]	@ zero_extendqisi2
 1368 02c0 FFF7FEFF 		bl	_ZN5daisy9I2CHandle15ReceiveBlockingEtPhtm
ARM GAS  /var/folders/hl/qgbwny5j0fd895c2c41bk3tw0000gp/T//cckqgw4a.s 			page 51


 1369              	.LVL60:
  73:../../libDaisy//src/dev/mpr121.h ****     }
 1370              		.loc 13 73 39 view .LVU302
 1371              	.LBE1285:
 1372              	.LBE1289:
 1373              	.LBB1290:
 1374              	.LBI1290:
 1375              		.loc 13 343 10 is_stmt 1 view .LVU303
 1376              	.LBB1291:
 1377              		.loc 13 343 55 is_stmt 0 view .LVU304
 1378 02c4 94F83010 		ldrb	r1, [r4, #48]	@ zero_extendqisi2
 1379              	.LBE1291:
 1380              	.LBE1290:
 1381              	.LBB1294:
 1382              	.LBB1295:
  66:../../libDaisy//src/dev/mpr121.h ****     }
 1383              		.loc 13 66 40 view .LVU305
 1384 02c8 0223     		movs	r3, #2
 1385 02ca 07AA     		add	r2, sp, #28
 1386              	.LBE1295:
 1387              	.LBE1294:
 1388              	.LBB1298:
 1389              	.LBB1292:
 1390              		.loc 13 343 55 view .LVU306
 1391 02cc 4045     		cmp	r0, r8
 1392 02ce 18BF     		it	ne
 1393 02d0 41F00101 		orrne	r1, r1, #1
 1394              	.LBE1292:
 1395              	.LBE1298:
 1396              	.LBB1299:
 1397              	.LBB1296:
  66:../../libDaisy//src/dev/mpr121.h ****     }
 1398              		.loc 13 66 40 view .LVU307
 1399 02d4 0095     		str	r5, [sp]
 1400 02d6 1748     		ldr	r0, .L13+8
 1401              	.LVL61:
  66:../../libDaisy//src/dev/mpr121.h ****     }
 1402              		.loc 13 66 40 view .LVU308
 1403              	.LBE1296:
 1404              	.LBE1299:
 1405              	.LBB1300:
 1406              	.LBB1293:
 1407              		.loc 13 343 55 view .LVU309
 1408 02d8 84F83010 		strb	r1, [r4, #48]
 1409              	.LVL62:
 1410              		.loc 13 343 55 view .LVU310
 1411              	.LBE1293:
 1412              	.LBE1300:
 1413              	.LBB1301:
 1414              	.LBI1294:
  63:../../libDaisy//src/dev/mpr121.h ****     {
 1415              		.loc 13 63 10 is_stmt 1 view .LVU311
 1416              	.LBB1297:
  65:../../libDaisy//src/dev/mpr121.h ****                != i2c_.TransmitBlocking(config_.dev_addr, data, size, 10);
 1417              		.loc 13 65 9 view .LVU312
  66:../../libDaisy//src/dev/mpr121.h ****     }
 1418              		.loc 13 66 40 is_stmt 0 view .LVU313
ARM GAS  /var/folders/hl/qgbwny5j0fd895c2c41bk3tw0000gp/T//cckqgw4a.s 			page 52


 1419 02dc 94F82C10 		ldrb	r1, [r4, #44]	@ zero_extendqisi2
 1420 02e0 FFF7FEFF 		bl	_ZN5daisy9I2CHandle16TransmitBlockingEtPhtm
 1421              	.LVL63:
  66:../../libDaisy//src/dev/mpr121.h ****     }
 1422              		.loc 13 66 40 view .LVU314
 1423              	.LBE1297:
 1424              	.LBE1301:
 1425              	.LBB1302:
 1426              	.LBI1302:
 1427              		.loc 13 343 10 is_stmt 1 view .LVU315
 1428              	.LBB1303:
 1429              		.loc 13 343 55 is_stmt 0 view .LVU316
 1430 02e4 94F830C0 		ldrb	ip, [r4, #48]	@ zero_extendqisi2
 1431              	.LBE1303:
 1432              	.LBE1302:
 281:../../libDaisy//src/dev/mpr121.h ****         buff[1] = value;
 1433              		.loc 13 281 17 view .LVU317
 1434 02e8 7A1C     		adds	r2, r7, #1
 1435              	.LBB1306:
 1436              	.LBB1307:
  66:../../libDaisy//src/dev/mpr121.h ****     }
 1437              		.loc 13 66 40 view .LVU318
 1438 02ea 0223     		movs	r3, #2
 1439              	.LBE1307:
 1440              	.LBE1306:
 1441              	.LBB1312:
 1442              	.LBB1304:
 1443              		.loc 13 343 55 view .LVU319
 1444 02ec 4045     		cmp	r0, r8
 1445 02ee 18BF     		it	ne
 1446 02f0 4CF0010C 		orrne	ip, ip, #1
 1447              	.LBE1304:
 1448              	.LBE1312:
 1449              	.LBB1313:
 1450              	.LBB1308:
  66:../../libDaisy//src/dev/mpr121.h ****     }
 1451              		.loc 13 66 40 view .LVU320
 1452 02f4 94F82C10 		ldrb	r1, [r4, #44]	@ zero_extendqisi2
 1453              	.LBE1308:
 1454              	.LBE1313:
 281:../../libDaisy//src/dev/mpr121.h ****         buff[1] = value;
 1455              		.loc 13 281 17 view .LVU321
 1456 02f8 8DF81C20 		strb	r2, [sp, #28]
 1457              	.LBB1314:
 1458              	.LBB1309:
  66:../../libDaisy//src/dev/mpr121.h ****     }
 1459              		.loc 13 66 40 view .LVU322
 1460 02fc 07AA     		add	r2, sp, #28
 1461 02fe 0D48     		ldr	r0, .L13+8
 1462              	.LVL64:
  66:../../libDaisy//src/dev/mpr121.h ****     }
 1463              		.loc 13 66 40 view .LVU323
 1464              	.LBE1309:
 1465              	.LBE1314:
 1466              	.LBE1337:
 1467              	.LBE1344:
 180:../../libDaisy//src/dev/mpr121.h ****         {
ARM GAS  /var/folders/hl/qgbwny5j0fd895c2c41bk3tw0000gp/T//cckqgw4a.s 			page 53


 1468              		.loc 13 180 30 view .LVU324
 1469 0300 0237     		adds	r7, r7, #2
 1470              	.LVL65:
 1471              	.LBB1345:
 1472              	.LBB1338:
 1473              	.LBB1315:
 1474              	.LBB1310:
  66:../../libDaisy//src/dev/mpr121.h ****     }
 1475              		.loc 13 66 40 view .LVU325
 1476 0302 0095     		str	r5, [sp]
 1477              	.LBE1310:
 1478              	.LBE1315:
 1479              	.LBB1316:
 1480              	.LBB1305:
 1481              		.loc 13 343 55 view .LVU326
 1482 0304 84F830C0 		strb	ip, [r4, #48]
 1483              	.LVL66:
 1484              		.loc 13 343 55 view .LVU327
 1485              	.LBE1305:
 1486              	.LBE1316:
 1487              	.LBE1338:
 1488              	.LBE1345:
 180:../../libDaisy//src/dev/mpr121.h ****         {
 1489              		.loc 13 180 30 view .LVU328
 1490 0308 FFB2     		uxtb	r7, r7
 1491              	.LBB1346:
 1492              	.LBB1339:
 282:../../libDaisy//src/dev/mpr121.h ****         SetTransportErr(transport_.Write(buff, 2));
 1493              		.loc 13 282 17 view .LVU329
 1494 030a 8DF81D90 		strb	r9, [sp, #29]
 1495              	.LVL67:
 1496              	.LBB1317:
 1497              	.LBI1306:
  63:../../libDaisy//src/dev/mpr121.h ****     {
 1498              		.loc 13 63 10 is_stmt 1 view .LVU330
 1499              	.LBB1311:
  65:../../libDaisy//src/dev/mpr121.h ****                != i2c_.TransmitBlocking(config_.dev_addr, data, size, 10);
 1500              		.loc 13 65 9 view .LVU331
  66:../../libDaisy//src/dev/mpr121.h ****     }
 1501              		.loc 13 66 40 is_stmt 0 view .LVU332
 1502 030e FFF7FEFF 		bl	_ZN5daisy9I2CHandle16TransmitBlockingEtPhtm
 1503              	.LVL68:
  66:../../libDaisy//src/dev/mpr121.h ****     }
 1504              		.loc 13 66 40 view .LVU333
 1505              	.LBE1311:
 1506              	.LBE1317:
 1507              	.LBB1318:
 1508              	.LBI1318:
 1509              		.loc 13 343 10 is_stmt 1 view .LVU334
 1510              	.LBB1319:
 1511              		.loc 13 343 55 is_stmt 0 view .LVU335
 1512 0312 94F830C0 		ldrb	ip, [r4, #48]	@ zero_extendqisi2
 1513              	.LBE1319:
 1514              	.LBE1318:
 1515              	.LBB1322:
 1516              	.LBB1323:
  66:../../libDaisy//src/dev/mpr121.h ****     }
ARM GAS  /var/folders/hl/qgbwny5j0fd895c2c41bk3tw0000gp/T//cckqgw4a.s 			page 54


 1517              		.loc 13 66 40 view .LVU336
 1518 0316 0223     		movs	r3, #2
 1519              	.LBE1323:
 1520              	.LBE1322:
 289:../../libDaisy//src/dev/mpr121.h ****             SetTransportErr(transport_.Write(buff, 2));
 1521              		.loc 13 289 21 view .LVU337
 1522 0318 9DF80820 		ldrb	r2, [sp, #8]	@ zero_extendqisi2
 1523              	.LBB1327:
 1524              	.LBB1320:
 1525              		.loc 13 343 55 view .LVU338
 1526 031c 4045     		cmp	r0, r8
 1527 031e 18BF     		it	ne
 1528 0320 4CF0010C 		orrne	ip, ip, #1
 1529              	.LBE1320:
 1530              	.LBE1327:
 1531              	.LBB1328:
 1532              	.LBB1324:
  66:../../libDaisy//src/dev/mpr121.h ****     }
 1533              		.loc 13 66 40 view .LVU339
 1534 0324 94F82C10 		ldrb	r1, [r4, #44]	@ zero_extendqisi2
 1535 0328 06E0     		b	.L14
 1536              	.L15:
 1537 032a 00BF     		.align	2
 1538              	.L13:
 1539 032c 01080109 		.word	151062529
 1540 0330 00000000 		.word	.LANCHOR0
 1541 0334 18000000 		.word	.LANCHOR0+24
 1542              	.L14:
 1543              	.LBE1324:
 1544              	.LBE1328:
 289:../../libDaisy//src/dev/mpr121.h ****             SetTransportErr(transport_.Write(buff, 2));
 1545              		.loc 13 289 21 view .LVU340
 1546 0338 8DF81D20 		strb	r2, [sp, #29]
 1547              	.LBB1329:
 1548              	.LBB1325:
  66:../../libDaisy//src/dev/mpr121.h ****     }
 1549              		.loc 13 66 40 view .LVU341
 1550 033c 07AA     		add	r2, sp, #28
 1551 033e C048     		ldr	r0, .L16
 1552              	.LVL69:
  66:../../libDaisy//src/dev/mpr121.h ****     }
 1553              		.loc 13 66 40 view .LVU342
 1554 0340 0095     		str	r5, [sp]
 1555              	.LBE1325:
 1556              	.LBE1329:
 288:../../libDaisy//src/dev/mpr121.h ****             buff[1] = ecr_backup;
 1557              		.loc 13 288 21 view .LVU343
 1558 0342 8DF81C60 		strb	r6, [sp, #28]
 1559              	.LBB1330:
 1560              	.LBB1321:
 1561              		.loc 13 343 55 view .LVU344
 1562 0346 84F830C0 		strb	ip, [r4, #48]
 1563              	.LVL70:
 1564              		.loc 13 343 55 view .LVU345
 1565              	.LBE1321:
 1566              	.LBE1330:
 1567              	.LBB1331:
ARM GAS  /var/folders/hl/qgbwny5j0fd895c2c41bk3tw0000gp/T//cckqgw4a.s 			page 55


 1568              	.LBI1322:
  63:../../libDaisy//src/dev/mpr121.h ****     {
 1569              		.loc 13 63 10 is_stmt 1 view .LVU346
 1570              	.LBB1326:
  65:../../libDaisy//src/dev/mpr121.h ****                != i2c_.TransmitBlocking(config_.dev_addr, data, size, 10);
 1571              		.loc 13 65 9 view .LVU347
  66:../../libDaisy//src/dev/mpr121.h ****     }
 1572              		.loc 13 66 40 is_stmt 0 view .LVU348
 1573 034a FFF7FEFF 		bl	_ZN5daisy9I2CHandle16TransmitBlockingEtPhtm
 1574              	.LVL71:
  66:../../libDaisy//src/dev/mpr121.h ****     }
 1575              		.loc 13 66 40 view .LVU349
 1576              	.LBE1326:
 1577              	.LBE1331:
 1578              	.LBB1332:
 1579              	.LBI1332:
 1580              		.loc 13 343 10 is_stmt 1 view .LVU350
 1581              	.LBB1333:
 1582              		.loc 13 343 55 is_stmt 0 view .LVU351
 1583 034e 94F83030 		ldrb	r3, [r4, #48]	@ zero_extendqisi2
 1584 0352 4045     		cmp	r0, r8
 1585 0354 18BF     		it	ne
 1586 0356 43F00103 		orrne	r3, r3, #1
 1587              	.LBE1333:
 1588              	.LBE1332:
 1589              	.LBE1339:
 1590              	.LBE1346:
 180:../../libDaisy//src/dev/mpr121.h ****         {
 1591              		.loc 13 180 30 view .LVU352
 1592 035a 592F     		cmp	r7, #89
 1593              	.LBB1347:
 1594              	.LBB1340:
 1595              	.LBB1335:
 1596              	.LBB1334:
 1597              		.loc 13 343 55 view .LVU353
 1598 035c 84F83030 		strb	r3, [r4, #48]
 1599              	.LVL72:
 1600              		.loc 13 343 55 view .LVU354
 1601              	.LBE1334:
 1602              	.LBE1335:
 1603              	.LBE1340:
 1604              	.LBE1347:
 180:../../libDaisy//src/dev/mpr121.h ****         {
 1605              		.loc 13 180 9 is_stmt 1 view .LVU355
 180:../../libDaisy//src/dev/mpr121.h ****         {
 1606              		.loc 13 180 30 view .LVU356
 1607 0360 7FF432AF 		bne	.L10
 1608              	.LVL73:
 180:../../libDaisy//src/dev/mpr121.h ****         {
 1609              		.loc 13 180 30 is_stmt 0 view .LVU357
 1610              	.LBE1197:
 1611              	.LBE1196:
 1612              	.LBB1348:
 1613              	.LBI1348:
 257:../../libDaisy//src/dev/mpr121.h ****     {
 1614              		.loc 13 257 10 is_stmt 1 view .LVU358
 1615              	.LBB1349:
ARM GAS  /var/folders/hl/qgbwny5j0fd895c2c41bk3tw0000gp/T//cckqgw4a.s 			page 56


 1616              	.LBB1350:
 1617              	.LBB1351:
  66:../../libDaisy//src/dev/mpr121.h ****     }
 1618              		.loc 13 66 40 is_stmt 0 view .LVU359
 1619 0364 07AA     		add	r2, sp, #28
 1620 0366 94F82C10 		ldrb	r1, [r4, #44]	@ zero_extendqisi2
 1621 036a 0123     		movs	r3, #1
 1622 036c 0095     		str	r5, [sp]
 1623 036e B448     		ldr	r0, .L16
 1624              	.LBE1351:
 1625              	.LBE1350:
 282:../../libDaisy//src/dev/mpr121.h ****         SetTransportErr(transport_.Write(buff, 2));
 1626              		.loc 13 282 17 view .LVU360
 1627 0370 0127     		movs	r7, #1
 264:../../libDaisy//src/dev/mpr121.h **** 
 1628              		.loc 13 264 17 view .LVU361
 1629 0372 8DF81D80 		strb	r8, [sp, #29]
 1630 0376 8DF81C60 		strb	r6, [sp, #28]
 1631              	.LVL74:
 1632              	.LBB1353:
 1633              	.LBI1350:
  63:../../libDaisy//src/dev/mpr121.h ****     {
 1634              		.loc 13 63 10 is_stmt 1 view .LVU362
 1635              	.LBB1352:
  65:../../libDaisy//src/dev/mpr121.h ****                != i2c_.TransmitBlocking(config_.dev_addr, data, size, 10);
 1636              		.loc 13 65 9 view .LVU363
  66:../../libDaisy//src/dev/mpr121.h ****     }
 1637              		.loc 13 66 40 is_stmt 0 view .LVU364
 1638 037a FFF7FEFF 		bl	_ZN5daisy9I2CHandle16TransmitBlockingEtPhtm
 1639              	.LVL75:
  66:../../libDaisy//src/dev/mpr121.h ****     }
 1640              		.loc 13 66 40 view .LVU365
 1641              	.LBE1352:
 1642              	.LBE1353:
 1643              	.LBB1354:
 1644              	.LBI1354:
 1645              		.loc 13 343 10 is_stmt 1 view .LVU366
 1646              	.LBB1355:
 1647              		.loc 13 343 55 is_stmt 0 view .LVU367
 1648 037e 94F83030 		ldrb	r3, [r4, #48]	@ zero_extendqisi2
 1649              	.LBE1355:
 1650              	.LBE1354:
 1651              	.LBB1358:
 1652              	.LBB1359:
  73:../../libDaisy//src/dev/mpr121.h ****     }
 1653              		.loc 13 73 39 view .LVU368
 1654 0382 02AA     		add	r2, sp, #8
 1655 0384 94F82C10 		ldrb	r1, [r4, #44]	@ zero_extendqisi2
 1656              	.LBE1359:
 1657              	.LBE1358:
 1658              	.LBB1362:
 1659              	.LBB1356:
 1660              		.loc 13 343 55 view .LVU369
 1661 0388 4045     		cmp	r0, r8
 1662 038a 18BF     		it	ne
 1663 038c 43F00103 		orrne	r3, r3, #1
 1664              	.LBE1356:
ARM GAS  /var/folders/hl/qgbwny5j0fd895c2c41bk3tw0000gp/T//cckqgw4a.s 			page 57


 1665              	.LBE1362:
 1666              	.LBB1363:
 1667              	.LBB1360:
  73:../../libDaisy//src/dev/mpr121.h ****     }
 1668              		.loc 13 73 39 view .LVU370
 1669 0390 0095     		str	r5, [sp]
 1670 0392 AB48     		ldr	r0, .L16
 1671              	.LVL76:
  73:../../libDaisy//src/dev/mpr121.h ****     }
 1672              		.loc 13 73 39 view .LVU371
 1673              	.LBE1360:
 1674              	.LBE1363:
 1675              	.LBB1364:
 1676              	.LBB1357:
 1677              		.loc 13 343 55 view .LVU372
 1678 0394 84F83030 		strb	r3, [r4, #48]
 1679              	.LVL77:
 1680              		.loc 13 343 55 view .LVU373
 1681              	.LBE1357:
 1682              	.LBE1364:
 1683              	.LBB1365:
 1684              	.LBI1358:
  70:../../libDaisy//src/dev/mpr121.h ****     {
 1685              		.loc 13 70 10 is_stmt 1 view .LVU374
 1686              	.LBB1361:
  72:../../libDaisy//src/dev/mpr121.h ****                != i2c_.ReceiveBlocking(config_.dev_addr, data, size, 10);
 1687              		.loc 13 72 9 view .LVU375
  73:../../libDaisy//src/dev/mpr121.h ****     }
 1688              		.loc 13 73 39 is_stmt 0 view .LVU376
 1689 0398 0123     		movs	r3, #1
 1690 039a FFF7FEFF 		bl	_ZN5daisy9I2CHandle15ReceiveBlockingEtPhtm
 1691              	.LVL78:
  73:../../libDaisy//src/dev/mpr121.h ****     }
 1692              		.loc 13 73 39 view .LVU377
 1693              	.LBE1361:
 1694              	.LBE1365:
 1695              	.LBB1366:
 1696              	.LBI1366:
 1697              		.loc 13 343 10 is_stmt 1 view .LVU378
 1698              	.LBB1367:
 1699              		.loc 13 343 55 is_stmt 0 view .LVU379
 1700 039e 94F83030 		ldrb	r3, [r4, #48]	@ zero_extendqisi2
 1701              	.LBE1367:
 1702              	.LBE1366:
 1703              	.LBB1370:
 1704              	.LBB1371:
  66:../../libDaisy//src/dev/mpr121.h ****     }
 1705              		.loc 13 66 40 view .LVU380
 1706 03a2 07AA     		add	r2, sp, #28
 1707 03a4 94F82C10 		ldrb	r1, [r4, #44]	@ zero_extendqisi2
 1708              	.LBE1371:
 1709              	.LBE1370:
 1710              	.LBB1374:
 1711              	.LBB1368:
 1712              		.loc 13 343 55 view .LVU381
 1713 03a8 4045     		cmp	r0, r8
 1714 03aa 18BF     		it	ne
ARM GAS  /var/folders/hl/qgbwny5j0fd895c2c41bk3tw0000gp/T//cckqgw4a.s 			page 58


 1715 03ac 43F00103 		orrne	r3, r3, #1
 1716              	.LBE1368:
 1717              	.LBE1374:
 1718              	.LBB1375:
 1719              	.LBB1372:
  66:../../libDaisy//src/dev/mpr121.h ****     }
 1720              		.loc 13 66 40 view .LVU382
 1721 03b0 0095     		str	r5, [sp]
 1722 03b2 A348     		ldr	r0, .L16
 1723              	.LVL79:
  66:../../libDaisy//src/dev/mpr121.h ****     }
 1724              		.loc 13 66 40 view .LVU383
 1725              	.LBE1372:
 1726              	.LBE1375:
 1727              	.LBB1376:
 1728              	.LBB1369:
 1729              		.loc 13 343 55 view .LVU384
 1730 03b4 84F83030 		strb	r3, [r4, #48]
 1731              	.LVL80:
 1732              		.loc 13 343 55 view .LVU385
 1733              	.LBE1369:
 1734              	.LBE1376:
 1735              	.LBB1377:
 1736              	.LBI1370:
  63:../../libDaisy//src/dev/mpr121.h ****     {
 1737              		.loc 13 63 10 is_stmt 1 view .LVU386
 1738              	.LBB1373:
  65:../../libDaisy//src/dev/mpr121.h ****                != i2c_.TransmitBlocking(config_.dev_addr, data, size, 10);
 1739              		.loc 13 65 9 view .LVU387
  66:../../libDaisy//src/dev/mpr121.h ****     }
 1740              		.loc 13 66 40 is_stmt 0 view .LVU388
 1741 03b8 0223     		movs	r3, #2
 1742 03ba FFF7FEFF 		bl	_ZN5daisy9I2CHandle16TransmitBlockingEtPhtm
 1743              	.LVL81:
  66:../../libDaisy//src/dev/mpr121.h ****     }
 1744              		.loc 13 66 40 view .LVU389
 1745              	.LBE1373:
 1746              	.LBE1377:
 1747              	.LBB1378:
 1748              	.LBI1378:
 1749              		.loc 13 343 10 is_stmt 1 view .LVU390
 1750              	.LBB1379:
 1751              		.loc 13 343 55 is_stmt 0 view .LVU391
 1752 03be 94F83030 		ldrb	r3, [r4, #48]	@ zero_extendqisi2
 1753              	.LBE1379:
 1754              	.LBE1378:
 1755              	.LBB1382:
 1756              	.LBB1383:
  66:../../libDaisy//src/dev/mpr121.h ****     }
 1757              		.loc 13 66 40 view .LVU392
 1758 03c2 07AA     		add	r2, sp, #28
 1759 03c4 94F82C10 		ldrb	r1, [r4, #44]	@ zero_extendqisi2
 1760              	.LBE1383:
 1761              	.LBE1382:
 1762              	.LBB1387:
 1763              	.LBB1380:
 1764              		.loc 13 343 55 view .LVU393
ARM GAS  /var/folders/hl/qgbwny5j0fd895c2c41bk3tw0000gp/T//cckqgw4a.s 			page 59


 1765 03c8 4045     		cmp	r0, r8
 1766 03ca 18BF     		it	ne
 1767 03cc 43F00103 		orrne	r3, r3, #1
 1768              	.LBE1380:
 1769              	.LBE1387:
 1770              	.LBB1388:
 1771              	.LBB1384:
  66:../../libDaisy//src/dev/mpr121.h ****     }
 1772              		.loc 13 66 40 view .LVU394
 1773 03d0 0095     		str	r5, [sp]
 1774 03d2 9B48     		ldr	r0, .L16
 1775              	.LVL82:
  66:../../libDaisy//src/dev/mpr121.h ****     }
 1776              		.loc 13 66 40 view .LVU395
 1777              	.LBE1384:
 1778              	.LBE1388:
 1779              	.LBB1389:
 1780              	.LBB1381:
 1781              		.loc 13 343 55 view .LVU396
 1782 03d4 84F83030 		strb	r3, [r4, #48]
 1783              	.LVL83:
 1784              		.loc 13 343 55 view .LVU397
 1785              	.LBE1381:
 1786              	.LBE1389:
 281:../../libDaisy//src/dev/mpr121.h ****         buff[1] = value;
 1787              		.loc 13 281 17 view .LVU398
 1788 03d8 2B23     		movs	r3, #43
 282:../../libDaisy//src/dev/mpr121.h ****         SetTransportErr(transport_.Write(buff, 2));
 1789              		.loc 13 282 17 view .LVU399
 1790 03da 8DF81D70 		strb	r7, [sp, #29]
 1791              	.LVL84:
 1792              	.LBB1390:
 1793              	.LBI1382:
  63:../../libDaisy//src/dev/mpr121.h ****     {
 1794              		.loc 13 63 10 is_stmt 1 view .LVU400
 1795              	.LBB1385:
  65:../../libDaisy//src/dev/mpr121.h ****                != i2c_.TransmitBlocking(config_.dev_addr, data, size, 10);
 1796              		.loc 13 65 9 view .LVU401
 1797              	.LBE1385:
 1798              	.LBE1390:
 281:../../libDaisy//src/dev/mpr121.h ****         buff[1] = value;
 1799              		.loc 13 281 17 is_stmt 0 view .LVU402
 1800 03de 8DF81C30 		strb	r3, [sp, #28]
 1801              	.LBB1391:
 1802              	.LBB1386:
  66:../../libDaisy//src/dev/mpr121.h ****     }
 1803              		.loc 13 66 40 view .LVU403
 1804 03e2 0223     		movs	r3, #2
 1805 03e4 FFF7FEFF 		bl	_ZN5daisy9I2CHandle16TransmitBlockingEtPhtm
 1806              	.LVL85:
  66:../../libDaisy//src/dev/mpr121.h ****     }
 1807              		.loc 13 66 40 view .LVU404
 1808              	.LBE1386:
 1809              	.LBE1391:
 1810              	.LBB1392:
 1811              	.LBI1392:
 1812              		.loc 13 343 10 is_stmt 1 view .LVU405
ARM GAS  /var/folders/hl/qgbwny5j0fd895c2c41bk3tw0000gp/T//cckqgw4a.s 			page 60


 1813              	.LBB1393:
 1814              		.loc 13 343 55 is_stmt 0 view .LVU406
 1815 03e8 94F83030 		ldrb	r3, [r4, #48]	@ zero_extendqisi2
 1816              	.LBE1393:
 1817              	.LBE1392:
 1818              	.LBB1396:
 1819              	.LBB1397:
  66:../../libDaisy//src/dev/mpr121.h ****     }
 1820              		.loc 13 66 40 view .LVU407
 1821 03ec 07AA     		add	r2, sp, #28
 1822 03ee 94F82C10 		ldrb	r1, [r4, #44]	@ zero_extendqisi2
 1823              	.LBE1397:
 1824              	.LBE1396:
 1825              	.LBB1400:
 1826              	.LBB1394:
 1827              		.loc 13 343 55 view .LVU408
 1828 03f2 4045     		cmp	r0, r8
 1829 03f4 18BF     		it	ne
 1830 03f6 43F00103 		orrne	r3, r3, #1
 1831              	.LBE1394:
 1832              	.LBE1400:
 1833              	.LBB1401:
 1834              	.LBB1398:
  66:../../libDaisy//src/dev/mpr121.h ****     }
 1835              		.loc 13 66 40 view .LVU409
 1836 03fa 0095     		str	r5, [sp]
 1837 03fc 9048     		ldr	r0, .L16
 1838              	.LVL86:
  66:../../libDaisy//src/dev/mpr121.h ****     }
 1839              		.loc 13 66 40 view .LVU410
 1840              	.LBE1398:
 1841              	.LBE1401:
 1842              	.LBB1402:
 1843              	.LBB1395:
 1844              		.loc 13 343 55 view .LVU411
 1845 03fe 84F83030 		strb	r3, [r4, #48]
 1846              	.LVL87:
 1847              		.loc 13 343 55 view .LVU412
 1848              	.LBE1395:
 1849              	.LBE1402:
 289:../../libDaisy//src/dev/mpr121.h ****             SetTransportErr(transport_.Write(buff, 2));
 1850              		.loc 13 289 21 view .LVU413
 1851 0402 9DF80830 		ldrb	r3, [sp, #8]	@ zero_extendqisi2
 288:../../libDaisy//src/dev/mpr121.h ****             buff[1] = ecr_backup;
 1852              		.loc 13 288 21 view .LVU414
 1853 0406 8DF81C60 		strb	r6, [sp, #28]
 289:../../libDaisy//src/dev/mpr121.h ****             SetTransportErr(transport_.Write(buff, 2));
 1854              		.loc 13 289 21 view .LVU415
 1855 040a 8DF81D30 		strb	r3, [sp, #29]
 1856              	.LVL88:
 1857              	.LBB1403:
 1858              	.LBI1396:
  63:../../libDaisy//src/dev/mpr121.h ****     {
 1859              		.loc 13 63 10 is_stmt 1 view .LVU416
 1860              	.LBB1399:
  65:../../libDaisy//src/dev/mpr121.h ****                != i2c_.TransmitBlocking(config_.dev_addr, data, size, 10);
 1861              		.loc 13 65 9 view .LVU417
ARM GAS  /var/folders/hl/qgbwny5j0fd895c2c41bk3tw0000gp/T//cckqgw4a.s 			page 61


  66:../../libDaisy//src/dev/mpr121.h ****     }
 1862              		.loc 13 66 40 is_stmt 0 view .LVU418
 1863 040e 0223     		movs	r3, #2
 1864 0410 FFF7FEFF 		bl	_ZN5daisy9I2CHandle16TransmitBlockingEtPhtm
 1865              	.LVL89:
  66:../../libDaisy//src/dev/mpr121.h ****     }
 1866              		.loc 13 66 40 view .LVU419
 1867              	.LBE1399:
 1868              	.LBE1403:
 1869              	.LBB1404:
 1870              	.LBI1404:
 1871              		.loc 13 343 10 is_stmt 1 view .LVU420
 1872              	.LBB1405:
 1873              		.loc 13 343 55 is_stmt 0 view .LVU421
 1874 0414 94F83030 		ldrb	r3, [r4, #48]	@ zero_extendqisi2
 1875              	.LBE1405:
 1876              	.LBE1404:
 1877              	.LBE1349:
 1878              	.LBE1348:
 1879              	.LBB1412:
 1880              	.LBB1413:
 1881              	.LBB1414:
 1882              	.LBB1415:
  66:../../libDaisy//src/dev/mpr121.h ****     }
 1883              		.loc 13 66 40 view .LVU422
 1884 0418 07AA     		add	r2, sp, #28
 1885 041a 94F82C10 		ldrb	r1, [r4, #44]	@ zero_extendqisi2
 1886              	.LBE1415:
 1887              	.LBE1414:
 1888              	.LBE1413:
 1889              	.LBE1412:
 1890              	.LBB1482:
 1891              	.LBB1410:
 1892              	.LBB1408:
 1893              	.LBB1406:
 1894              		.loc 13 343 55 view .LVU423
 1895 041e 4045     		cmp	r0, r8
 1896 0420 18BF     		it	ne
 1897 0422 43F00103 		orrne	r3, r3, #1
 1898              	.LBE1406:
 1899              	.LBE1408:
 1900              	.LBE1410:
 1901              	.LBE1482:
 1902              	.LBB1483:
 1903              	.LBB1478:
 1904              	.LBB1419:
 1905              	.LBB1416:
  66:../../libDaisy//src/dev/mpr121.h ****     }
 1906              		.loc 13 66 40 view .LVU424
 1907 0426 0095     		str	r5, [sp]
 1908 0428 8548     		ldr	r0, .L16
 1909              	.LVL90:
  66:../../libDaisy//src/dev/mpr121.h ****     }
 1910              		.loc 13 66 40 view .LVU425
 1911              	.LBE1416:
 1912              	.LBE1419:
 1913              	.LBE1478:
ARM GAS  /var/folders/hl/qgbwny5j0fd895c2c41bk3tw0000gp/T//cckqgw4a.s 			page 62


 1914              	.LBE1483:
 1915              	.LBB1484:
 1916              	.LBB1411:
 1917              	.LBB1409:
 1918              	.LBB1407:
 1919              		.loc 13 343 55 view .LVU426
 1920 042a 84F83030 		strb	r3, [r4, #48]
 1921              	.LVL91:
 1922              		.loc 13 343 55 view .LVU427
 1923              	.LBE1407:
 1924              	.LBE1409:
 1925              	.LBE1411:
 1926              	.LBE1484:
 1927              	.LBB1485:
 1928              	.LBI1412:
 257:../../libDaisy//src/dev/mpr121.h ****     {
 1929              		.loc 13 257 10 is_stmt 1 view .LVU428
 1930              	.LBB1479:
 1931              	.LBB1420:
 1932              	.LBI1414:
  63:../../libDaisy//src/dev/mpr121.h ****     {
 1933              		.loc 13 63 10 view .LVU429
 1934              	.LBB1417:
  65:../../libDaisy//src/dev/mpr121.h ****                != i2c_.TransmitBlocking(config_.dev_addr, data, size, 10);
 1935              		.loc 13 65 9 view .LVU430
  66:../../libDaisy//src/dev/mpr121.h ****     }
 1936              		.loc 13 66 40 is_stmt 0 view .LVU431
 1937 042e 3B46     		mov	r3, r7
 1938              	.LBE1417:
 1939              	.LBE1420:
 264:../../libDaisy//src/dev/mpr121.h **** 
 1940              		.loc 13 264 17 view .LVU432
 1941 0430 8DF81D80 		strb	r8, [sp, #29]
 1942 0434 8DF81C60 		strb	r6, [sp, #28]
 1943              	.LBB1421:
 1944              	.LBB1418:
  66:../../libDaisy//src/dev/mpr121.h ****     }
 1945              		.loc 13 66 40 view .LVU433
 1946 0438 FFF7FEFF 		bl	_ZN5daisy9I2CHandle16TransmitBlockingEtPhtm
 1947              	.LVL92:
  66:../../libDaisy//src/dev/mpr121.h ****     }
 1948              		.loc 13 66 40 view .LVU434
 1949              	.LBE1418:
 1950              	.LBE1421:
 1951              	.LBB1422:
 1952              	.LBI1422:
 1953              		.loc 13 343 10 is_stmt 1 view .LVU435
 1954              	.LBB1423:
 1955              		.loc 13 343 55 is_stmt 0 view .LVU436
 1956 043c 94F83030 		ldrb	r3, [r4, #48]	@ zero_extendqisi2
 1957              	.LBE1423:
 1958              	.LBE1422:
 1959              	.LBB1426:
 1960              	.LBB1427:
  73:../../libDaisy//src/dev/mpr121.h ****     }
 1961              		.loc 13 73 39 view .LVU437
 1962 0440 02AA     		add	r2, sp, #8
ARM GAS  /var/folders/hl/qgbwny5j0fd895c2c41bk3tw0000gp/T//cckqgw4a.s 			page 63


 1963 0442 94F82C10 		ldrb	r1, [r4, #44]	@ zero_extendqisi2
 1964              	.LBE1427:
 1965              	.LBE1426:
 1966              	.LBB1430:
 1967              	.LBB1424:
 1968              		.loc 13 343 55 view .LVU438
 1969 0446 4045     		cmp	r0, r8
 1970 0448 18BF     		it	ne
 1971 044a 43F00103 		orrne	r3, r3, #1
 1972              	.LBE1424:
 1973              	.LBE1430:
 1974              	.LBB1431:
 1975              	.LBB1428:
  73:../../libDaisy//src/dev/mpr121.h ****     }
 1976              		.loc 13 73 39 view .LVU439
 1977 044e 0095     		str	r5, [sp]
 1978 0450 7B48     		ldr	r0, .L16
 1979              	.LVL93:
  73:../../libDaisy//src/dev/mpr121.h ****     }
 1980              		.loc 13 73 39 view .LVU440
 1981              	.LBE1428:
 1982              	.LBE1431:
 1983              	.LBB1432:
 1984              	.LBB1425:
 1985              		.loc 13 343 55 view .LVU441
 1986 0452 84F83030 		strb	r3, [r4, #48]
 1987              	.LVL94:
 1988              		.loc 13 343 55 view .LVU442
 1989              	.LBE1425:
 1990              	.LBE1432:
 1991              	.LBB1433:
 1992              	.LBI1426:
  70:../../libDaisy//src/dev/mpr121.h ****     {
 1993              		.loc 13 70 10 is_stmt 1 view .LVU443
 1994              	.LBB1429:
  72:../../libDaisy//src/dev/mpr121.h ****                != i2c_.ReceiveBlocking(config_.dev_addr, data, size, 10);
 1995              		.loc 13 72 9 view .LVU444
  73:../../libDaisy//src/dev/mpr121.h ****     }
 1996              		.loc 13 73 39 is_stmt 0 view .LVU445
 1997 0456 3B46     		mov	r3, r7
 1998 0458 FFF7FEFF 		bl	_ZN5daisy9I2CHandle15ReceiveBlockingEtPhtm
 1999              	.LVL95:
  73:../../libDaisy//src/dev/mpr121.h ****     }
 2000              		.loc 13 73 39 view .LVU446
 2001              	.LBE1429:
 2002              	.LBE1433:
 2003              	.LBB1434:
 2004              	.LBI1434:
 2005              		.loc 13 343 10 is_stmt 1 view .LVU447
 2006              	.LBB1435:
 2007              		.loc 13 343 55 is_stmt 0 view .LVU448
 2008 045c 94F83030 		ldrb	r3, [r4, #48]	@ zero_extendqisi2
 2009              	.LBE1435:
 2010              	.LBE1434:
 2011              	.LBB1438:
 2012              	.LBB1439:
  66:../../libDaisy//src/dev/mpr121.h ****     }
ARM GAS  /var/folders/hl/qgbwny5j0fd895c2c41bk3tw0000gp/T//cckqgw4a.s 			page 64


 2013              		.loc 13 66 40 view .LVU449
 2014 0460 07AA     		add	r2, sp, #28
 2015 0462 94F82C10 		ldrb	r1, [r4, #44]	@ zero_extendqisi2
 2016              	.LBE1439:
 2017              	.LBE1438:
 2018              	.LBB1442:
 2019              	.LBB1436:
 2020              		.loc 13 343 55 view .LVU450
 2021 0466 4045     		cmp	r0, r8
 2022 0468 18BF     		it	ne
 2023 046a 43F00103 		orrne	r3, r3, #1
 2024              	.LBE1436:
 2025              	.LBE1442:
 2026              	.LBB1443:
 2027              	.LBB1440:
  66:../../libDaisy//src/dev/mpr121.h ****     }
 2028              		.loc 13 66 40 view .LVU451
 2029 046e 0095     		str	r5, [sp]
 2030 0470 7348     		ldr	r0, .L16
 2031              	.LVL96:
  66:../../libDaisy//src/dev/mpr121.h ****     }
 2032              		.loc 13 66 40 view .LVU452
 2033              	.LBE1440:
 2034              	.LBE1443:
 2035              	.LBB1444:
 2036              	.LBB1437:
 2037              		.loc 13 343 55 view .LVU453
 2038 0472 84F83030 		strb	r3, [r4, #48]
 2039              	.LVL97:
 2040              		.loc 13 343 55 view .LVU454
 2041              	.LBE1437:
 2042              	.LBE1444:
 2043              	.LBB1445:
 2044              	.LBI1438:
  63:../../libDaisy//src/dev/mpr121.h ****     {
 2045              		.loc 13 63 10 is_stmt 1 view .LVU455
 2046              	.LBB1441:
  65:../../libDaisy//src/dev/mpr121.h ****                != i2c_.TransmitBlocking(config_.dev_addr, data, size, 10);
 2047              		.loc 13 65 9 view .LVU456
  66:../../libDaisy//src/dev/mpr121.h ****     }
 2048              		.loc 13 66 40 is_stmt 0 view .LVU457
 2049 0476 0223     		movs	r3, #2
 2050 0478 FFF7FEFF 		bl	_ZN5daisy9I2CHandle16TransmitBlockingEtPhtm
 2051              	.LVL98:
  66:../../libDaisy//src/dev/mpr121.h ****     }
 2052              		.loc 13 66 40 view .LVU458
 2053              	.LBE1441:
 2054              	.LBE1445:
 2055              	.LBB1446:
 2056              	.LBI1446:
 2057              		.loc 13 343 10 is_stmt 1 view .LVU459
 2058              	.LBB1447:
 2059              		.loc 13 343 55 is_stmt 0 view .LVU460
 2060 047c 94F83030 		ldrb	r3, [r4, #48]	@ zero_extendqisi2
 2061              	.LBE1447:
 2062              	.LBE1446:
 2063              	.LBB1450:
ARM GAS  /var/folders/hl/qgbwny5j0fd895c2c41bk3tw0000gp/T//cckqgw4a.s 			page 65


 2064              	.LBB1451:
  66:../../libDaisy//src/dev/mpr121.h ****     }
 2065              		.loc 13 66 40 view .LVU461
 2066 0480 07AA     		add	r2, sp, #28
 2067 0482 94F82C10 		ldrb	r1, [r4, #44]	@ zero_extendqisi2
 2068              	.LBE1451:
 2069              	.LBE1450:
 2070              	.LBB1455:
 2071              	.LBB1448:
 2072              		.loc 13 343 55 view .LVU462
 2073 0486 4045     		cmp	r0, r8
 2074 0488 18BF     		it	ne
 2075 048a 43F00103 		orrne	r3, r3, #1
 2076              	.LBE1448:
 2077              	.LBE1455:
 2078              	.LBB1456:
 2079              	.LBB1452:
  66:../../libDaisy//src/dev/mpr121.h ****     }
 2080              		.loc 13 66 40 view .LVU463
 2081 048e 0095     		str	r5, [sp]
 2082 0490 6B48     		ldr	r0, .L16
 2083              	.LVL99:
  66:../../libDaisy//src/dev/mpr121.h ****     }
 2084              		.loc 13 66 40 view .LVU464
 2085              	.LBE1452:
 2086              	.LBE1456:
 2087              	.LBB1457:
 2088              	.LBB1449:
 2089              		.loc 13 343 55 view .LVU465
 2090 0492 84F83030 		strb	r3, [r4, #48]
 2091              	.LVL100:
 2092              		.loc 13 343 55 view .LVU466
 2093              	.LBE1449:
 2094              	.LBE1457:
 2095              	.LBB1458:
 2096              	.LBI1450:
  63:../../libDaisy//src/dev/mpr121.h ****     {
 2097              		.loc 13 63 10 is_stmt 1 view .LVU467
 2098              	.LBB1453:
  65:../../libDaisy//src/dev/mpr121.h ****                != i2c_.TransmitBlocking(config_.dev_addr, data, size, 10);
 2099              		.loc 13 65 9 view .LVU468
 2100              	.LBE1453:
 2101              	.LBE1458:
 281:../../libDaisy//src/dev/mpr121.h ****         buff[1] = value;
 2102              		.loc 13 281 17 is_stmt 0 view .LVU469
 2103 0496 2C23     		movs	r3, #44
 282:../../libDaisy//src/dev/mpr121.h ****         SetTransportErr(transport_.Write(buff, 2));
 2104              		.loc 13 282 17 view .LVU470
 2105 0498 8DF81D70 		strb	r7, [sp, #29]
 281:../../libDaisy//src/dev/mpr121.h ****         buff[1] = value;
 2106              		.loc 13 281 17 view .LVU471
 2107 049c 8DF81C30 		strb	r3, [sp, #28]
 2108              	.LBB1459:
 2109              	.LBB1454:
  66:../../libDaisy//src/dev/mpr121.h ****     }
 2110              		.loc 13 66 40 view .LVU472
 2111 04a0 0223     		movs	r3, #2
ARM GAS  /var/folders/hl/qgbwny5j0fd895c2c41bk3tw0000gp/T//cckqgw4a.s 			page 66


 2112 04a2 FFF7FEFF 		bl	_ZN5daisy9I2CHandle16TransmitBlockingEtPhtm
 2113              	.LVL101:
  66:../../libDaisy//src/dev/mpr121.h ****     }
 2114              		.loc 13 66 40 view .LVU473
 2115              	.LBE1454:
 2116              	.LBE1459:
 2117              	.LBB1460:
 2118              	.LBI1460:
 2119              		.loc 13 343 10 is_stmt 1 view .LVU474
 2120              	.LBB1461:
 2121              		.loc 13 343 55 is_stmt 0 view .LVU475
 2122 04a6 94F83030 		ldrb	r3, [r4, #48]	@ zero_extendqisi2
 2123              	.LBE1461:
 2124              	.LBE1460:
 2125              	.LBB1464:
 2126              	.LBB1465:
  66:../../libDaisy//src/dev/mpr121.h ****     }
 2127              		.loc 13 66 40 view .LVU476
 2128 04aa 07AA     		add	r2, sp, #28
 2129 04ac 94F82C10 		ldrb	r1, [r4, #44]	@ zero_extendqisi2
 2130              	.LBE1465:
 2131              	.LBE1464:
 2132              	.LBB1468:
 2133              	.LBB1462:
 2134              		.loc 13 343 55 view .LVU477
 2135 04b0 4045     		cmp	r0, r8
 2136 04b2 18BF     		it	ne
 2137 04b4 43F00103 		orrne	r3, r3, #1
 2138              	.LBE1462:
 2139              	.LBE1468:
 2140              	.LBB1469:
 2141              	.LBB1466:
  66:../../libDaisy//src/dev/mpr121.h ****     }
 2142              		.loc 13 66 40 view .LVU478
 2143 04b8 0095     		str	r5, [sp]
 2144 04ba 6148     		ldr	r0, .L16
 2145              	.LVL102:
  66:../../libDaisy//src/dev/mpr121.h ****     }
 2146              		.loc 13 66 40 view .LVU479
 2147              	.LBE1466:
 2148              	.LBE1469:
 2149              	.LBB1470:
 2150              	.LBB1463:
 2151              		.loc 13 343 55 view .LVU480
 2152 04bc 84F83030 		strb	r3, [r4, #48]
 2153              	.LVL103:
 2154              		.loc 13 343 55 view .LVU481
 2155              	.LBE1463:
 2156              	.LBE1470:
 289:../../libDaisy//src/dev/mpr121.h ****             SetTransportErr(transport_.Write(buff, 2));
 2157              		.loc 13 289 21 view .LVU482
 2158 04c0 9DF80830 		ldrb	r3, [sp, #8]	@ zero_extendqisi2
 288:../../libDaisy//src/dev/mpr121.h ****             buff[1] = ecr_backup;
 2159              		.loc 13 288 21 view .LVU483
 2160 04c4 8DF81C60 		strb	r6, [sp, #28]
 289:../../libDaisy//src/dev/mpr121.h ****             SetTransportErr(transport_.Write(buff, 2));
 2161              		.loc 13 289 21 view .LVU484
ARM GAS  /var/folders/hl/qgbwny5j0fd895c2c41bk3tw0000gp/T//cckqgw4a.s 			page 67


 2162 04c8 8DF81D30 		strb	r3, [sp, #29]
 2163              	.LVL104:
 2164              	.LBB1471:
 2165              	.LBI1464:
  63:../../libDaisy//src/dev/mpr121.h ****     {
 2166              		.loc 13 63 10 is_stmt 1 view .LVU485
 2167              	.LBB1467:
  65:../../libDaisy//src/dev/mpr121.h ****                != i2c_.TransmitBlocking(config_.dev_addr, data, size, 10);
 2168              		.loc 13 65 9 view .LVU486
  66:../../libDaisy//src/dev/mpr121.h ****     }
 2169              		.loc 13 66 40 is_stmt 0 view .LVU487
 2170 04cc 0223     		movs	r3, #2
 2171 04ce FFF7FEFF 		bl	_ZN5daisy9I2CHandle16TransmitBlockingEtPhtm
 2172              	.LVL105:
  66:../../libDaisy//src/dev/mpr121.h ****     }
 2173              		.loc 13 66 40 view .LVU488
 2174              	.LBE1467:
 2175              	.LBE1471:
 2176              	.LBB1472:
 2177              	.LBI1472:
 2178              		.loc 13 343 10 is_stmt 1 view .LVU489
 2179              	.LBB1473:
 2180              		.loc 13 343 55 is_stmt 0 view .LVU490
 2181 04d2 94F83030 		ldrb	r3, [r4, #48]	@ zero_extendqisi2
 2182              	.LBE1473:
 2183              	.LBE1472:
 2184              	.LBE1479:
 2185              	.LBE1485:
 2186              	.LBB1486:
 2187              	.LBB1487:
 2188              	.LBB1488:
 2189              	.LBB1489:
  66:../../libDaisy//src/dev/mpr121.h ****     }
 2190              		.loc 13 66 40 view .LVU491
 2191 04d6 07AA     		add	r2, sp, #28
 2192 04d8 94F82C10 		ldrb	r1, [r4, #44]	@ zero_extendqisi2
 2193              	.LBE1489:
 2194              	.LBE1488:
 2195              	.LBE1487:
 2196              	.LBE1486:
 2197              	.LBB1554:
 2198              	.LBB1480:
 2199              	.LBB1476:
 2200              	.LBB1474:
 2201              		.loc 13 343 55 view .LVU492
 2202 04dc 4045     		cmp	r0, r8
 2203 04de 18BF     		it	ne
 2204 04e0 43F00103 		orrne	r3, r3, #1
 2205              	.LBE1474:
 2206              	.LBE1476:
 2207              	.LBE1480:
 2208              	.LBE1554:
 2209              	.LBB1555:
 2210              	.LBB1550:
 2211              	.LBB1493:
 2212              	.LBB1490:
  66:../../libDaisy//src/dev/mpr121.h ****     }
ARM GAS  /var/folders/hl/qgbwny5j0fd895c2c41bk3tw0000gp/T//cckqgw4a.s 			page 68


 2213              		.loc 13 66 40 view .LVU493
 2214 04e4 0095     		str	r5, [sp]
 2215 04e6 5648     		ldr	r0, .L16
 2216              	.LVL106:
  66:../../libDaisy//src/dev/mpr121.h ****     }
 2217              		.loc 13 66 40 view .LVU494
 2218              	.LBE1490:
 2219              	.LBE1493:
 2220              	.LBE1550:
 2221              	.LBE1555:
 2222              	.LBB1556:
 2223              	.LBB1481:
 2224              	.LBB1477:
 2225              	.LBB1475:
 2226              		.loc 13 343 55 view .LVU495
 2227 04e8 84F83030 		strb	r3, [r4, #48]
 2228              	.LVL107:
 2229              		.loc 13 343 55 view .LVU496
 2230              	.LBE1475:
 2231              	.LBE1477:
 2232              	.LBE1481:
 2233              	.LBE1556:
 2234              	.LBB1557:
 2235              	.LBI1486:
 257:../../libDaisy//src/dev/mpr121.h ****     {
 2236              		.loc 13 257 10 is_stmt 1 view .LVU497
 2237              	.LBB1551:
 2238              	.LBB1494:
 2239              	.LBI1488:
  63:../../libDaisy//src/dev/mpr121.h ****     {
 2240              		.loc 13 63 10 view .LVU498
 2241              	.LBB1491:
  65:../../libDaisy//src/dev/mpr121.h ****                != i2c_.TransmitBlocking(config_.dev_addr, data, size, 10);
 2242              		.loc 13 65 9 view .LVU499
  66:../../libDaisy//src/dev/mpr121.h ****     }
 2243              		.loc 13 66 40 is_stmt 0 view .LVU500
 2244 04ec 3B46     		mov	r3, r7
 2245              	.LBE1491:
 2246              	.LBE1494:
 264:../../libDaisy//src/dev/mpr121.h **** 
 2247              		.loc 13 264 17 view .LVU501
 2248 04ee 8DF81D80 		strb	r8, [sp, #29]
 2249 04f2 8DF81C60 		strb	r6, [sp, #28]
 2250              	.LBB1495:
 2251              	.LBB1492:
  66:../../libDaisy//src/dev/mpr121.h ****     }
 2252              		.loc 13 66 40 view .LVU502
 2253 04f6 FFF7FEFF 		bl	_ZN5daisy9I2CHandle16TransmitBlockingEtPhtm
 2254              	.LVL108:
  66:../../libDaisy//src/dev/mpr121.h ****     }
 2255              		.loc 13 66 40 view .LVU503
 2256              	.LBE1492:
 2257              	.LBE1495:
 2258              	.LBB1496:
 2259              	.LBI1496:
 2260              		.loc 13 343 10 is_stmt 1 view .LVU504
 2261              	.LBB1497:
ARM GAS  /var/folders/hl/qgbwny5j0fd895c2c41bk3tw0000gp/T//cckqgw4a.s 			page 69


 2262              		.loc 13 343 55 is_stmt 0 view .LVU505
 2263 04fa 94F83030 		ldrb	r3, [r4, #48]	@ zero_extendqisi2
 2264              	.LBE1497:
 2265              	.LBE1496:
 2266              	.LBB1500:
 2267              	.LBB1501:
  73:../../libDaisy//src/dev/mpr121.h ****     }
 2268              		.loc 13 73 39 view .LVU506
 2269 04fe 02AA     		add	r2, sp, #8
 2270 0500 94F82C10 		ldrb	r1, [r4, #44]	@ zero_extendqisi2
 2271              	.LBE1501:
 2272              	.LBE1500:
 2273              	.LBB1504:
 2274              	.LBB1498:
 2275              		.loc 13 343 55 view .LVU507
 2276 0504 4045     		cmp	r0, r8
 2277 0506 18BF     		it	ne
 2278 0508 43F00103 		orrne	r3, r3, #1
 2279              	.LBE1498:
 2280              	.LBE1504:
 2281              	.LBB1505:
 2282              	.LBB1502:
  73:../../libDaisy//src/dev/mpr121.h ****     }
 2283              		.loc 13 73 39 view .LVU508
 2284 050c 0095     		str	r5, [sp]
 2285 050e 4C48     		ldr	r0, .L16
 2286              	.LVL109:
  73:../../libDaisy//src/dev/mpr121.h ****     }
 2287              		.loc 13 73 39 view .LVU509
 2288              	.LBE1502:
 2289              	.LBE1505:
 2290              	.LBB1506:
 2291              	.LBB1499:
 2292              		.loc 13 343 55 view .LVU510
 2293 0510 84F83030 		strb	r3, [r4, #48]
 2294              	.LVL110:
 2295              		.loc 13 343 55 view .LVU511
 2296              	.LBE1499:
 2297              	.LBE1506:
 2298              	.LBB1507:
 2299              	.LBI1500:
  70:../../libDaisy//src/dev/mpr121.h ****     {
 2300              		.loc 13 70 10 is_stmt 1 view .LVU512
 2301              	.LBB1503:
  72:../../libDaisy//src/dev/mpr121.h ****                != i2c_.ReceiveBlocking(config_.dev_addr, data, size, 10);
 2302              		.loc 13 72 9 view .LVU513
  73:../../libDaisy//src/dev/mpr121.h ****     }
 2303              		.loc 13 73 39 is_stmt 0 view .LVU514
 2304 0514 3B46     		mov	r3, r7
 2305 0516 FFF7FEFF 		bl	_ZN5daisy9I2CHandle15ReceiveBlockingEtPhtm
 2306              	.LVL111:
  73:../../libDaisy//src/dev/mpr121.h ****     }
 2307              		.loc 13 73 39 view .LVU515
 2308              	.LBE1503:
 2309              	.LBE1507:
 2310              	.LBB1508:
 2311              	.LBI1508:
ARM GAS  /var/folders/hl/qgbwny5j0fd895c2c41bk3tw0000gp/T//cckqgw4a.s 			page 70


 2312              		.loc 13 343 10 is_stmt 1 view .LVU516
 2313              	.LBB1509:
 2314              		.loc 13 343 55 is_stmt 0 view .LVU517
 2315 051a 94F83030 		ldrb	r3, [r4, #48]	@ zero_extendqisi2
 2316              	.LBE1509:
 2317              	.LBE1508:
 2318              	.LBB1512:
 2319              	.LBB1513:
  66:../../libDaisy//src/dev/mpr121.h ****     }
 2320              		.loc 13 66 40 view .LVU518
 2321 051e 07AA     		add	r2, sp, #28
 2322 0520 94F82C10 		ldrb	r1, [r4, #44]	@ zero_extendqisi2
 2323              	.LBE1513:
 2324              	.LBE1512:
 2325              	.LBB1516:
 2326              	.LBB1510:
 2327              		.loc 13 343 55 view .LVU519
 2328 0524 4045     		cmp	r0, r8
 2329 0526 18BF     		it	ne
 2330 0528 43F00103 		orrne	r3, r3, #1
 2331              	.LBE1510:
 2332              	.LBE1516:
 2333              	.LBB1517:
 2334              	.LBB1514:
  66:../../libDaisy//src/dev/mpr121.h ****     }
 2335              		.loc 13 66 40 view .LVU520
 2336 052c 0095     		str	r5, [sp]
 2337 052e 4448     		ldr	r0, .L16
 2338              	.LVL112:
  66:../../libDaisy//src/dev/mpr121.h ****     }
 2339              		.loc 13 66 40 view .LVU521
 2340              	.LBE1514:
 2341              	.LBE1517:
 2342              	.LBB1518:
 2343              	.LBB1511:
 2344              		.loc 13 343 55 view .LVU522
 2345 0530 84F83030 		strb	r3, [r4, #48]
 2346              	.LVL113:
 2347              		.loc 13 343 55 view .LVU523
 2348              	.LBE1511:
 2349              	.LBE1518:
 2350              	.LBB1519:
 2351              	.LBI1512:
  63:../../libDaisy//src/dev/mpr121.h ****     {
 2352              		.loc 13 63 10 is_stmt 1 view .LVU524
 2353              	.LBB1515:
  65:../../libDaisy//src/dev/mpr121.h ****                != i2c_.TransmitBlocking(config_.dev_addr, data, size, 10);
 2354              		.loc 13 65 9 view .LVU525
  66:../../libDaisy//src/dev/mpr121.h ****     }
 2355              		.loc 13 66 40 is_stmt 0 view .LVU526
 2356 0534 0223     		movs	r3, #2
 2357 0536 FFF7FEFF 		bl	_ZN5daisy9I2CHandle16TransmitBlockingEtPhtm
 2358              	.LVL114:
  66:../../libDaisy//src/dev/mpr121.h ****     }
 2359              		.loc 13 66 40 view .LVU527
 2360              	.LBE1515:
 2361              	.LBE1519:
ARM GAS  /var/folders/hl/qgbwny5j0fd895c2c41bk3tw0000gp/T//cckqgw4a.s 			page 71


 2362              	.LBB1520:
 2363              	.LBI1520:
 2364              		.loc 13 343 10 is_stmt 1 view .LVU528
 2365              	.LBB1521:
 2366              		.loc 13 343 55 is_stmt 0 view .LVU529
 2367 053a 94F83030 		ldrb	r3, [r4, #48]	@ zero_extendqisi2
 2368              	.LBE1521:
 2369              	.LBE1520:
 2370              	.LBB1524:
 2371              	.LBB1525:
  66:../../libDaisy//src/dev/mpr121.h ****     }
 2372              		.loc 13 66 40 view .LVU530
 2373 053e 07AA     		add	r2, sp, #28
 2374 0540 94F82C10 		ldrb	r1, [r4, #44]	@ zero_extendqisi2
 2375              	.LBE1525:
 2376              	.LBE1524:
 2377              	.LBB1528:
 2378              	.LBB1522:
 2379              		.loc 13 343 55 view .LVU531
 2380 0544 4045     		cmp	r0, r8
 2381 0546 18BF     		it	ne
 2382 0548 43F00103 		orrne	r3, r3, #1
 2383              	.LBE1522:
 2384              	.LBE1528:
 2385              	.LBB1529:
 2386              	.LBB1526:
  66:../../libDaisy//src/dev/mpr121.h ****     }
 2387              		.loc 13 66 40 view .LVU532
 2388 054c 0095     		str	r5, [sp]
 2389 054e 3C48     		ldr	r0, .L16
 2390              	.LVL115:
  66:../../libDaisy//src/dev/mpr121.h ****     }
 2391              		.loc 13 66 40 view .LVU533
 2392              	.LBE1526:
 2393              	.LBE1529:
 2394              	.LBB1530:
 2395              	.LBB1523:
 2396              		.loc 13 343 55 view .LVU534
 2397 0550 84F83030 		strb	r3, [r4, #48]
 2398              	.LVL116:
 2399              		.loc 13 343 55 view .LVU535
 2400              	.LBE1523:
 2401              	.LBE1530:
 281:../../libDaisy//src/dev/mpr121.h ****         buff[1] = value;
 2402              		.loc 13 281 17 view .LVU536
 2403 0554 2D23     		movs	r3, #45
 2404 0556 8DF81C30 		strb	r3, [sp, #28]
 282:../../libDaisy//src/dev/mpr121.h ****         SetTransportErr(transport_.Write(buff, 2));
 2405              		.loc 13 282 17 view .LVU537
 2406 055a 0E23     		movs	r3, #14
 2407 055c 8DF81D30 		strb	r3, [sp, #29]
 2408              	.LVL117:
 2409              	.LBB1531:
 2410              	.LBI1524:
  63:../../libDaisy//src/dev/mpr121.h ****     {
 2411              		.loc 13 63 10 is_stmt 1 view .LVU538
 2412              	.LBB1527:
ARM GAS  /var/folders/hl/qgbwny5j0fd895c2c41bk3tw0000gp/T//cckqgw4a.s 			page 72


  65:../../libDaisy//src/dev/mpr121.h ****                != i2c_.TransmitBlocking(config_.dev_addr, data, size, 10);
 2413              		.loc 13 65 9 view .LVU539
  66:../../libDaisy//src/dev/mpr121.h ****     }
 2414              		.loc 13 66 40 is_stmt 0 view .LVU540
 2415 0560 0223     		movs	r3, #2
 2416 0562 FFF7FEFF 		bl	_ZN5daisy9I2CHandle16TransmitBlockingEtPhtm
 2417              	.LVL118:
  66:../../libDaisy//src/dev/mpr121.h ****     }
 2418              		.loc 13 66 40 view .LVU541
 2419              	.LBE1527:
 2420              	.LBE1531:
 2421              	.LBB1532:
 2422              	.LBI1532:
 2423              		.loc 13 343 10 is_stmt 1 view .LVU542
 2424              	.LBB1533:
 2425              		.loc 13 343 55 is_stmt 0 view .LVU543
 2426 0566 94F83030 		ldrb	r3, [r4, #48]	@ zero_extendqisi2
 2427              	.LBE1533:
 2428              	.LBE1532:
 2429              	.LBB1536:
 2430              	.LBB1537:
  66:../../libDaisy//src/dev/mpr121.h ****     }
 2431              		.loc 13 66 40 view .LVU544
 2432 056a 07AA     		add	r2, sp, #28
 2433 056c 94F82C10 		ldrb	r1, [r4, #44]	@ zero_extendqisi2
 2434              	.LBE1537:
 2435              	.LBE1536:
 2436              	.LBB1540:
 2437              	.LBB1534:
 2438              		.loc 13 343 55 view .LVU545
 2439 0570 4045     		cmp	r0, r8
 2440 0572 18BF     		it	ne
 2441 0574 43F00103 		orrne	r3, r3, #1
 2442              	.LBE1534:
 2443              	.LBE1540:
 2444              	.LBB1541:
 2445              	.LBB1538:
  66:../../libDaisy//src/dev/mpr121.h ****     }
 2446              		.loc 13 66 40 view .LVU546
 2447 0578 0095     		str	r5, [sp]
 2448 057a 3148     		ldr	r0, .L16
 2449              	.LVL119:
  66:../../libDaisy//src/dev/mpr121.h ****     }
 2450              		.loc 13 66 40 view .LVU547
 2451              	.LBE1538:
 2452              	.LBE1541:
 2453              	.LBB1542:
 2454              	.LBB1535:
 2455              		.loc 13 343 55 view .LVU548
 2456 057c 84F83030 		strb	r3, [r4, #48]
 2457              	.LVL120:
 2458              		.loc 13 343 55 view .LVU549
 2459              	.LBE1535:
 2460              	.LBE1542:
 289:../../libDaisy//src/dev/mpr121.h ****             SetTransportErr(transport_.Write(buff, 2));
 2461              		.loc 13 289 21 view .LVU550
 2462 0580 9DF80830 		ldrb	r3, [sp, #8]	@ zero_extendqisi2
ARM GAS  /var/folders/hl/qgbwny5j0fd895c2c41bk3tw0000gp/T//cckqgw4a.s 			page 73


 288:../../libDaisy//src/dev/mpr121.h ****             buff[1] = ecr_backup;
 2463              		.loc 13 288 21 view .LVU551
 2464 0584 8DF81C60 		strb	r6, [sp, #28]
 289:../../libDaisy//src/dev/mpr121.h ****             SetTransportErr(transport_.Write(buff, 2));
 2465              		.loc 13 289 21 view .LVU552
 2466 0588 8DF81D30 		strb	r3, [sp, #29]
 2467              	.LVL121:
 2468              	.LBB1543:
 2469              	.LBI1536:
  63:../../libDaisy//src/dev/mpr121.h ****     {
 2470              		.loc 13 63 10 is_stmt 1 view .LVU553
 2471              	.LBB1539:
  65:../../libDaisy//src/dev/mpr121.h ****                != i2c_.TransmitBlocking(config_.dev_addr, data, size, 10);
 2472              		.loc 13 65 9 view .LVU554
  66:../../libDaisy//src/dev/mpr121.h ****     }
 2473              		.loc 13 66 40 is_stmt 0 view .LVU555
 2474 058c 0223     		movs	r3, #2
 2475 058e FFF7FEFF 		bl	_ZN5daisy9I2CHandle16TransmitBlockingEtPhtm
 2476              	.LVL122:
  66:../../libDaisy//src/dev/mpr121.h ****     }
 2477              		.loc 13 66 40 view .LVU556
 2478              	.LBE1539:
 2479              	.LBE1543:
 2480              	.LBB1544:
 2481              	.LBI1544:
 2482              		.loc 13 343 10 is_stmt 1 view .LVU557
 2483              	.LBB1545:
 2484              		.loc 13 343 55 is_stmt 0 view .LVU558
 2485 0592 94F83030 		ldrb	r3, [r4, #48]	@ zero_extendqisi2
 2486              	.LBE1545:
 2487              	.LBE1544:
 2488              	.LBE1551:
 2489              	.LBE1557:
 2490              	.LBB1558:
 2491              	.LBB1559:
 2492              	.LBB1560:
 2493              	.LBB1561:
  66:../../libDaisy//src/dev/mpr121.h ****     }
 2494              		.loc 13 66 40 view .LVU559
 2495 0596 07AA     		add	r2, sp, #28
 2496 0598 94F82C10 		ldrb	r1, [r4, #44]	@ zero_extendqisi2
 2497              	.LBE1561:
 2498              	.LBE1560:
 2499              	.LBE1559:
 2500              	.LBE1558:
 2501              	.LBB1628:
 2502              	.LBB1552:
 2503              	.LBB1548:
 2504              	.LBB1546:
 2505              		.loc 13 343 55 view .LVU560
 2506 059c 4045     		cmp	r0, r8
 2507 059e 18BF     		it	ne
 2508 05a0 43F00103 		orrne	r3, r3, #1
 2509              	.LBE1546:
 2510              	.LBE1548:
 2511              	.LBE1552:
 2512              	.LBE1628:
ARM GAS  /var/folders/hl/qgbwny5j0fd895c2c41bk3tw0000gp/T//cckqgw4a.s 			page 74


 2513              	.LBB1629:
 2514              	.LBB1624:
 2515              	.LBB1565:
 2516              	.LBB1562:
  66:../../libDaisy//src/dev/mpr121.h ****     }
 2517              		.loc 13 66 40 view .LVU561
 2518 05a4 0095     		str	r5, [sp]
 2519 05a6 2648     		ldr	r0, .L16
 2520              	.LVL123:
  66:../../libDaisy//src/dev/mpr121.h ****     }
 2521              		.loc 13 66 40 view .LVU562
 2522              	.LBE1562:
 2523              	.LBE1565:
 2524              	.LBE1624:
 2525              	.LBE1629:
 2526              	.LBB1630:
 2527              	.LBB1553:
 2528              	.LBB1549:
 2529              	.LBB1547:
 2530              		.loc 13 343 55 view .LVU563
 2531 05a8 84F83030 		strb	r3, [r4, #48]
 2532              	.LVL124:
 2533              		.loc 13 343 55 view .LVU564
 2534              	.LBE1547:
 2535              	.LBE1549:
 2536              	.LBE1553:
 2537              	.LBE1630:
 2538              	.LBB1631:
 2539              	.LBI1558:
 257:../../libDaisy//src/dev/mpr121.h ****     {
 2540              		.loc 13 257 10 is_stmt 1 view .LVU565
 2541              	.LBB1625:
 2542              	.LBB1566:
 2543              	.LBI1560:
  63:../../libDaisy//src/dev/mpr121.h ****     {
 2544              		.loc 13 63 10 view .LVU566
 2545              	.LBB1563:
  65:../../libDaisy//src/dev/mpr121.h ****                != i2c_.TransmitBlocking(config_.dev_addr, data, size, 10);
 2546              		.loc 13 65 9 view .LVU567
  66:../../libDaisy//src/dev/mpr121.h ****     }
 2547              		.loc 13 66 40 is_stmt 0 view .LVU568
 2548 05ac 3B46     		mov	r3, r7
 2549              	.LBE1563:
 2550              	.LBE1566:
 264:../../libDaisy//src/dev/mpr121.h **** 
 2551              		.loc 13 264 17 view .LVU569
 2552 05ae 8DF81D80 		strb	r8, [sp, #29]
 2553 05b2 8DF81C60 		strb	r6, [sp, #28]
 2554              	.LBB1567:
 2555              	.LBB1564:
  66:../../libDaisy//src/dev/mpr121.h ****     }
 2556              		.loc 13 66 40 view .LVU570
 2557 05b6 FFF7FEFF 		bl	_ZN5daisy9I2CHandle16TransmitBlockingEtPhtm
 2558              	.LVL125:
  66:../../libDaisy//src/dev/mpr121.h ****     }
 2559              		.loc 13 66 40 view .LVU571
 2560              	.LBE1564:
ARM GAS  /var/folders/hl/qgbwny5j0fd895c2c41bk3tw0000gp/T//cckqgw4a.s 			page 75


 2561              	.LBE1567:
 2562              	.LBB1568:
 2563              	.LBI1568:
 2564              		.loc 13 343 10 is_stmt 1 view .LVU572
 2565              	.LBB1569:
 2566              		.loc 13 343 55 is_stmt 0 view .LVU573
 2567 05ba 94F83030 		ldrb	r3, [r4, #48]	@ zero_extendqisi2
 2568              	.LBE1569:
 2569              	.LBE1568:
 2570              	.LBB1572:
 2571              	.LBB1573:
  73:../../libDaisy//src/dev/mpr121.h ****     }
 2572              		.loc 13 73 39 view .LVU574
 2573 05be 02AA     		add	r2, sp, #8
 2574 05c0 94F82C10 		ldrb	r1, [r4, #44]	@ zero_extendqisi2
 2575              	.LBE1573:
 2576              	.LBE1572:
 2577              	.LBB1576:
 2578              	.LBB1570:
 2579              		.loc 13 343 55 view .LVU575
 2580 05c4 4045     		cmp	r0, r8
 2581 05c6 18BF     		it	ne
 2582 05c8 43F00103 		orrne	r3, r3, #1
 2583              	.LBE1570:
 2584              	.LBE1576:
 2585              	.LBB1577:
 2586              	.LBB1574:
  73:../../libDaisy//src/dev/mpr121.h ****     }
 2587              		.loc 13 73 39 view .LVU576
 2588 05cc 0095     		str	r5, [sp]
 2589 05ce 1C48     		ldr	r0, .L16
 2590              	.LVL126:
  73:../../libDaisy//src/dev/mpr121.h ****     }
 2591              		.loc 13 73 39 view .LVU577
 2592              	.LBE1574:
 2593              	.LBE1577:
 2594              	.LBB1578:
 2595              	.LBB1571:
 2596              		.loc 13 343 55 view .LVU578
 2597 05d0 84F83030 		strb	r3, [r4, #48]
 2598              	.LVL127:
 2599              		.loc 13 343 55 view .LVU579
 2600              	.LBE1571:
 2601              	.LBE1578:
 2602              	.LBB1579:
 2603              	.LBI1572:
  70:../../libDaisy//src/dev/mpr121.h ****     {
 2604              		.loc 13 70 10 is_stmt 1 view .LVU580
 2605              	.LBB1575:
  72:../../libDaisy//src/dev/mpr121.h ****                != i2c_.ReceiveBlocking(config_.dev_addr, data, size, 10);
 2606              		.loc 13 72 9 view .LVU581
  73:../../libDaisy//src/dev/mpr121.h ****     }
 2607              		.loc 13 73 39 is_stmt 0 view .LVU582
 2608 05d4 3B46     		mov	r3, r7
 2609 05d6 FFF7FEFF 		bl	_ZN5daisy9I2CHandle15ReceiveBlockingEtPhtm
 2610              	.LVL128:
  73:../../libDaisy//src/dev/mpr121.h ****     }
ARM GAS  /var/folders/hl/qgbwny5j0fd895c2c41bk3tw0000gp/T//cckqgw4a.s 			page 76


 2611              		.loc 13 73 39 view .LVU583
 2612              	.LBE1575:
 2613              	.LBE1579:
 2614              	.LBB1580:
 2615              	.LBI1580:
 2616              		.loc 13 343 10 is_stmt 1 view .LVU584
 2617              	.LBB1581:
 2618              		.loc 13 343 55 is_stmt 0 view .LVU585
 2619 05da 94F83030 		ldrb	r3, [r4, #48]	@ zero_extendqisi2
 2620              	.LBE1581:
 2621              	.LBE1580:
 2622              	.LBB1584:
 2623              	.LBB1585:
  66:../../libDaisy//src/dev/mpr121.h ****     }
 2624              		.loc 13 66 40 view .LVU586
 2625 05de 07AA     		add	r2, sp, #28
 2626 05e0 94F82C10 		ldrb	r1, [r4, #44]	@ zero_extendqisi2
 2627              	.LBE1585:
 2628              	.LBE1584:
 2629              	.LBB1588:
 2630              	.LBB1582:
 2631              		.loc 13 343 55 view .LVU587
 2632 05e4 4045     		cmp	r0, r8
 2633 05e6 18BF     		it	ne
 2634 05e8 43F00103 		orrne	r3, r3, #1
 2635              	.LBE1582:
 2636              	.LBE1588:
 2637              	.LBB1589:
 2638              	.LBB1586:
  66:../../libDaisy//src/dev/mpr121.h ****     }
 2639              		.loc 13 66 40 view .LVU588
 2640 05ec 0095     		str	r5, [sp]
 2641 05ee 1448     		ldr	r0, .L16
 2642              	.LVL129:
  66:../../libDaisy//src/dev/mpr121.h ****     }
 2643              		.loc 13 66 40 view .LVU589
 2644              	.LBE1586:
 2645              	.LBE1589:
 2646              	.LBB1590:
 2647              	.LBB1583:
 2648              		.loc 13 343 55 view .LVU590
 2649 05f0 84F83030 		strb	r3, [r4, #48]
 2650              	.LVL130:
 2651              		.loc 13 343 55 view .LVU591
 2652              	.LBE1583:
 2653              	.LBE1590:
 2654              	.LBB1591:
 2655              	.LBI1584:
  63:../../libDaisy//src/dev/mpr121.h ****     {
 2656              		.loc 13 63 10 is_stmt 1 view .LVU592
 2657              	.LBB1587:
  65:../../libDaisy//src/dev/mpr121.h ****                != i2c_.TransmitBlocking(config_.dev_addr, data, size, 10);
 2658              		.loc 13 65 9 view .LVU593
  66:../../libDaisy//src/dev/mpr121.h ****     }
 2659              		.loc 13 66 40 is_stmt 0 view .LVU594
 2660 05f4 0223     		movs	r3, #2
 2661 05f6 FFF7FEFF 		bl	_ZN5daisy9I2CHandle16TransmitBlockingEtPhtm
ARM GAS  /var/folders/hl/qgbwny5j0fd895c2c41bk3tw0000gp/T//cckqgw4a.s 			page 77


 2662              	.LVL131:
  66:../../libDaisy//src/dev/mpr121.h ****     }
 2663              		.loc 13 66 40 view .LVU595
 2664              	.LBE1587:
 2665              	.LBE1591:
 2666              	.LBB1592:
 2667              	.LBI1592:
 2668              		.loc 13 343 10 is_stmt 1 view .LVU596
 2669              	.LBB1593:
 2670              		.loc 13 343 55 is_stmt 0 view .LVU597
 2671 05fa 94F83030 		ldrb	r3, [r4, #48]	@ zero_extendqisi2
 2672              	.LBE1593:
 2673              	.LBE1592:
 2674              	.LBB1596:
 2675              	.LBB1597:
  66:../../libDaisy//src/dev/mpr121.h ****     }
 2676              		.loc 13 66 40 view .LVU598
 2677 05fe 07AA     		add	r2, sp, #28
 2678 0600 94F82C10 		ldrb	r1, [r4, #44]	@ zero_extendqisi2
 2679              	.LBE1597:
 2680              	.LBE1596:
 2681              	.LBB1601:
 2682              	.LBB1594:
 2683              		.loc 13 343 55 view .LVU599
 2684 0604 4045     		cmp	r0, r8
 2685 0606 18BF     		it	ne
 2686 0608 43F00103 		orrne	r3, r3, #1
 2687              	.LBE1594:
 2688              	.LBE1601:
 2689              	.LBB1602:
 2690              	.LBB1598:
  66:../../libDaisy//src/dev/mpr121.h ****     }
 2691              		.loc 13 66 40 view .LVU600
 2692 060c 0095     		str	r5, [sp]
 2693 060e 0C48     		ldr	r0, .L16
 2694              	.LVL132:
  66:../../libDaisy//src/dev/mpr121.h ****     }
 2695              		.loc 13 66 40 view .LVU601
 2696              	.LBE1598:
 2697              	.LBE1602:
 2698              	.LBB1603:
 2699              	.LBB1595:
 2700              		.loc 13 343 55 view .LVU602
 2701 0610 84F83030 		strb	r3, [r4, #48]
 2702              	.LVL133:
 2703              		.loc 13 343 55 view .LVU603
 2704              	.LBE1595:
 2705              	.LBE1603:
 2706              	.LBB1604:
 2707              	.LBI1596:
  63:../../libDaisy//src/dev/mpr121.h ****     {
 2708              		.loc 13 63 10 is_stmt 1 view .LVU604
 2709              	.LBB1599:
  65:../../libDaisy//src/dev/mpr121.h ****                != i2c_.TransmitBlocking(config_.dev_addr, data, size, 10);
 2710              		.loc 13 65 9 view .LVU605
 2711              	.LBE1599:
 2712              	.LBE1604:
ARM GAS  /var/folders/hl/qgbwny5j0fd895c2c41bk3tw0000gp/T//cckqgw4a.s 			page 78


 281:../../libDaisy//src/dev/mpr121.h ****         buff[1] = value;
 2713              		.loc 13 281 17 is_stmt 0 view .LVU606
 2714 0614 2E23     		movs	r3, #46
 282:../../libDaisy//src/dev/mpr121.h ****         SetTransportErr(transport_.Write(buff, 2));
 2715              		.loc 13 282 17 view .LVU607
 2716 0616 8DF81D80 		strb	r8, [sp, #29]
 281:../../libDaisy//src/dev/mpr121.h ****         buff[1] = value;
 2717              		.loc 13 281 17 view .LVU608
 2718 061a 8DF81C30 		strb	r3, [sp, #28]
 2719              	.LBB1605:
 2720              	.LBB1600:
  66:../../libDaisy//src/dev/mpr121.h ****     }
 2721              		.loc 13 66 40 view .LVU609
 2722 061e 0223     		movs	r3, #2
 2723 0620 FFF7FEFF 		bl	_ZN5daisy9I2CHandle16TransmitBlockingEtPhtm
 2724              	.LVL134:
  66:../../libDaisy//src/dev/mpr121.h ****     }
 2725              		.loc 13 66 40 view .LVU610
 2726              	.LBE1600:
 2727              	.LBE1605:
 2728              	.LBB1606:
 2729              	.LBI1606:
 2730              		.loc 13 343 10 is_stmt 1 view .LVU611
 2731              	.LBB1607:
 2732              		.loc 13 343 55 is_stmt 0 view .LVU612
 2733 0624 94F83030 		ldrb	r3, [r4, #48]	@ zero_extendqisi2
 2734              	.LBE1607:
 2735              	.LBE1606:
 2736              	.LBB1610:
 2737              	.LBB1611:
  66:../../libDaisy//src/dev/mpr121.h ****     }
 2738              		.loc 13 66 40 view .LVU613
 2739 0628 07AA     		add	r2, sp, #28
 2740 062a 94F82C10 		ldrb	r1, [r4, #44]	@ zero_extendqisi2
 2741              	.LBE1611:
 2742              	.LBE1610:
 2743              	.LBB1614:
 2744              	.LBB1608:
 2745              		.loc 13 343 55 view .LVU614
 2746 062e 4045     		cmp	r0, r8
 2747 0630 18BF     		it	ne
 2748 0632 43F00103 		orrne	r3, r3, #1
 2749              	.LBE1608:
 2750              	.LBE1614:
 2751              	.LBB1615:
 2752              	.LBB1612:
  66:../../libDaisy//src/dev/mpr121.h ****     }
 2753              		.loc 13 66 40 view .LVU615
 2754 0636 0095     		str	r5, [sp]
 2755 0638 0148     		ldr	r0, .L16
 2756              	.LVL135:
  66:../../libDaisy//src/dev/mpr121.h ****     }
 2757              		.loc 13 66 40 view .LVU616
 2758              	.LBE1612:
 2759              	.LBE1615:
 2760              	.LBB1616:
 2761              	.LBB1609:
ARM GAS  /var/folders/hl/qgbwny5j0fd895c2c41bk3tw0000gp/T//cckqgw4a.s 			page 79


 2762              		.loc 13 343 55 view .LVU617
 2763 063a 84F83030 		strb	r3, [r4, #48]
 2764 063e 01E0     		b	.L17
 2765              	.L18:
 2766              		.align	2
 2767              	.L16:
 2768 0640 18000000 		.word	.LANCHOR0+24
 2769              	.L17:
 2770              	.LVL136:
 2771              		.loc 13 343 55 view .LVU618
 2772              	.LBE1609:
 2773              	.LBE1616:
 289:../../libDaisy//src/dev/mpr121.h ****             SetTransportErr(transport_.Write(buff, 2));
 2774              		.loc 13 289 21 view .LVU619
 2775 0644 9DF80830 		ldrb	r3, [sp, #8]	@ zero_extendqisi2
 288:../../libDaisy//src/dev/mpr121.h ****             buff[1] = ecr_backup;
 2776              		.loc 13 288 21 view .LVU620
 2777 0648 8DF81C60 		strb	r6, [sp, #28]
 289:../../libDaisy//src/dev/mpr121.h ****             SetTransportErr(transport_.Write(buff, 2));
 2778              		.loc 13 289 21 view .LVU621
 2779 064c 8DF81D30 		strb	r3, [sp, #29]
 2780              	.LVL137:
 2781              	.LBB1617:
 2782              	.LBI1610:
  63:../../libDaisy//src/dev/mpr121.h ****     {
 2783              		.loc 13 63 10 is_stmt 1 view .LVU622
 2784              	.LBB1613:
  65:../../libDaisy//src/dev/mpr121.h ****                != i2c_.TransmitBlocking(config_.dev_addr, data, size, 10);
 2785              		.loc 13 65 9 view .LVU623
  66:../../libDaisy//src/dev/mpr121.h ****     }
 2786              		.loc 13 66 40 is_stmt 0 view .LVU624
 2787 0650 0223     		movs	r3, #2
 2788 0652 FFF7FEFF 		bl	_ZN5daisy9I2CHandle16TransmitBlockingEtPhtm
 2789              	.LVL138:
  66:../../libDaisy//src/dev/mpr121.h ****     }
 2790              		.loc 13 66 40 view .LVU625
 2791              	.LBE1613:
 2792              	.LBE1617:
 2793              	.LBB1618:
 2794              	.LBI1618:
 2795              		.loc 13 343 10 is_stmt 1 view .LVU626
 2796              	.LBB1619:
 2797              		.loc 13 343 55 is_stmt 0 view .LVU627
 2798 0656 94F83030 		ldrb	r3, [r4, #48]	@ zero_extendqisi2
 2799              	.LBE1619:
 2800              	.LBE1618:
 2801              	.LBE1625:
 2802              	.LBE1631:
 2803              	.LBB1632:
 2804              	.LBB1633:
 2805              	.LBB1634:
 2806              	.LBB1635:
  66:../../libDaisy//src/dev/mpr121.h ****     }
 2807              		.loc 13 66 40 view .LVU628
 2808 065a 07AA     		add	r2, sp, #28
 2809 065c 94F82C10 		ldrb	r1, [r4, #44]	@ zero_extendqisi2
 2810              	.LBE1635:
ARM GAS  /var/folders/hl/qgbwny5j0fd895c2c41bk3tw0000gp/T//cckqgw4a.s 			page 80


 2811              	.LBE1634:
 2812              	.LBE1633:
 2813              	.LBE1632:
 2814              	.LBB1702:
 2815              	.LBB1626:
 2816              	.LBB1622:
 2817              	.LBB1620:
 2818              		.loc 13 343 55 view .LVU629
 2819 0660 4045     		cmp	r0, r8
 2820 0662 18BF     		it	ne
 2821 0664 43F00103 		orrne	r3, r3, #1
 2822              	.LBE1620:
 2823              	.LBE1622:
 2824              	.LBE1626:
 2825              	.LBE1702:
 2826              	.LBB1703:
 2827              	.LBB1698:
 2828              	.LBB1639:
 2829              	.LBB1636:
  66:../../libDaisy//src/dev/mpr121.h ****     }
 2830              		.loc 13 66 40 view .LVU630
 2831 0668 0095     		str	r5, [sp]
 2832 066a C248     		ldr	r0, .L19
 2833              	.LVL139:
  66:../../libDaisy//src/dev/mpr121.h ****     }
 2834              		.loc 13 66 40 view .LVU631
 2835              	.LBE1636:
 2836              	.LBE1639:
 2837              	.LBE1698:
 2838              	.LBE1703:
 2839              	.LBB1704:
 2840              	.LBB1627:
 2841              	.LBB1623:
 2842              	.LBB1621:
 2843              		.loc 13 343 55 view .LVU632
 2844 066c 84F83030 		strb	r3, [r4, #48]
 2845              	.LVL140:
 2846              		.loc 13 343 55 view .LVU633
 2847              	.LBE1621:
 2848              	.LBE1623:
 2849              	.LBE1627:
 2850              	.LBE1704:
 2851              	.LBB1705:
 2852              	.LBI1632:
 257:../../libDaisy//src/dev/mpr121.h ****     {
 2853              		.loc 13 257 10 is_stmt 1 view .LVU634
 2854              	.LBB1699:
 2855              	.LBB1640:
 2856              	.LBI1634:
  63:../../libDaisy//src/dev/mpr121.h ****     {
 2857              		.loc 13 63 10 view .LVU635
 2858              	.LBB1637:
  65:../../libDaisy//src/dev/mpr121.h ****                != i2c_.TransmitBlocking(config_.dev_addr, data, size, 10);
 2859              		.loc 13 65 9 view .LVU636
  66:../../libDaisy//src/dev/mpr121.h ****     }
 2860              		.loc 13 66 40 is_stmt 0 view .LVU637
 2861 0670 3B46     		mov	r3, r7
ARM GAS  /var/folders/hl/qgbwny5j0fd895c2c41bk3tw0000gp/T//cckqgw4a.s 			page 81


 2862              	.LBE1637:
 2863              	.LBE1640:
 264:../../libDaisy//src/dev/mpr121.h **** 
 2864              		.loc 13 264 17 view .LVU638
 2865 0672 8DF81D80 		strb	r8, [sp, #29]
 2866 0676 8DF81C60 		strb	r6, [sp, #28]
 2867              	.LBB1641:
 2868              	.LBB1638:
  66:../../libDaisy//src/dev/mpr121.h ****     }
 2869              		.loc 13 66 40 view .LVU639
 2870 067a FFF7FEFF 		bl	_ZN5daisy9I2CHandle16TransmitBlockingEtPhtm
 2871              	.LVL141:
  66:../../libDaisy//src/dev/mpr121.h ****     }
 2872              		.loc 13 66 40 view .LVU640
 2873              	.LBE1638:
 2874              	.LBE1641:
 2875              	.LBB1642:
 2876              	.LBI1642:
 2877              		.loc 13 343 10 is_stmt 1 view .LVU641
 2878              	.LBB1643:
 2879              		.loc 13 343 55 is_stmt 0 view .LVU642
 2880 067e 94F83030 		ldrb	r3, [r4, #48]	@ zero_extendqisi2
 2881              	.LBE1643:
 2882              	.LBE1642:
 2883              	.LBB1646:
 2884              	.LBB1647:
  73:../../libDaisy//src/dev/mpr121.h ****     }
 2885              		.loc 13 73 39 view .LVU643
 2886 0682 02AA     		add	r2, sp, #8
 2887 0684 94F82C10 		ldrb	r1, [r4, #44]	@ zero_extendqisi2
 2888              	.LBE1647:
 2889              	.LBE1646:
 2890              	.LBB1650:
 2891              	.LBB1644:
 2892              		.loc 13 343 55 view .LVU644
 2893 0688 4045     		cmp	r0, r8
 2894 068a 18BF     		it	ne
 2895 068c 43F00103 		orrne	r3, r3, #1
 2896              	.LBE1644:
 2897              	.LBE1650:
 2898              	.LBB1651:
 2899              	.LBB1648:
  73:../../libDaisy//src/dev/mpr121.h ****     }
 2900              		.loc 13 73 39 view .LVU645
 2901 0690 0095     		str	r5, [sp]
 2902 0692 B848     		ldr	r0, .L19
 2903              	.LVL142:
  73:../../libDaisy//src/dev/mpr121.h ****     }
 2904              		.loc 13 73 39 view .LVU646
 2905              	.LBE1648:
 2906              	.LBE1651:
 2907              	.LBB1652:
 2908              	.LBB1645:
 2909              		.loc 13 343 55 view .LVU647
 2910 0694 84F83030 		strb	r3, [r4, #48]
 2911              	.LVL143:
 2912              		.loc 13 343 55 view .LVU648
ARM GAS  /var/folders/hl/qgbwny5j0fd895c2c41bk3tw0000gp/T//cckqgw4a.s 			page 82


 2913              	.LBE1645:
 2914              	.LBE1652:
 2915              	.LBB1653:
 2916              	.LBI1646:
  70:../../libDaisy//src/dev/mpr121.h ****     {
 2917              		.loc 13 70 10 is_stmt 1 view .LVU649
 2918              	.LBB1649:
  72:../../libDaisy//src/dev/mpr121.h ****                != i2c_.ReceiveBlocking(config_.dev_addr, data, size, 10);
 2919              		.loc 13 72 9 view .LVU650
  73:../../libDaisy//src/dev/mpr121.h ****     }
 2920              		.loc 13 73 39 is_stmt 0 view .LVU651
 2921 0698 3B46     		mov	r3, r7
 2922 069a FFF7FEFF 		bl	_ZN5daisy9I2CHandle15ReceiveBlockingEtPhtm
 2923              	.LVL144:
  73:../../libDaisy//src/dev/mpr121.h ****     }
 2924              		.loc 13 73 39 view .LVU652
 2925              	.LBE1649:
 2926              	.LBE1653:
 2927              	.LBB1654:
 2928              	.LBI1654:
 2929              		.loc 13 343 10 is_stmt 1 view .LVU653
 2930              	.LBB1655:
 2931              		.loc 13 343 55 is_stmt 0 view .LVU654
 2932 069e 94F83030 		ldrb	r3, [r4, #48]	@ zero_extendqisi2
 2933              	.LBE1655:
 2934              	.LBE1654:
 2935              	.LBB1658:
 2936              	.LBB1659:
  66:../../libDaisy//src/dev/mpr121.h ****     }
 2937              		.loc 13 66 40 view .LVU655
 2938 06a2 07AA     		add	r2, sp, #28
 2939 06a4 94F82C10 		ldrb	r1, [r4, #44]	@ zero_extendqisi2
 2940              	.LBE1659:
 2941              	.LBE1658:
 2942              	.LBB1662:
 2943              	.LBB1656:
 2944              		.loc 13 343 55 view .LVU656
 2945 06a8 4045     		cmp	r0, r8
 2946 06aa 18BF     		it	ne
 2947 06ac 43F00103 		orrne	r3, r3, #1
 2948              	.LBE1656:
 2949              	.LBE1662:
 2950              	.LBB1663:
 2951              	.LBB1660:
  66:../../libDaisy//src/dev/mpr121.h ****     }
 2952              		.loc 13 66 40 view .LVU657
 2953 06b0 0095     		str	r5, [sp]
 2954 06b2 B048     		ldr	r0, .L19
 2955              	.LVL145:
  66:../../libDaisy//src/dev/mpr121.h ****     }
 2956              		.loc 13 66 40 view .LVU658
 2957              	.LBE1660:
 2958              	.LBE1663:
 2959              	.LBB1664:
 2960              	.LBB1657:
 2961              		.loc 13 343 55 view .LVU659
 2962 06b4 84F83030 		strb	r3, [r4, #48]
ARM GAS  /var/folders/hl/qgbwny5j0fd895c2c41bk3tw0000gp/T//cckqgw4a.s 			page 83


 2963              	.LVL146:
 2964              		.loc 13 343 55 view .LVU660
 2965              	.LBE1657:
 2966              	.LBE1664:
 2967              	.LBB1665:
 2968              	.LBI1658:
  63:../../libDaisy//src/dev/mpr121.h ****     {
 2969              		.loc 13 63 10 is_stmt 1 view .LVU661
 2970              	.LBB1661:
  65:../../libDaisy//src/dev/mpr121.h ****                != i2c_.TransmitBlocking(config_.dev_addr, data, size, 10);
 2971              		.loc 13 65 9 view .LVU662
  66:../../libDaisy//src/dev/mpr121.h ****     }
 2972              		.loc 13 66 40 is_stmt 0 view .LVU663
 2973 06b8 0223     		movs	r3, #2
 2974 06ba FFF7FEFF 		bl	_ZN5daisy9I2CHandle16TransmitBlockingEtPhtm
 2975              	.LVL147:
  66:../../libDaisy//src/dev/mpr121.h ****     }
 2976              		.loc 13 66 40 view .LVU664
 2977              	.LBE1661:
 2978              	.LBE1665:
 2979              	.LBB1666:
 2980              	.LBI1666:
 2981              		.loc 13 343 10 is_stmt 1 view .LVU665
 2982              	.LBB1667:
 2983              		.loc 13 343 55 is_stmt 0 view .LVU666
 2984 06be 94F83030 		ldrb	r3, [r4, #48]	@ zero_extendqisi2
 2985              	.LBE1667:
 2986              	.LBE1666:
 2987              	.LBB1670:
 2988              	.LBB1671:
  66:../../libDaisy//src/dev/mpr121.h ****     }
 2989              		.loc 13 66 40 view .LVU667
 2990 06c2 07AA     		add	r2, sp, #28
 2991 06c4 94F82C10 		ldrb	r1, [r4, #44]	@ zero_extendqisi2
 2992              	.LBE1671:
 2993              	.LBE1670:
 2994              	.LBB1675:
 2995              	.LBB1668:
 2996              		.loc 13 343 55 view .LVU668
 2997 06c8 4045     		cmp	r0, r8
 2998 06ca 18BF     		it	ne
 2999 06cc 43F00103 		orrne	r3, r3, #1
 3000              	.LBE1668:
 3001              	.LBE1675:
 3002              	.LBB1676:
 3003              	.LBB1672:
  66:../../libDaisy//src/dev/mpr121.h ****     }
 3004              		.loc 13 66 40 view .LVU669
 3005 06d0 0095     		str	r5, [sp]
 3006 06d2 A848     		ldr	r0, .L19
 3007              	.LVL148:
  66:../../libDaisy//src/dev/mpr121.h ****     }
 3008              		.loc 13 66 40 view .LVU670
 3009              	.LBE1672:
 3010              	.LBE1676:
 3011              	.LBB1677:
 3012              	.LBB1669:
ARM GAS  /var/folders/hl/qgbwny5j0fd895c2c41bk3tw0000gp/T//cckqgw4a.s 			page 84


 3013              		.loc 13 343 55 view .LVU671
 3014 06d4 84F83030 		strb	r3, [r4, #48]
 3015              	.LVL149:
 3016              		.loc 13 343 55 view .LVU672
 3017              	.LBE1669:
 3018              	.LBE1677:
 3019              	.LBB1678:
 3020              	.LBI1670:
  63:../../libDaisy//src/dev/mpr121.h ****     {
 3021              		.loc 13 63 10 is_stmt 1 view .LVU673
 3022              	.LBB1673:
  65:../../libDaisy//src/dev/mpr121.h ****                != i2c_.TransmitBlocking(config_.dev_addr, data, size, 10);
 3023              		.loc 13 65 9 view .LVU674
 3024              	.LBE1673:
 3025              	.LBE1678:
 281:../../libDaisy//src/dev/mpr121.h ****         buff[1] = value;
 3026              		.loc 13 281 17 is_stmt 0 view .LVU675
 3027 06d8 2F23     		movs	r3, #47
 282:../../libDaisy//src/dev/mpr121.h ****         SetTransportErr(transport_.Write(buff, 2));
 3028              		.loc 13 282 17 view .LVU676
 3029 06da 8DF81D70 		strb	r7, [sp, #29]
 281:../../libDaisy//src/dev/mpr121.h ****         buff[1] = value;
 3030              		.loc 13 281 17 view .LVU677
 3031 06de 8DF81C30 		strb	r3, [sp, #28]
 3032              	.LBB1679:
 3033              	.LBB1674:
  66:../../libDaisy//src/dev/mpr121.h ****     }
 3034              		.loc 13 66 40 view .LVU678
 3035 06e2 0223     		movs	r3, #2
 3036 06e4 FFF7FEFF 		bl	_ZN5daisy9I2CHandle16TransmitBlockingEtPhtm
 3037              	.LVL150:
  66:../../libDaisy//src/dev/mpr121.h ****     }
 3038              		.loc 13 66 40 view .LVU679
 3039              	.LBE1674:
 3040              	.LBE1679:
 3041              	.LBB1680:
 3042              	.LBI1680:
 3043              		.loc 13 343 10 is_stmt 1 view .LVU680
 3044              	.LBB1681:
 3045              		.loc 13 343 55 is_stmt 0 view .LVU681
 3046 06e8 94F83030 		ldrb	r3, [r4, #48]	@ zero_extendqisi2
 3047              	.LBE1681:
 3048              	.LBE1680:
 3049              	.LBB1684:
 3050              	.LBB1685:
  66:../../libDaisy//src/dev/mpr121.h ****     }
 3051              		.loc 13 66 40 view .LVU682
 3052 06ec 07AA     		add	r2, sp, #28
 3053 06ee 94F82C10 		ldrb	r1, [r4, #44]	@ zero_extendqisi2
 3054              	.LBE1685:
 3055              	.LBE1684:
 3056              	.LBB1688:
 3057              	.LBB1682:
 3058              		.loc 13 343 55 view .LVU683
 3059 06f2 4045     		cmp	r0, r8
 3060 06f4 18BF     		it	ne
 3061 06f6 43F00103 		orrne	r3, r3, #1
ARM GAS  /var/folders/hl/qgbwny5j0fd895c2c41bk3tw0000gp/T//cckqgw4a.s 			page 85


 3062              	.LBE1682:
 3063              	.LBE1688:
 3064              	.LBB1689:
 3065              	.LBB1686:
  66:../../libDaisy//src/dev/mpr121.h ****     }
 3066              		.loc 13 66 40 view .LVU684
 3067 06fa 0095     		str	r5, [sp]
 3068 06fc 9D48     		ldr	r0, .L19
 3069              	.LVL151:
  66:../../libDaisy//src/dev/mpr121.h ****     }
 3070              		.loc 13 66 40 view .LVU685
 3071              	.LBE1686:
 3072              	.LBE1689:
 3073              	.LBB1690:
 3074              	.LBB1683:
 3075              		.loc 13 343 55 view .LVU686
 3076 06fe 84F83030 		strb	r3, [r4, #48]
 3077              	.LVL152:
 3078              		.loc 13 343 55 view .LVU687
 3079              	.LBE1683:
 3080              	.LBE1690:
 289:../../libDaisy//src/dev/mpr121.h ****             SetTransportErr(transport_.Write(buff, 2));
 3081              		.loc 13 289 21 view .LVU688
 3082 0702 9DF80830 		ldrb	r3, [sp, #8]	@ zero_extendqisi2
 288:../../libDaisy//src/dev/mpr121.h ****             buff[1] = ecr_backup;
 3083              		.loc 13 288 21 view .LVU689
 3084 0706 8DF81C60 		strb	r6, [sp, #28]
 289:../../libDaisy//src/dev/mpr121.h ****             SetTransportErr(transport_.Write(buff, 2));
 3085              		.loc 13 289 21 view .LVU690
 3086 070a 8DF81D30 		strb	r3, [sp, #29]
 3087              	.LVL153:
 3088              	.LBB1691:
 3089              	.LBI1684:
  63:../../libDaisy//src/dev/mpr121.h ****     {
 3090              		.loc 13 63 10 is_stmt 1 view .LVU691
 3091              	.LBB1687:
  65:../../libDaisy//src/dev/mpr121.h ****                != i2c_.TransmitBlocking(config_.dev_addr, data, size, 10);
 3092              		.loc 13 65 9 view .LVU692
  66:../../libDaisy//src/dev/mpr121.h ****     }
 3093              		.loc 13 66 40 is_stmt 0 view .LVU693
 3094 070e 0223     		movs	r3, #2
 3095 0710 FFF7FEFF 		bl	_ZN5daisy9I2CHandle16TransmitBlockingEtPhtm
 3096              	.LVL154:
  66:../../libDaisy//src/dev/mpr121.h ****     }
 3097              		.loc 13 66 40 view .LVU694
 3098              	.LBE1687:
 3099              	.LBE1691:
 3100              	.LBB1692:
 3101              	.LBI1692:
 3102              		.loc 13 343 10 is_stmt 1 view .LVU695
 3103              	.LBB1693:
 3104              		.loc 13 343 55 is_stmt 0 view .LVU696
 3105 0714 94F83030 		ldrb	r3, [r4, #48]	@ zero_extendqisi2
 3106              	.LBE1693:
 3107              	.LBE1692:
 3108              	.LBE1699:
 3109              	.LBE1705:
ARM GAS  /var/folders/hl/qgbwny5j0fd895c2c41bk3tw0000gp/T//cckqgw4a.s 			page 86


 3110              	.LBB1706:
 3111              	.LBB1707:
 3112              	.LBB1708:
 3113              	.LBB1709:
  66:../../libDaisy//src/dev/mpr121.h ****     }
 3114              		.loc 13 66 40 view .LVU697
 3115 0718 07AA     		add	r2, sp, #28
 3116 071a 94F82C10 		ldrb	r1, [r4, #44]	@ zero_extendqisi2
 3117              	.LBE1709:
 3118              	.LBE1708:
 3119              	.LBE1707:
 3120              	.LBE1706:
 3121              	.LBB1774:
 3122              	.LBB1700:
 3123              	.LBB1696:
 3124              	.LBB1694:
 3125              		.loc 13 343 55 view .LVU698
 3126 071e 4045     		cmp	r0, r8
 3127 0720 18BF     		it	ne
 3128 0722 43F00103 		orrne	r3, r3, #1
 3129              	.LBE1694:
 3130              	.LBE1696:
 3131              	.LBE1700:
 3132              	.LBE1774:
 3133              	.LBB1775:
 3134              	.LBB1770:
 3135              	.LBB1713:
 3136              	.LBB1710:
  66:../../libDaisy//src/dev/mpr121.h ****     }
 3137              		.loc 13 66 40 view .LVU699
 3138 0726 0095     		str	r5, [sp]
 3139 0728 9248     		ldr	r0, .L19
 3140              	.LVL155:
  66:../../libDaisy//src/dev/mpr121.h ****     }
 3141              		.loc 13 66 40 view .LVU700
 3142              	.LBE1710:
 3143              	.LBE1713:
 3144              	.LBE1770:
 3145              	.LBE1775:
 3146              	.LBB1776:
 3147              	.LBB1701:
 3148              	.LBB1697:
 3149              	.LBB1695:
 3150              		.loc 13 343 55 view .LVU701
 3151 072a 84F83030 		strb	r3, [r4, #48]
 3152              	.LVL156:
 3153              		.loc 13 343 55 view .LVU702
 3154              	.LBE1695:
 3155              	.LBE1697:
 3156              	.LBE1701:
 3157              	.LBE1776:
 3158              	.LBB1777:
 3159              	.LBI1706:
 257:../../libDaisy//src/dev/mpr121.h ****     {
 3160              		.loc 13 257 10 is_stmt 1 view .LVU703
 3161              	.LBB1771:
 3162              	.LBB1714:
ARM GAS  /var/folders/hl/qgbwny5j0fd895c2c41bk3tw0000gp/T//cckqgw4a.s 			page 87


 3163              	.LBI1708:
  63:../../libDaisy//src/dev/mpr121.h ****     {
 3164              		.loc 13 63 10 view .LVU704
 3165              	.LBB1711:
  65:../../libDaisy//src/dev/mpr121.h ****                != i2c_.TransmitBlocking(config_.dev_addr, data, size, 10);
 3166              		.loc 13 65 9 view .LVU705
  66:../../libDaisy//src/dev/mpr121.h ****     }
 3167              		.loc 13 66 40 is_stmt 0 view .LVU706
 3168 072e 3B46     		mov	r3, r7
 3169              	.LBE1711:
 3170              	.LBE1714:
 264:../../libDaisy//src/dev/mpr121.h **** 
 3171              		.loc 13 264 17 view .LVU707
 3172 0730 8DF81D80 		strb	r8, [sp, #29]
 3173 0734 8DF81C60 		strb	r6, [sp, #28]
 3174              	.LBB1715:
 3175              	.LBB1712:
  66:../../libDaisy//src/dev/mpr121.h ****     }
 3176              		.loc 13 66 40 view .LVU708
 3177 0738 FFF7FEFF 		bl	_ZN5daisy9I2CHandle16TransmitBlockingEtPhtm
 3178              	.LVL157:
  66:../../libDaisy//src/dev/mpr121.h ****     }
 3179              		.loc 13 66 40 view .LVU709
 3180              	.LBE1712:
 3181              	.LBE1715:
 3182              	.LBB1716:
 3183              	.LBI1716:
 3184              		.loc 13 343 10 is_stmt 1 view .LVU710
 3185              	.LBB1717:
 3186              		.loc 13 343 55 is_stmt 0 view .LVU711
 3187 073c 94F83030 		ldrb	r3, [r4, #48]	@ zero_extendqisi2
 3188              	.LBE1717:
 3189              	.LBE1716:
 3190              	.LBB1720:
 3191              	.LBB1721:
  73:../../libDaisy//src/dev/mpr121.h ****     }
 3192              		.loc 13 73 39 view .LVU712
 3193 0740 02AA     		add	r2, sp, #8
 3194 0742 94F82C10 		ldrb	r1, [r4, #44]	@ zero_extendqisi2
 3195              	.LBE1721:
 3196              	.LBE1720:
 3197              	.LBB1724:
 3198              	.LBB1718:
 3199              		.loc 13 343 55 view .LVU713
 3200 0746 4045     		cmp	r0, r8
 3201 0748 18BF     		it	ne
 3202 074a 43F00103 		orrne	r3, r3, #1
 3203              	.LBE1718:
 3204              	.LBE1724:
 3205              	.LBB1725:
 3206              	.LBB1722:
  73:../../libDaisy//src/dev/mpr121.h ****     }
 3207              		.loc 13 73 39 view .LVU714
 3208 074e 0095     		str	r5, [sp]
 3209 0750 8848     		ldr	r0, .L19
 3210              	.LVL158:
  73:../../libDaisy//src/dev/mpr121.h ****     }
ARM GAS  /var/folders/hl/qgbwny5j0fd895c2c41bk3tw0000gp/T//cckqgw4a.s 			page 88


 3211              		.loc 13 73 39 view .LVU715
 3212              	.LBE1722:
 3213              	.LBE1725:
 3214              	.LBB1726:
 3215              	.LBB1719:
 3216              		.loc 13 343 55 view .LVU716
 3217 0752 84F83030 		strb	r3, [r4, #48]
 3218              	.LVL159:
 3219              		.loc 13 343 55 view .LVU717
 3220              	.LBE1719:
 3221              	.LBE1726:
 3222              	.LBB1727:
 3223              	.LBI1720:
  70:../../libDaisy//src/dev/mpr121.h ****     {
 3224              		.loc 13 70 10 is_stmt 1 view .LVU718
 3225              	.LBB1723:
  72:../../libDaisy//src/dev/mpr121.h ****                != i2c_.ReceiveBlocking(config_.dev_addr, data, size, 10);
 3226              		.loc 13 72 9 view .LVU719
  73:../../libDaisy//src/dev/mpr121.h ****     }
 3227              		.loc 13 73 39 is_stmt 0 view .LVU720
 3228 0756 3B46     		mov	r3, r7
 3229 0758 FFF7FEFF 		bl	_ZN5daisy9I2CHandle15ReceiveBlockingEtPhtm
 3230              	.LVL160:
  73:../../libDaisy//src/dev/mpr121.h ****     }
 3231              		.loc 13 73 39 view .LVU721
 3232              	.LBE1723:
 3233              	.LBE1727:
 3234              	.LBB1728:
 3235              	.LBI1728:
 3236              		.loc 13 343 10 is_stmt 1 view .LVU722
 3237              	.LBB1729:
 3238              		.loc 13 343 55 is_stmt 0 view .LVU723
 3239 075c 94F83030 		ldrb	r3, [r4, #48]	@ zero_extendqisi2
 3240              	.LBE1729:
 3241              	.LBE1728:
 3242              	.LBB1732:
 3243              	.LBB1733:
  66:../../libDaisy//src/dev/mpr121.h ****     }
 3244              		.loc 13 66 40 view .LVU724
 3245 0760 07AA     		add	r2, sp, #28
 3246 0762 94F82C10 		ldrb	r1, [r4, #44]	@ zero_extendqisi2
 3247              	.LBE1733:
 3248              	.LBE1732:
 3249              	.LBB1736:
 3250              	.LBB1730:
 3251              		.loc 13 343 55 view .LVU725
 3252 0766 4045     		cmp	r0, r8
 3253 0768 18BF     		it	ne
 3254 076a 43F00103 		orrne	r3, r3, #1
 3255              	.LBE1730:
 3256              	.LBE1736:
 3257              	.LBB1737:
 3258              	.LBB1734:
  66:../../libDaisy//src/dev/mpr121.h ****     }
 3259              		.loc 13 66 40 view .LVU726
 3260 076e 0095     		str	r5, [sp]
 3261 0770 8048     		ldr	r0, .L19
ARM GAS  /var/folders/hl/qgbwny5j0fd895c2c41bk3tw0000gp/T//cckqgw4a.s 			page 89


 3262              	.LVL161:
  66:../../libDaisy//src/dev/mpr121.h ****     }
 3263              		.loc 13 66 40 view .LVU727
 3264              	.LBE1734:
 3265              	.LBE1737:
 3266              	.LBB1738:
 3267              	.LBB1731:
 3268              		.loc 13 343 55 view .LVU728
 3269 0772 84F83030 		strb	r3, [r4, #48]
 3270              	.LVL162:
 3271              		.loc 13 343 55 view .LVU729
 3272              	.LBE1731:
 3273              	.LBE1738:
 3274              	.LBB1739:
 3275              	.LBI1732:
  63:../../libDaisy//src/dev/mpr121.h ****     {
 3276              		.loc 13 63 10 is_stmt 1 view .LVU730
 3277              	.LBB1735:
  65:../../libDaisy//src/dev/mpr121.h ****                != i2c_.TransmitBlocking(config_.dev_addr, data, size, 10);
 3278              		.loc 13 65 9 view .LVU731
  66:../../libDaisy//src/dev/mpr121.h ****     }
 3279              		.loc 13 66 40 is_stmt 0 view .LVU732
 3280 0776 0223     		movs	r3, #2
 3281 0778 FFF7FEFF 		bl	_ZN5daisy9I2CHandle16TransmitBlockingEtPhtm
 3282              	.LVL163:
  66:../../libDaisy//src/dev/mpr121.h ****     }
 3283              		.loc 13 66 40 view .LVU733
 3284              	.LBE1735:
 3285              	.LBE1739:
 3286              	.LBB1740:
 3287              	.LBI1740:
 3288              		.loc 13 343 10 is_stmt 1 view .LVU734
 3289              	.LBB1741:
 3290              		.loc 13 343 55 is_stmt 0 view .LVU735
 3291 077c 94F83030 		ldrb	r3, [r4, #48]	@ zero_extendqisi2
 3292              	.LBE1741:
 3293              	.LBE1740:
 3294              	.LBB1744:
 3295              	.LBB1745:
  66:../../libDaisy//src/dev/mpr121.h ****     }
 3296              		.loc 13 66 40 view .LVU736
 3297 0780 07AA     		add	r2, sp, #28
 3298 0782 94F82C10 		ldrb	r1, [r4, #44]	@ zero_extendqisi2
 3299              	.LBE1745:
 3300              	.LBE1744:
 3301              	.LBB1748:
 3302              	.LBB1742:
 3303              		.loc 13 343 55 view .LVU737
 3304 0786 4045     		cmp	r0, r8
 3305 0788 18BF     		it	ne
 3306 078a 43F00103 		orrne	r3, r3, #1
 3307              	.LBE1742:
 3308              	.LBE1748:
 3309              	.LBB1749:
 3310              	.LBB1746:
  66:../../libDaisy//src/dev/mpr121.h ****     }
 3311              		.loc 13 66 40 view .LVU738
ARM GAS  /var/folders/hl/qgbwny5j0fd895c2c41bk3tw0000gp/T//cckqgw4a.s 			page 90


 3312 078e 0095     		str	r5, [sp]
 3313 0790 7848     		ldr	r0, .L19
 3314              	.LVL164:
  66:../../libDaisy//src/dev/mpr121.h ****     }
 3315              		.loc 13 66 40 view .LVU739
 3316              	.LBE1746:
 3317              	.LBE1749:
 3318              	.LBB1750:
 3319              	.LBB1743:
 3320              		.loc 13 343 55 view .LVU740
 3321 0792 84F83030 		strb	r3, [r4, #48]
 3322              	.LVL165:
 3323              		.loc 13 343 55 view .LVU741
 3324              	.LBE1743:
 3325              	.LBE1750:
 281:../../libDaisy//src/dev/mpr121.h ****         buff[1] = value;
 3326              		.loc 13 281 17 view .LVU742
 3327 0796 3023     		movs	r3, #48
 3328 0798 8DF81C30 		strb	r3, [sp, #28]
 282:../../libDaisy//src/dev/mpr121.h ****         SetTransportErr(transport_.Write(buff, 2));
 3329              		.loc 13 282 17 view .LVU743
 3330 079c 0523     		movs	r3, #5
 3331 079e 8DF81D30 		strb	r3, [sp, #29]
 3332              	.LVL166:
 3333              	.LBB1751:
 3334              	.LBI1744:
  63:../../libDaisy//src/dev/mpr121.h ****     {
 3335              		.loc 13 63 10 is_stmt 1 view .LVU744
 3336              	.LBB1747:
  65:../../libDaisy//src/dev/mpr121.h ****                != i2c_.TransmitBlocking(config_.dev_addr, data, size, 10);
 3337              		.loc 13 65 9 view .LVU745
  66:../../libDaisy//src/dev/mpr121.h ****     }
 3338              		.loc 13 66 40 is_stmt 0 view .LVU746
 3339 07a2 0223     		movs	r3, #2
 3340 07a4 FFF7FEFF 		bl	_ZN5daisy9I2CHandle16TransmitBlockingEtPhtm
 3341              	.LVL167:
  66:../../libDaisy//src/dev/mpr121.h ****     }
 3342              		.loc 13 66 40 view .LVU747
 3343              	.LBE1747:
 3344              	.LBE1751:
 3345              	.LBB1752:
 3346              	.LBI1752:
 3347              		.loc 13 343 10 is_stmt 1 view .LVU748
 3348              	.LBB1753:
 3349              		.loc 13 343 55 is_stmt 0 view .LVU749
 3350 07a8 94F83030 		ldrb	r3, [r4, #48]	@ zero_extendqisi2
 3351              	.LBE1753:
 3352              	.LBE1752:
 3353              	.LBB1756:
 3354              	.LBB1757:
  66:../../libDaisy//src/dev/mpr121.h ****     }
 3355              		.loc 13 66 40 view .LVU750
 3356 07ac 07AA     		add	r2, sp, #28
 3357 07ae 94F82C10 		ldrb	r1, [r4, #44]	@ zero_extendqisi2
 3358              	.LBE1757:
 3359              	.LBE1756:
 3360              	.LBB1760:
ARM GAS  /var/folders/hl/qgbwny5j0fd895c2c41bk3tw0000gp/T//cckqgw4a.s 			page 91


 3361              	.LBB1754:
 3362              		.loc 13 343 55 view .LVU751
 3363 07b2 4045     		cmp	r0, r8
 3364 07b4 18BF     		it	ne
 3365 07b6 43F00103 		orrne	r3, r3, #1
 3366              	.LBE1754:
 3367              	.LBE1760:
 3368              	.LBB1761:
 3369              	.LBB1758:
  66:../../libDaisy//src/dev/mpr121.h ****     }
 3370              		.loc 13 66 40 view .LVU752
 3371 07ba 0095     		str	r5, [sp]
 3372 07bc 6D48     		ldr	r0, .L19
 3373              	.LVL168:
  66:../../libDaisy//src/dev/mpr121.h ****     }
 3374              		.loc 13 66 40 view .LVU753
 3375              	.LBE1758:
 3376              	.LBE1761:
 3377              	.LBB1762:
 3378              	.LBB1755:
 3379              		.loc 13 343 55 view .LVU754
 3380 07be 84F83030 		strb	r3, [r4, #48]
 3381              	.LVL169:
 3382              		.loc 13 343 55 view .LVU755
 3383              	.LBE1755:
 3384              	.LBE1762:
 289:../../libDaisy//src/dev/mpr121.h ****             SetTransportErr(transport_.Write(buff, 2));
 3385              		.loc 13 289 21 view .LVU756
 3386 07c2 9DF80830 		ldrb	r3, [sp, #8]	@ zero_extendqisi2
 288:../../libDaisy//src/dev/mpr121.h ****             buff[1] = ecr_backup;
 3387              		.loc 13 288 21 view .LVU757
 3388 07c6 8DF81C60 		strb	r6, [sp, #28]
 289:../../libDaisy//src/dev/mpr121.h ****             SetTransportErr(transport_.Write(buff, 2));
 3389              		.loc 13 289 21 view .LVU758
 3390 07ca 8DF81D30 		strb	r3, [sp, #29]
 3391              	.LVL170:
 3392              	.LBB1763:
 3393              	.LBI1756:
  63:../../libDaisy//src/dev/mpr121.h ****     {
 3394              		.loc 13 63 10 is_stmt 1 view .LVU759
 3395              	.LBB1759:
  65:../../libDaisy//src/dev/mpr121.h ****                != i2c_.TransmitBlocking(config_.dev_addr, data, size, 10);
 3396              		.loc 13 65 9 view .LVU760
  66:../../libDaisy//src/dev/mpr121.h ****     }
 3397              		.loc 13 66 40 is_stmt 0 view .LVU761
 3398 07ce 0223     		movs	r3, #2
 3399 07d0 FFF7FEFF 		bl	_ZN5daisy9I2CHandle16TransmitBlockingEtPhtm
 3400              	.LVL171:
  66:../../libDaisy//src/dev/mpr121.h ****     }
 3401              		.loc 13 66 40 view .LVU762
 3402              	.LBE1759:
 3403              	.LBE1763:
 3404              	.LBB1764:
 3405              	.LBI1764:
 3406              		.loc 13 343 10 is_stmt 1 view .LVU763
 3407              	.LBB1765:
 3408              		.loc 13 343 55 is_stmt 0 view .LVU764
ARM GAS  /var/folders/hl/qgbwny5j0fd895c2c41bk3tw0000gp/T//cckqgw4a.s 			page 92


 3409 07d4 94F83030 		ldrb	r3, [r4, #48]	@ zero_extendqisi2
 3410              	.LBE1765:
 3411              	.LBE1764:
 3412              	.LBE1771:
 3413              	.LBE1777:
 3414              	.LBB1778:
 3415              	.LBB1779:
 3416              	.LBB1780:
 3417              	.LBB1781:
  66:../../libDaisy//src/dev/mpr121.h ****     }
 3418              		.loc 13 66 40 view .LVU765
 3419 07d8 07AA     		add	r2, sp, #28
 3420 07da 94F82C10 		ldrb	r1, [r4, #44]	@ zero_extendqisi2
 3421              	.LBE1781:
 3422              	.LBE1780:
 3423              	.LBE1779:
 3424              	.LBE1778:
 3425              	.LBB1848:
 3426              	.LBB1772:
 3427              	.LBB1768:
 3428              	.LBB1766:
 3429              		.loc 13 343 55 view .LVU766
 3430 07de 4045     		cmp	r0, r8
 3431 07e0 18BF     		it	ne
 3432 07e2 43F00103 		orrne	r3, r3, #1
 3433              	.LBE1766:
 3434              	.LBE1768:
 3435              	.LBE1772:
 3436              	.LBE1848:
 3437              	.LBB1849:
 3438              	.LBB1844:
 3439              	.LBB1785:
 3440              	.LBB1782:
  66:../../libDaisy//src/dev/mpr121.h ****     }
 3441              		.loc 13 66 40 view .LVU767
 3442 07e6 0095     		str	r5, [sp]
 3443 07e8 6248     		ldr	r0, .L19
 3444              	.LVL172:
  66:../../libDaisy//src/dev/mpr121.h ****     }
 3445              		.loc 13 66 40 view .LVU768
 3446              	.LBE1782:
 3447              	.LBE1785:
 3448              	.LBE1844:
 3449              	.LBE1849:
 3450              	.LBB1850:
 3451              	.LBB1773:
 3452              	.LBB1769:
 3453              	.LBB1767:
 3454              		.loc 13 343 55 view .LVU769
 3455 07ea 84F83030 		strb	r3, [r4, #48]
 3456              	.LVL173:
 3457              		.loc 13 343 55 view .LVU770
 3458              	.LBE1767:
 3459              	.LBE1769:
 3460              	.LBE1773:
 3461              	.LBE1850:
 3462              	.LBB1851:
ARM GAS  /var/folders/hl/qgbwny5j0fd895c2c41bk3tw0000gp/T//cckqgw4a.s 			page 93


 3463              	.LBI1778:
 257:../../libDaisy//src/dev/mpr121.h ****     {
 3464              		.loc 13 257 10 is_stmt 1 view .LVU771
 3465              	.LBB1845:
 3466              	.LBB1786:
 3467              	.LBI1780:
  63:../../libDaisy//src/dev/mpr121.h ****     {
 3468              		.loc 13 63 10 view .LVU772
 3469              	.LBB1783:
  65:../../libDaisy//src/dev/mpr121.h ****                != i2c_.TransmitBlocking(config_.dev_addr, data, size, 10);
 3470              		.loc 13 65 9 view .LVU773
  66:../../libDaisy//src/dev/mpr121.h ****     }
 3471              		.loc 13 66 40 is_stmt 0 view .LVU774
 3472 07ee 3B46     		mov	r3, r7
 3473              	.LBE1783:
 3474              	.LBE1786:
 264:../../libDaisy//src/dev/mpr121.h **** 
 3475              		.loc 13 264 17 view .LVU775
 3476 07f0 8DF81D80 		strb	r8, [sp, #29]
 3477 07f4 8DF81C60 		strb	r6, [sp, #28]
 3478              	.LBB1787:
 3479              	.LBB1784:
  66:../../libDaisy//src/dev/mpr121.h ****     }
 3480              		.loc 13 66 40 view .LVU776
 3481 07f8 FFF7FEFF 		bl	_ZN5daisy9I2CHandle16TransmitBlockingEtPhtm
 3482              	.LVL174:
  66:../../libDaisy//src/dev/mpr121.h ****     }
 3483              		.loc 13 66 40 view .LVU777
 3484              	.LBE1784:
 3485              	.LBE1787:
 3486              	.LBB1788:
 3487              	.LBI1788:
 3488              		.loc 13 343 10 is_stmt 1 view .LVU778
 3489              	.LBB1789:
 3490              		.loc 13 343 55 is_stmt 0 view .LVU779
 3491 07fc 94F83030 		ldrb	r3, [r4, #48]	@ zero_extendqisi2
 3492              	.LBE1789:
 3493              	.LBE1788:
 3494              	.LBB1792:
 3495              	.LBB1793:
  73:../../libDaisy//src/dev/mpr121.h ****     }
 3496              		.loc 13 73 39 view .LVU780
 3497 0800 02AA     		add	r2, sp, #8
 3498 0802 94F82C10 		ldrb	r1, [r4, #44]	@ zero_extendqisi2
 3499              	.LBE1793:
 3500              	.LBE1792:
 3501              	.LBB1796:
 3502              	.LBB1790:
 3503              		.loc 13 343 55 view .LVU781
 3504 0806 4045     		cmp	r0, r8
 3505 0808 18BF     		it	ne
 3506 080a 43F00103 		orrne	r3, r3, #1
 3507              	.LBE1790:
 3508              	.LBE1796:
 3509              	.LBB1797:
 3510              	.LBB1794:
  73:../../libDaisy//src/dev/mpr121.h ****     }
ARM GAS  /var/folders/hl/qgbwny5j0fd895c2c41bk3tw0000gp/T//cckqgw4a.s 			page 94


 3511              		.loc 13 73 39 view .LVU782
 3512 080e 0095     		str	r5, [sp]
 3513 0810 5848     		ldr	r0, .L19
 3514              	.LVL175:
  73:../../libDaisy//src/dev/mpr121.h ****     }
 3515              		.loc 13 73 39 view .LVU783
 3516              	.LBE1794:
 3517              	.LBE1797:
 3518              	.LBB1798:
 3519              	.LBB1791:
 3520              		.loc 13 343 55 view .LVU784
 3521 0812 84F83030 		strb	r3, [r4, #48]
 3522              	.LVL176:
 3523              		.loc 13 343 55 view .LVU785
 3524              	.LBE1791:
 3525              	.LBE1798:
 3526              	.LBB1799:
 3527              	.LBI1792:
  70:../../libDaisy//src/dev/mpr121.h ****     {
 3528              		.loc 13 70 10 is_stmt 1 view .LVU786
 3529              	.LBB1795:
  72:../../libDaisy//src/dev/mpr121.h ****                != i2c_.ReceiveBlocking(config_.dev_addr, data, size, 10);
 3530              		.loc 13 72 9 view .LVU787
  73:../../libDaisy//src/dev/mpr121.h ****     }
 3531              		.loc 13 73 39 is_stmt 0 view .LVU788
 3532 0816 3B46     		mov	r3, r7
 3533 0818 FFF7FEFF 		bl	_ZN5daisy9I2CHandle15ReceiveBlockingEtPhtm
 3534              	.LVL177:
  73:../../libDaisy//src/dev/mpr121.h ****     }
 3535              		.loc 13 73 39 view .LVU789
 3536              	.LBE1795:
 3537              	.LBE1799:
 3538              	.LBB1800:
 3539              	.LBI1800:
 3540              		.loc 13 343 10 is_stmt 1 view .LVU790
 3541              	.LBB1801:
 3542              		.loc 13 343 55 is_stmt 0 view .LVU791
 3543 081c 94F83030 		ldrb	r3, [r4, #48]	@ zero_extendqisi2
 3544              	.LBE1801:
 3545              	.LBE1800:
 3546              	.LBB1804:
 3547              	.LBB1805:
  66:../../libDaisy//src/dev/mpr121.h ****     }
 3548              		.loc 13 66 40 view .LVU792
 3549 0820 07AA     		add	r2, sp, #28
 3550 0822 94F82C10 		ldrb	r1, [r4, #44]	@ zero_extendqisi2
 3551              	.LBE1805:
 3552              	.LBE1804:
 3553              	.LBB1808:
 3554              	.LBB1802:
 3555              		.loc 13 343 55 view .LVU793
 3556 0826 4045     		cmp	r0, r8
 3557 0828 18BF     		it	ne
 3558 082a 43F00103 		orrne	r3, r3, #1
 3559              	.LBE1802:
 3560              	.LBE1808:
 3561              	.LBB1809:
ARM GAS  /var/folders/hl/qgbwny5j0fd895c2c41bk3tw0000gp/T//cckqgw4a.s 			page 95


 3562              	.LBB1806:
  66:../../libDaisy//src/dev/mpr121.h ****     }
 3563              		.loc 13 66 40 view .LVU794
 3564 082e 0095     		str	r5, [sp]
 3565 0830 5048     		ldr	r0, .L19
 3566              	.LVL178:
  66:../../libDaisy//src/dev/mpr121.h ****     }
 3567              		.loc 13 66 40 view .LVU795
 3568              	.LBE1806:
 3569              	.LBE1809:
 3570              	.LBB1810:
 3571              	.LBB1803:
 3572              		.loc 13 343 55 view .LVU796
 3573 0832 84F83030 		strb	r3, [r4, #48]
 3574              	.LVL179:
 3575              		.loc 13 343 55 view .LVU797
 3576              	.LBE1803:
 3577              	.LBE1810:
 3578              	.LBB1811:
 3579              	.LBI1804:
  63:../../libDaisy//src/dev/mpr121.h ****     {
 3580              		.loc 13 63 10 is_stmt 1 view .LVU798
 3581              	.LBB1807:
  65:../../libDaisy//src/dev/mpr121.h ****                != i2c_.TransmitBlocking(config_.dev_addr, data, size, 10);
 3582              		.loc 13 65 9 view .LVU799
  66:../../libDaisy//src/dev/mpr121.h ****     }
 3583              		.loc 13 66 40 is_stmt 0 view .LVU800
 3584 0836 0223     		movs	r3, #2
 3585 0838 FFF7FEFF 		bl	_ZN5daisy9I2CHandle16TransmitBlockingEtPhtm
 3586              	.LVL180:
  66:../../libDaisy//src/dev/mpr121.h ****     }
 3587              		.loc 13 66 40 view .LVU801
 3588              	.LBE1807:
 3589              	.LBE1811:
 3590              	.LBB1812:
 3591              	.LBI1812:
 3592              		.loc 13 343 10 is_stmt 1 view .LVU802
 3593              	.LBB1813:
 3594              		.loc 13 343 55 is_stmt 0 view .LVU803
 3595 083c 94F83030 		ldrb	r3, [r4, #48]	@ zero_extendqisi2
 3596              	.LBE1813:
 3597              	.LBE1812:
 3598              	.LBB1816:
 3599              	.LBB1817:
  66:../../libDaisy//src/dev/mpr121.h ****     }
 3600              		.loc 13 66 40 view .LVU804
 3601 0840 07AA     		add	r2, sp, #28
 3602 0842 94F82C10 		ldrb	r1, [r4, #44]	@ zero_extendqisi2
 3603              	.LBE1817:
 3604              	.LBE1816:
 3605              	.LBB1821:
 3606              	.LBB1814:
 3607              		.loc 13 343 55 view .LVU805
 3608 0846 4045     		cmp	r0, r8
 3609 0848 18BF     		it	ne
 3610 084a 43F00103 		orrne	r3, r3, #1
 3611              	.LBE1814:
ARM GAS  /var/folders/hl/qgbwny5j0fd895c2c41bk3tw0000gp/T//cckqgw4a.s 			page 96


 3612              	.LBE1821:
 3613              	.LBB1822:
 3614              	.LBB1818:
  66:../../libDaisy//src/dev/mpr121.h ****     }
 3615              		.loc 13 66 40 view .LVU806
 3616 084e 0095     		str	r5, [sp]
 3617 0850 4848     		ldr	r0, .L19
 3618              	.LVL181:
  66:../../libDaisy//src/dev/mpr121.h ****     }
 3619              		.loc 13 66 40 view .LVU807
 3620              	.LBE1818:
 3621              	.LBE1822:
 3622              	.LBB1823:
 3623              	.LBB1815:
 3624              		.loc 13 343 55 view .LVU808
 3625 0852 84F83030 		strb	r3, [r4, #48]
 3626              	.LVL182:
 3627              		.loc 13 343 55 view .LVU809
 3628              	.LBE1815:
 3629              	.LBE1823:
 3630              	.LBB1824:
 3631              	.LBI1816:
  63:../../libDaisy//src/dev/mpr121.h ****     {
 3632              		.loc 13 63 10 is_stmt 1 view .LVU810
 3633              	.LBB1819:
  65:../../libDaisy//src/dev/mpr121.h ****                != i2c_.TransmitBlocking(config_.dev_addr, data, size, 10);
 3634              		.loc 13 65 9 view .LVU811
 3635              	.LBE1819:
 3636              	.LBE1824:
 281:../../libDaisy//src/dev/mpr121.h ****         buff[1] = value;
 3637              		.loc 13 281 17 is_stmt 0 view .LVU812
 3638 0856 3123     		movs	r3, #49
 282:../../libDaisy//src/dev/mpr121.h ****         SetTransportErr(transport_.Write(buff, 2));
 3639              		.loc 13 282 17 view .LVU813
 3640 0858 8DF81D70 		strb	r7, [sp, #29]
 281:../../libDaisy//src/dev/mpr121.h ****         buff[1] = value;
 3641              		.loc 13 281 17 view .LVU814
 3642 085c 8DF81C30 		strb	r3, [sp, #28]
 3643              	.LBB1825:
 3644              	.LBB1820:
  66:../../libDaisy//src/dev/mpr121.h ****     }
 3645              		.loc 13 66 40 view .LVU815
 3646 0860 0223     		movs	r3, #2
 3647 0862 FFF7FEFF 		bl	_ZN5daisy9I2CHandle16TransmitBlockingEtPhtm
 3648              	.LVL183:
  66:../../libDaisy//src/dev/mpr121.h ****     }
 3649              		.loc 13 66 40 view .LVU816
 3650              	.LBE1820:
 3651              	.LBE1825:
 3652              	.LBB1826:
 3653              	.LBI1826:
 3654              		.loc 13 343 10 is_stmt 1 view .LVU817
 3655              	.LBB1827:
 3656              		.loc 13 343 55 is_stmt 0 view .LVU818
 3657 0866 94F83030 		ldrb	r3, [r4, #48]	@ zero_extendqisi2
 3658              	.LBE1827:
 3659              	.LBE1826:
ARM GAS  /var/folders/hl/qgbwny5j0fd895c2c41bk3tw0000gp/T//cckqgw4a.s 			page 97


 3660              	.LBB1830:
 3661              	.LBB1831:
  66:../../libDaisy//src/dev/mpr121.h ****     }
 3662              		.loc 13 66 40 view .LVU819
 3663 086a 07AA     		add	r2, sp, #28
 3664 086c 94F82C10 		ldrb	r1, [r4, #44]	@ zero_extendqisi2
 3665              	.LBE1831:
 3666              	.LBE1830:
 3667              	.LBB1834:
 3668              	.LBB1828:
 3669              		.loc 13 343 55 view .LVU820
 3670 0870 4045     		cmp	r0, r8
 3671 0872 18BF     		it	ne
 3672 0874 43F00103 		orrne	r3, r3, #1
 3673              	.LBE1828:
 3674              	.LBE1834:
 3675              	.LBB1835:
 3676              	.LBB1832:
  66:../../libDaisy//src/dev/mpr121.h ****     }
 3677              		.loc 13 66 40 view .LVU821
 3678 0878 0095     		str	r5, [sp]
 3679 087a 3E48     		ldr	r0, .L19
 3680              	.LVL184:
  66:../../libDaisy//src/dev/mpr121.h ****     }
 3681              		.loc 13 66 40 view .LVU822
 3682              	.LBE1832:
 3683              	.LBE1835:
 3684              	.LBB1836:
 3685              	.LBB1829:
 3686              		.loc 13 343 55 view .LVU823
 3687 087c 84F83030 		strb	r3, [r4, #48]
 3688              	.LVL185:
 3689              		.loc 13 343 55 view .LVU824
 3690              	.LBE1829:
 3691              	.LBE1836:
 289:../../libDaisy//src/dev/mpr121.h ****             SetTransportErr(transport_.Write(buff, 2));
 3692              		.loc 13 289 21 view .LVU825
 3693 0880 9DF80830 		ldrb	r3, [sp, #8]	@ zero_extendqisi2
 288:../../libDaisy//src/dev/mpr121.h ****             buff[1] = ecr_backup;
 3694              		.loc 13 288 21 view .LVU826
 3695 0884 8DF81C60 		strb	r6, [sp, #28]
 289:../../libDaisy//src/dev/mpr121.h ****             SetTransportErr(transport_.Write(buff, 2));
 3696              		.loc 13 289 21 view .LVU827
 3697 0888 8DF81D30 		strb	r3, [sp, #29]
 3698              	.LVL186:
 3699              	.LBB1837:
 3700              	.LBI1830:
  63:../../libDaisy//src/dev/mpr121.h ****     {
 3701              		.loc 13 63 10 is_stmt 1 view .LVU828
 3702              	.LBB1833:
  65:../../libDaisy//src/dev/mpr121.h ****                != i2c_.TransmitBlocking(config_.dev_addr, data, size, 10);
 3703              		.loc 13 65 9 view .LVU829
  66:../../libDaisy//src/dev/mpr121.h ****     }
 3704              		.loc 13 66 40 is_stmt 0 view .LVU830
 3705 088c 0223     		movs	r3, #2
 3706 088e FFF7FEFF 		bl	_ZN5daisy9I2CHandle16TransmitBlockingEtPhtm
 3707              	.LVL187:
ARM GAS  /var/folders/hl/qgbwny5j0fd895c2c41bk3tw0000gp/T//cckqgw4a.s 			page 98


  66:../../libDaisy//src/dev/mpr121.h ****     }
 3708              		.loc 13 66 40 view .LVU831
 3709              	.LBE1833:
 3710              	.LBE1837:
 3711              	.LBB1838:
 3712              	.LBI1838:
 3713              		.loc 13 343 10 is_stmt 1 view .LVU832
 3714              	.LBB1839:
 3715              		.loc 13 343 55 is_stmt 0 view .LVU833
 3716 0892 94F83030 		ldrb	r3, [r4, #48]	@ zero_extendqisi2
 3717              	.LBE1839:
 3718              	.LBE1838:
 3719              	.LBE1845:
 3720              	.LBE1851:
 3721              	.LBB1852:
 3722              	.LBB1853:
 3723              	.LBB1854:
 3724              	.LBB1855:
  66:../../libDaisy//src/dev/mpr121.h ****     }
 3725              		.loc 13 66 40 view .LVU834
 3726 0896 07AA     		add	r2, sp, #28
 3727 0898 94F82C10 		ldrb	r1, [r4, #44]	@ zero_extendqisi2
 3728              	.LBE1855:
 3729              	.LBE1854:
 3730              	.LBE1853:
 3731              	.LBE1852:
 3732              	.LBB1922:
 3733              	.LBB1846:
 3734              	.LBB1842:
 3735              	.LBB1840:
 3736              		.loc 13 343 55 view .LVU835
 3737 089c 4045     		cmp	r0, r8
 3738 089e 18BF     		it	ne
 3739 08a0 43F00103 		orrne	r3, r3, #1
 3740              	.LBE1840:
 3741              	.LBE1842:
 3742              	.LBE1846:
 3743              	.LBE1922:
 3744              	.LBB1923:
 3745              	.LBB1918:
 3746              	.LBB1859:
 3747              	.LBB1856:
  66:../../libDaisy//src/dev/mpr121.h ****     }
 3748              		.loc 13 66 40 view .LVU836
 3749 08a4 0095     		str	r5, [sp]
 3750 08a6 3348     		ldr	r0, .L19
 3751              	.LVL188:
  66:../../libDaisy//src/dev/mpr121.h ****     }
 3752              		.loc 13 66 40 view .LVU837
 3753              	.LBE1856:
 3754              	.LBE1859:
 3755              	.LBE1918:
 3756              	.LBE1923:
 3757              	.LBB1924:
 3758              	.LBB1847:
 3759              	.LBB1843:
 3760              	.LBB1841:
ARM GAS  /var/folders/hl/qgbwny5j0fd895c2c41bk3tw0000gp/T//cckqgw4a.s 			page 99


 3761              		.loc 13 343 55 view .LVU838
 3762 08a8 84F83030 		strb	r3, [r4, #48]
 3763              	.LVL189:
 3764              		.loc 13 343 55 view .LVU839
 3765              	.LBE1841:
 3766              	.LBE1843:
 3767              	.LBE1847:
 3768              	.LBE1924:
 3769              	.LBB1925:
 3770              	.LBI1852:
 257:../../libDaisy//src/dev/mpr121.h ****     {
 3771              		.loc 13 257 10 is_stmt 1 view .LVU840
 3772              	.LBB1919:
 3773              	.LBB1860:
 3774              	.LBI1854:
  63:../../libDaisy//src/dev/mpr121.h ****     {
 3775              		.loc 13 63 10 view .LVU841
 3776              	.LBB1857:
  65:../../libDaisy//src/dev/mpr121.h ****                != i2c_.TransmitBlocking(config_.dev_addr, data, size, 10);
 3777              		.loc 13 65 9 view .LVU842
  66:../../libDaisy//src/dev/mpr121.h ****     }
 3778              		.loc 13 66 40 is_stmt 0 view .LVU843
 3779 08ac 3B46     		mov	r3, r7
 3780              	.LBE1857:
 3781              	.LBE1860:
 264:../../libDaisy//src/dev/mpr121.h **** 
 3782              		.loc 13 264 17 view .LVU844
 3783 08ae 8DF81D80 		strb	r8, [sp, #29]
 3784 08b2 8DF81C60 		strb	r6, [sp, #28]
 3785              	.LBB1861:
 3786              	.LBB1858:
  66:../../libDaisy//src/dev/mpr121.h ****     }
 3787              		.loc 13 66 40 view .LVU845
 3788 08b6 FFF7FEFF 		bl	_ZN5daisy9I2CHandle16TransmitBlockingEtPhtm
 3789              	.LVL190:
  66:../../libDaisy//src/dev/mpr121.h ****     }
 3790              		.loc 13 66 40 view .LVU846
 3791              	.LBE1858:
 3792              	.LBE1861:
 3793              	.LBB1862:
 3794              	.LBI1862:
 3795              		.loc 13 343 10 is_stmt 1 view .LVU847
 3796              	.LBB1863:
 3797              		.loc 13 343 55 is_stmt 0 view .LVU848
 3798 08ba 94F83030 		ldrb	r3, [r4, #48]	@ zero_extendqisi2
 3799              	.LBE1863:
 3800              	.LBE1862:
 3801              	.LBB1866:
 3802              	.LBB1867:
  73:../../libDaisy//src/dev/mpr121.h ****     }
 3803              		.loc 13 73 39 view .LVU849
 3804 08be 02AA     		add	r2, sp, #8
 3805 08c0 94F82C10 		ldrb	r1, [r4, #44]	@ zero_extendqisi2
 3806              	.LBE1867:
 3807              	.LBE1866:
 3808              	.LBB1870:
 3809              	.LBB1864:
ARM GAS  /var/folders/hl/qgbwny5j0fd895c2c41bk3tw0000gp/T//cckqgw4a.s 			page 100


 3810              		.loc 13 343 55 view .LVU850
 3811 08c4 4045     		cmp	r0, r8
 3812 08c6 18BF     		it	ne
 3813 08c8 43F00103 		orrne	r3, r3, #1
 3814              	.LBE1864:
 3815              	.LBE1870:
 3816              	.LBB1871:
 3817              	.LBB1868:
  73:../../libDaisy//src/dev/mpr121.h ****     }
 3818              		.loc 13 73 39 view .LVU851
 3819 08cc 0095     		str	r5, [sp]
 3820 08ce 2948     		ldr	r0, .L19
 3821              	.LVL191:
  73:../../libDaisy//src/dev/mpr121.h ****     }
 3822              		.loc 13 73 39 view .LVU852
 3823              	.LBE1868:
 3824              	.LBE1871:
 3825              	.LBB1872:
 3826              	.LBB1865:
 3827              		.loc 13 343 55 view .LVU853
 3828 08d0 84F83030 		strb	r3, [r4, #48]
 3829              	.LVL192:
 3830              		.loc 13 343 55 view .LVU854
 3831              	.LBE1865:
 3832              	.LBE1872:
 3833              	.LBB1873:
 3834              	.LBI1866:
  70:../../libDaisy//src/dev/mpr121.h ****     {
 3835              		.loc 13 70 10 is_stmt 1 view .LVU855
 3836              	.LBB1869:
  72:../../libDaisy//src/dev/mpr121.h ****                != i2c_.ReceiveBlocking(config_.dev_addr, data, size, 10);
 3837              		.loc 13 72 9 view .LVU856
  73:../../libDaisy//src/dev/mpr121.h ****     }
 3838              		.loc 13 73 39 is_stmt 0 view .LVU857
 3839 08d4 3B46     		mov	r3, r7
 3840 08d6 FFF7FEFF 		bl	_ZN5daisy9I2CHandle15ReceiveBlockingEtPhtm
 3841              	.LVL193:
  73:../../libDaisy//src/dev/mpr121.h ****     }
 3842              		.loc 13 73 39 view .LVU858
 3843              	.LBE1869:
 3844              	.LBE1873:
 3845              	.LBB1874:
 3846              	.LBI1874:
 3847              		.loc 13 343 10 is_stmt 1 view .LVU859
 3848              	.LBB1875:
 3849              		.loc 13 343 55 is_stmt 0 view .LVU860
 3850 08da 94F83030 		ldrb	r3, [r4, #48]	@ zero_extendqisi2
 3851              	.LBE1875:
 3852              	.LBE1874:
 3853              	.LBB1878:
 3854              	.LBB1879:
  66:../../libDaisy//src/dev/mpr121.h ****     }
 3855              		.loc 13 66 40 view .LVU861
 3856 08de 07AA     		add	r2, sp, #28
 3857 08e0 94F82C10 		ldrb	r1, [r4, #44]	@ zero_extendqisi2
 3858              	.LBE1879:
 3859              	.LBE1878:
ARM GAS  /var/folders/hl/qgbwny5j0fd895c2c41bk3tw0000gp/T//cckqgw4a.s 			page 101


 3860              	.LBB1882:
 3861              	.LBB1876:
 3862              		.loc 13 343 55 view .LVU862
 3863 08e4 4045     		cmp	r0, r8
 3864 08e6 18BF     		it	ne
 3865 08e8 43F00103 		orrne	r3, r3, #1
 3866              	.LBE1876:
 3867              	.LBE1882:
 3868              	.LBB1883:
 3869              	.LBB1880:
  66:../../libDaisy//src/dev/mpr121.h ****     }
 3870              		.loc 13 66 40 view .LVU863
 3871 08ec 0095     		str	r5, [sp]
 3872 08ee 2148     		ldr	r0, .L19
 3873              	.LVL194:
  66:../../libDaisy//src/dev/mpr121.h ****     }
 3874              		.loc 13 66 40 view .LVU864
 3875              	.LBE1880:
 3876              	.LBE1883:
 3877              	.LBB1884:
 3878              	.LBB1877:
 3879              		.loc 13 343 55 view .LVU865
 3880 08f0 84F83030 		strb	r3, [r4, #48]
 3881              	.LVL195:
 3882              		.loc 13 343 55 view .LVU866
 3883              	.LBE1877:
 3884              	.LBE1884:
 3885              	.LBB1885:
 3886              	.LBI1878:
  63:../../libDaisy//src/dev/mpr121.h ****     {
 3887              		.loc 13 63 10 is_stmt 1 view .LVU867
 3888              	.LBB1881:
  65:../../libDaisy//src/dev/mpr121.h ****                != i2c_.TransmitBlocking(config_.dev_addr, data, size, 10);
 3889              		.loc 13 65 9 view .LVU868
  66:../../libDaisy//src/dev/mpr121.h ****     }
 3890              		.loc 13 66 40 is_stmt 0 view .LVU869
 3891 08f4 0223     		movs	r3, #2
 3892 08f6 FFF7FEFF 		bl	_ZN5daisy9I2CHandle16TransmitBlockingEtPhtm
 3893              	.LVL196:
  66:../../libDaisy//src/dev/mpr121.h ****     }
 3894              		.loc 13 66 40 view .LVU870
 3895              	.LBE1881:
 3896              	.LBE1885:
 3897              	.LBB1886:
 3898              	.LBI1886:
 3899              		.loc 13 343 10 is_stmt 1 view .LVU871
 3900              	.LBB1887:
 3901              		.loc 13 343 55 is_stmt 0 view .LVU872
 3902 08fa 94F83030 		ldrb	r3, [r4, #48]	@ zero_extendqisi2
 3903              	.LBE1887:
 3904              	.LBE1886:
 3905              	.LBB1890:
 3906              	.LBB1891:
  66:../../libDaisy//src/dev/mpr121.h ****     }
 3907              		.loc 13 66 40 view .LVU873
 3908 08fe 07AA     		add	r2, sp, #28
 3909 0900 94F82C10 		ldrb	r1, [r4, #44]	@ zero_extendqisi2
ARM GAS  /var/folders/hl/qgbwny5j0fd895c2c41bk3tw0000gp/T//cckqgw4a.s 			page 102


 3910              	.LBE1891:
 3911              	.LBE1890:
 3912              	.LBB1895:
 3913              	.LBB1888:
 3914              		.loc 13 343 55 view .LVU874
 3915 0904 4045     		cmp	r0, r8
 3916 0906 18BF     		it	ne
 3917 0908 43F00103 		orrne	r3, r3, #1
 3918              	.LBE1888:
 3919              	.LBE1895:
 3920              	.LBB1896:
 3921              	.LBB1892:
  66:../../libDaisy//src/dev/mpr121.h ****     }
 3922              		.loc 13 66 40 view .LVU875
 3923 090c 0095     		str	r5, [sp]
 3924 090e 1948     		ldr	r0, .L19
 3925              	.LVL197:
  66:../../libDaisy//src/dev/mpr121.h ****     }
 3926              		.loc 13 66 40 view .LVU876
 3927              	.LBE1892:
 3928              	.LBE1896:
 3929              	.LBB1897:
 3930              	.LBB1889:
 3931              		.loc 13 343 55 view .LVU877
 3932 0910 84F83030 		strb	r3, [r4, #48]
 3933              	.LVL198:
 3934              		.loc 13 343 55 view .LVU878
 3935              	.LBE1889:
 3936              	.LBE1897:
 3937              	.LBB1898:
 3938              	.LBI1890:
  63:../../libDaisy//src/dev/mpr121.h ****     {
 3939              		.loc 13 63 10 is_stmt 1 view .LVU879
 3940              	.LBB1893:
  65:../../libDaisy//src/dev/mpr121.h ****                != i2c_.TransmitBlocking(config_.dev_addr, data, size, 10);
 3941              		.loc 13 65 9 view .LVU880
 3942              	.LBE1893:
 3943              	.LBE1898:
 281:../../libDaisy//src/dev/mpr121.h ****         buff[1] = value;
 3944              		.loc 13 281 17 is_stmt 0 view .LVU881
 3945 0914 3223     		movs	r3, #50
 282:../../libDaisy//src/dev/mpr121.h ****         SetTransportErr(transport_.Write(buff, 2));
 3946              		.loc 13 282 17 view .LVU882
 3947 0916 8DF81D80 		strb	r8, [sp, #29]
 281:../../libDaisy//src/dev/mpr121.h ****         buff[1] = value;
 3948              		.loc 13 281 17 view .LVU883
 3949 091a 8DF81C30 		strb	r3, [sp, #28]
 3950              	.LBB1899:
 3951              	.LBB1894:
  66:../../libDaisy//src/dev/mpr121.h ****     }
 3952              		.loc 13 66 40 view .LVU884
 3953 091e 0223     		movs	r3, #2
 3954 0920 FFF7FEFF 		bl	_ZN5daisy9I2CHandle16TransmitBlockingEtPhtm
 3955              	.LVL199:
  66:../../libDaisy//src/dev/mpr121.h ****     }
 3956              		.loc 13 66 40 view .LVU885
 3957              	.LBE1894:
ARM GAS  /var/folders/hl/qgbwny5j0fd895c2c41bk3tw0000gp/T//cckqgw4a.s 			page 103


 3958              	.LBE1899:
 3959              	.LBB1900:
 3960              	.LBI1900:
 3961              		.loc 13 343 10 is_stmt 1 view .LVU886
 3962              	.LBB1901:
 3963              		.loc 13 343 55 is_stmt 0 view .LVU887
 3964 0924 94F83030 		ldrb	r3, [r4, #48]	@ zero_extendqisi2
 3965              	.LBE1901:
 3966              	.LBE1900:
 3967              	.LBB1904:
 3968              	.LBB1905:
  66:../../libDaisy//src/dev/mpr121.h ****     }
 3969              		.loc 13 66 40 view .LVU888
 3970 0928 07AA     		add	r2, sp, #28
 3971 092a 94F82C10 		ldrb	r1, [r4, #44]	@ zero_extendqisi2
 3972              	.LBE1905:
 3973              	.LBE1904:
 3974              	.LBB1908:
 3975              	.LBB1902:
 3976              		.loc 13 343 55 view .LVU889
 3977 092e 4045     		cmp	r0, r8
 3978 0930 18BF     		it	ne
 3979 0932 43F00103 		orrne	r3, r3, #1
 3980              	.LBE1902:
 3981              	.LBE1908:
 3982              	.LBB1909:
 3983              	.LBB1906:
  66:../../libDaisy//src/dev/mpr121.h ****     }
 3984              		.loc 13 66 40 view .LVU890
 3985 0936 0095     		str	r5, [sp]
 3986 0938 0E48     		ldr	r0, .L19
 3987              	.LVL200:
  66:../../libDaisy//src/dev/mpr121.h ****     }
 3988              		.loc 13 66 40 view .LVU891
 3989              	.LBE1906:
 3990              	.LBE1909:
 3991              	.LBB1910:
 3992              	.LBB1903:
 3993              		.loc 13 343 55 view .LVU892
 3994 093a 84F83030 		strb	r3, [r4, #48]
 3995              	.LVL201:
 3996              		.loc 13 343 55 view .LVU893
 3997              	.LBE1903:
 3998              	.LBE1910:
 289:../../libDaisy//src/dev/mpr121.h ****             SetTransportErr(transport_.Write(buff, 2));
 3999              		.loc 13 289 21 view .LVU894
 4000 093e 9DF80830 		ldrb	r3, [sp, #8]	@ zero_extendqisi2
 288:../../libDaisy//src/dev/mpr121.h ****             buff[1] = ecr_backup;
 4001              		.loc 13 288 21 view .LVU895
 4002 0942 8DF81C60 		strb	r6, [sp, #28]
 289:../../libDaisy//src/dev/mpr121.h ****             SetTransportErr(transport_.Write(buff, 2));
 4003              		.loc 13 289 21 view .LVU896
 4004 0946 8DF81D30 		strb	r3, [sp, #29]
 4005              	.LVL202:
 4006              	.LBB1911:
 4007              	.LBI1904:
  63:../../libDaisy//src/dev/mpr121.h ****     {
ARM GAS  /var/folders/hl/qgbwny5j0fd895c2c41bk3tw0000gp/T//cckqgw4a.s 			page 104


 4008              		.loc 13 63 10 is_stmt 1 view .LVU897
 4009              	.LBB1907:
  65:../../libDaisy//src/dev/mpr121.h ****                != i2c_.TransmitBlocking(config_.dev_addr, data, size, 10);
 4010              		.loc 13 65 9 view .LVU898
  66:../../libDaisy//src/dev/mpr121.h ****     }
 4011              		.loc 13 66 40 is_stmt 0 view .LVU899
 4012 094a 0223     		movs	r3, #2
 4013 094c FFF7FEFF 		bl	_ZN5daisy9I2CHandle16TransmitBlockingEtPhtm
 4014              	.LVL203:
  66:../../libDaisy//src/dev/mpr121.h ****     }
 4015              		.loc 13 66 40 view .LVU900
 4016              	.LBE1907:
 4017              	.LBE1911:
 4018              	.LBB1912:
 4019              	.LBI1912:
 4020              		.loc 13 343 10 is_stmt 1 view .LVU901
 4021              	.LBB1913:
 4022              		.loc 13 343 55 is_stmt 0 view .LVU902
 4023 0950 94F83030 		ldrb	r3, [r4, #48]	@ zero_extendqisi2
 4024              	.LBE1913:
 4025              	.LBE1912:
 4026              	.LBE1919:
 4027              	.LBE1925:
 4028              	.LBB1926:
 4029              	.LBB1927:
 4030              	.LBB1928:
 4031              	.LBB1929:
  66:../../libDaisy//src/dev/mpr121.h ****     }
 4032              		.loc 13 66 40 view .LVU903
 4033 0954 07AA     		add	r2, sp, #28
 4034 0956 94F82C10 		ldrb	r1, [r4, #44]	@ zero_extendqisi2
 4035              	.LBE1929:
 4036              	.LBE1928:
 4037              	.LBE1927:
 4038              	.LBE1926:
 4039              	.LBB1996:
 4040              	.LBB1920:
 4041              	.LBB1916:
 4042              	.LBB1914:
 4043              		.loc 13 343 55 view .LVU904
 4044 095a 4045     		cmp	r0, r8
 4045 095c 18BF     		it	ne
 4046 095e 43F00103 		orrne	r3, r3, #1
 4047              	.LBE1914:
 4048              	.LBE1916:
 4049              	.LBE1920:
 4050              	.LBE1996:
 4051              	.LBB1997:
 4052              	.LBB1992:
 4053              	.LBB1933:
 4054              	.LBB1930:
  66:../../libDaisy//src/dev/mpr121.h ****     }
 4055              		.loc 13 66 40 view .LVU905
 4056 0962 0095     		str	r5, [sp]
 4057 0964 0348     		ldr	r0, .L19
 4058              	.LVL204:
  66:../../libDaisy//src/dev/mpr121.h ****     }
ARM GAS  /var/folders/hl/qgbwny5j0fd895c2c41bk3tw0000gp/T//cckqgw4a.s 			page 105


 4059              		.loc 13 66 40 view .LVU906
 4060              	.LBE1930:
 4061              	.LBE1933:
 4062              	.LBE1992:
 4063              	.LBE1997:
 4064              	.LBB1998:
 4065              	.LBB1921:
 4066              	.LBB1917:
 4067              	.LBB1915:
 4068              		.loc 13 343 55 view .LVU907
 4069 0966 84F83030 		strb	r3, [r4, #48]
 4070              	.LVL205:
 4071              		.loc 13 343 55 view .LVU908
 4072              	.LBE1915:
 4073              	.LBE1917:
 4074              	.LBE1921:
 4075              	.LBE1998:
 4076              	.LBB1999:
 4077              	.LBI1926:
 257:../../libDaisy//src/dev/mpr121.h ****     {
 4078              		.loc 13 257 10 is_stmt 1 view .LVU909
 4079              	.LBB1993:
 4080              	.LBB1934:
 4081              	.LBI1928:
  63:../../libDaisy//src/dev/mpr121.h ****     {
 4082              		.loc 13 63 10 view .LVU910
 4083              	.LBB1931:
  65:../../libDaisy//src/dev/mpr121.h ****                != i2c_.TransmitBlocking(config_.dev_addr, data, size, 10);
 4084              		.loc 13 65 9 view .LVU911
  66:../../libDaisy//src/dev/mpr121.h ****     }
 4085              		.loc 13 66 40 is_stmt 0 view .LVU912
 4086 096a 3B46     		mov	r3, r7
 4087              	.LBE1931:
 4088              	.LBE1934:
 264:../../libDaisy//src/dev/mpr121.h **** 
 4089              		.loc 13 264 17 view .LVU913
 4090 096c 8DF81D80 		strb	r8, [sp, #29]
 4091 0970 02E0     		b	.L20
 4092              	.L21:
 4093 0972 00BF     		.align	2
 4094              	.L19:
 4095 0974 18000000 		.word	.LANCHOR0+24
 4096              	.L20:
 4097 0978 8DF81C60 		strb	r6, [sp, #28]
 4098              	.LBB1935:
 4099              	.LBB1932:
  66:../../libDaisy//src/dev/mpr121.h ****     }
 4100              		.loc 13 66 40 view .LVU914
 4101 097c FFF7FEFF 		bl	_ZN5daisy9I2CHandle16TransmitBlockingEtPhtm
 4102              	.LVL206:
  66:../../libDaisy//src/dev/mpr121.h ****     }
 4103              		.loc 13 66 40 view .LVU915
 4104              	.LBE1932:
 4105              	.LBE1935:
 4106              	.LBB1936:
 4107              	.LBI1936:
 4108              		.loc 13 343 10 is_stmt 1 view .LVU916
ARM GAS  /var/folders/hl/qgbwny5j0fd895c2c41bk3tw0000gp/T//cckqgw4a.s 			page 106


 4109              	.LBB1937:
 4110              		.loc 13 343 55 is_stmt 0 view .LVU917
 4111 0980 94F83030 		ldrb	r3, [r4, #48]	@ zero_extendqisi2
 4112              	.LBE1937:
 4113              	.LBE1936:
 4114              	.LBB1940:
 4115              	.LBB1941:
  73:../../libDaisy//src/dev/mpr121.h ****     }
 4116              		.loc 13 73 39 view .LVU918
 4117 0984 02AA     		add	r2, sp, #8
 4118 0986 94F82C10 		ldrb	r1, [r4, #44]	@ zero_extendqisi2
 4119              	.LBE1941:
 4120              	.LBE1940:
 4121              	.LBB1944:
 4122              	.LBB1938:
 4123              		.loc 13 343 55 view .LVU919
 4124 098a 4045     		cmp	r0, r8
 4125 098c 18BF     		it	ne
 4126 098e 43F00103 		orrne	r3, r3, #1
 4127              	.LBE1938:
 4128              	.LBE1944:
 4129              	.LBB1945:
 4130              	.LBB1942:
  73:../../libDaisy//src/dev/mpr121.h ****     }
 4131              		.loc 13 73 39 view .LVU920
 4132 0992 0095     		str	r5, [sp]
 4133 0994 C148     		ldr	r0, .L22
 4134              	.LVL207:
  73:../../libDaisy//src/dev/mpr121.h ****     }
 4135              		.loc 13 73 39 view .LVU921
 4136              	.LBE1942:
 4137              	.LBE1945:
 4138              	.LBB1946:
 4139              	.LBB1939:
 4140              		.loc 13 343 55 view .LVU922
 4141 0996 84F83030 		strb	r3, [r4, #48]
 4142              	.LVL208:
 4143              		.loc 13 343 55 view .LVU923
 4144              	.LBE1939:
 4145              	.LBE1946:
 4146              	.LBB1947:
 4147              	.LBI1940:
  70:../../libDaisy//src/dev/mpr121.h ****     {
 4148              		.loc 13 70 10 is_stmt 1 view .LVU924
 4149              	.LBB1943:
  72:../../libDaisy//src/dev/mpr121.h ****                != i2c_.ReceiveBlocking(config_.dev_addr, data, size, 10);
 4150              		.loc 13 72 9 view .LVU925
  73:../../libDaisy//src/dev/mpr121.h ****     }
 4151              		.loc 13 73 39 is_stmt 0 view .LVU926
 4152 099a 3B46     		mov	r3, r7
 4153 099c FFF7FEFF 		bl	_ZN5daisy9I2CHandle15ReceiveBlockingEtPhtm
 4154              	.LVL209:
  73:../../libDaisy//src/dev/mpr121.h ****     }
 4155              		.loc 13 73 39 view .LVU927
 4156              	.LBE1943:
 4157              	.LBE1947:
 4158              	.LBB1948:
ARM GAS  /var/folders/hl/qgbwny5j0fd895c2c41bk3tw0000gp/T//cckqgw4a.s 			page 107


 4159              	.LBI1948:
 4160              		.loc 13 343 10 is_stmt 1 view .LVU928
 4161              	.LBB1949:
 4162              		.loc 13 343 55 is_stmt 0 view .LVU929
 4163 09a0 94F83030 		ldrb	r3, [r4, #48]	@ zero_extendqisi2
 4164              	.LBE1949:
 4165              	.LBE1948:
 4166              	.LBB1952:
 4167              	.LBB1953:
  66:../../libDaisy//src/dev/mpr121.h ****     }
 4168              		.loc 13 66 40 view .LVU930
 4169 09a4 07AA     		add	r2, sp, #28
 4170 09a6 94F82C10 		ldrb	r1, [r4, #44]	@ zero_extendqisi2
 4171              	.LBE1953:
 4172              	.LBE1952:
 4173              	.LBB1956:
 4174              	.LBB1950:
 4175              		.loc 13 343 55 view .LVU931
 4176 09aa 4045     		cmp	r0, r8
 4177 09ac 18BF     		it	ne
 4178 09ae 43F00103 		orrne	r3, r3, #1
 4179              	.LBE1950:
 4180              	.LBE1956:
 4181              	.LBB1957:
 4182              	.LBB1954:
  66:../../libDaisy//src/dev/mpr121.h ****     }
 4183              		.loc 13 66 40 view .LVU932
 4184 09b2 0095     		str	r5, [sp]
 4185 09b4 B948     		ldr	r0, .L22
 4186              	.LVL210:
  66:../../libDaisy//src/dev/mpr121.h ****     }
 4187              		.loc 13 66 40 view .LVU933
 4188              	.LBE1954:
 4189              	.LBE1957:
 4190              	.LBB1958:
 4191              	.LBB1951:
 4192              		.loc 13 343 55 view .LVU934
 4193 09b6 84F83030 		strb	r3, [r4, #48]
 4194              	.LVL211:
 4195              		.loc 13 343 55 view .LVU935
 4196              	.LBE1951:
 4197              	.LBE1958:
 4198              	.LBB1959:
 4199              	.LBI1952:
  63:../../libDaisy//src/dev/mpr121.h ****     {
 4200              		.loc 13 63 10 is_stmt 1 view .LVU936
 4201              	.LBB1955:
  65:../../libDaisy//src/dev/mpr121.h ****                != i2c_.TransmitBlocking(config_.dev_addr, data, size, 10);
 4202              		.loc 13 65 9 view .LVU937
  66:../../libDaisy//src/dev/mpr121.h ****     }
 4203              		.loc 13 66 40 is_stmt 0 view .LVU938
 4204 09ba 0223     		movs	r3, #2
 4205 09bc FFF7FEFF 		bl	_ZN5daisy9I2CHandle16TransmitBlockingEtPhtm
 4206              	.LVL212:
  66:../../libDaisy//src/dev/mpr121.h ****     }
 4207              		.loc 13 66 40 view .LVU939
 4208              	.LBE1955:
ARM GAS  /var/folders/hl/qgbwny5j0fd895c2c41bk3tw0000gp/T//cckqgw4a.s 			page 108


 4209              	.LBE1959:
 4210              	.LBB1960:
 4211              	.LBI1960:
 4212              		.loc 13 343 10 is_stmt 1 view .LVU940
 4213              	.LBB1961:
 4214              		.loc 13 343 55 is_stmt 0 view .LVU941
 4215 09c0 94F83030 		ldrb	r3, [r4, #48]	@ zero_extendqisi2
 4216              	.LBE1961:
 4217              	.LBE1960:
 4218              	.LBB1964:
 4219              	.LBB1965:
  66:../../libDaisy//src/dev/mpr121.h ****     }
 4220              		.loc 13 66 40 view .LVU942
 4221 09c4 07AA     		add	r2, sp, #28
 4222 09c6 94F82C10 		ldrb	r1, [r4, #44]	@ zero_extendqisi2
 4223              	.LBE1965:
 4224              	.LBE1964:
 4225              	.LBB1969:
 4226              	.LBB1962:
 4227              		.loc 13 343 55 view .LVU943
 4228 09ca 4045     		cmp	r0, r8
 4229 09cc 18BF     		it	ne
 4230 09ce 43F00103 		orrne	r3, r3, #1
 4231              	.LBE1962:
 4232              	.LBE1969:
 4233              	.LBB1970:
 4234              	.LBB1966:
  66:../../libDaisy//src/dev/mpr121.h ****     }
 4235              		.loc 13 66 40 view .LVU944
 4236 09d2 0095     		str	r5, [sp]
 4237 09d4 B148     		ldr	r0, .L22
 4238              	.LVL213:
  66:../../libDaisy//src/dev/mpr121.h ****     }
 4239              		.loc 13 66 40 view .LVU945
 4240              	.LBE1966:
 4241              	.LBE1970:
 4242              	.LBB1971:
 4243              	.LBB1963:
 4244              		.loc 13 343 55 view .LVU946
 4245 09d6 84F83030 		strb	r3, [r4, #48]
 4246              	.LVL214:
 4247              		.loc 13 343 55 view .LVU947
 4248              	.LBE1963:
 4249              	.LBE1971:
 4250              	.LBB1972:
 4251              	.LBI1964:
  63:../../libDaisy//src/dev/mpr121.h ****     {
 4252              		.loc 13 63 10 is_stmt 1 view .LVU948
 4253              	.LBB1967:
  65:../../libDaisy//src/dev/mpr121.h ****                != i2c_.TransmitBlocking(config_.dev_addr, data, size, 10);
 4254              		.loc 13 65 9 view .LVU949
 4255              	.LBE1967:
 4256              	.LBE1972:
 281:../../libDaisy//src/dev/mpr121.h ****         buff[1] = value;
 4257              		.loc 13 281 17 is_stmt 0 view .LVU950
 4258 09da 3323     		movs	r3, #51
 282:../../libDaisy//src/dev/mpr121.h ****         SetTransportErr(transport_.Write(buff, 2));
ARM GAS  /var/folders/hl/qgbwny5j0fd895c2c41bk3tw0000gp/T//cckqgw4a.s 			page 109


 4259              		.loc 13 282 17 view .LVU951
 4260 09dc 8DF81D80 		strb	r8, [sp, #29]
 281:../../libDaisy//src/dev/mpr121.h ****         buff[1] = value;
 4261              		.loc 13 281 17 view .LVU952
 4262 09e0 8DF81C30 		strb	r3, [sp, #28]
 4263              	.LBB1973:
 4264              	.LBB1968:
  66:../../libDaisy//src/dev/mpr121.h ****     }
 4265              		.loc 13 66 40 view .LVU953
 4266 09e4 0223     		movs	r3, #2
 4267 09e6 FFF7FEFF 		bl	_ZN5daisy9I2CHandle16TransmitBlockingEtPhtm
 4268              	.LVL215:
  66:../../libDaisy//src/dev/mpr121.h ****     }
 4269              		.loc 13 66 40 view .LVU954
 4270              	.LBE1968:
 4271              	.LBE1973:
 4272              	.LBB1974:
 4273              	.LBI1974:
 4274              		.loc 13 343 10 is_stmt 1 view .LVU955
 4275              	.LBB1975:
 4276              		.loc 13 343 55 is_stmt 0 view .LVU956
 4277 09ea 94F83030 		ldrb	r3, [r4, #48]	@ zero_extendqisi2
 4278              	.LBE1975:
 4279              	.LBE1974:
 4280              	.LBB1978:
 4281              	.LBB1979:
  66:../../libDaisy//src/dev/mpr121.h ****     }
 4282              		.loc 13 66 40 view .LVU957
 4283 09ee 07AA     		add	r2, sp, #28
 4284 09f0 94F82C10 		ldrb	r1, [r4, #44]	@ zero_extendqisi2
 4285              	.LBE1979:
 4286              	.LBE1978:
 4287              	.LBB1982:
 4288              	.LBB1976:
 4289              		.loc 13 343 55 view .LVU958
 4290 09f4 4045     		cmp	r0, r8
 4291 09f6 18BF     		it	ne
 4292 09f8 43F00103 		orrne	r3, r3, #1
 4293              	.LBE1976:
 4294              	.LBE1982:
 4295              	.LBB1983:
 4296              	.LBB1980:
  66:../../libDaisy//src/dev/mpr121.h ****     }
 4297              		.loc 13 66 40 view .LVU959
 4298 09fc 0095     		str	r5, [sp]
 4299 09fe A748     		ldr	r0, .L22
 4300              	.LVL216:
  66:../../libDaisy//src/dev/mpr121.h ****     }
 4301              		.loc 13 66 40 view .LVU960
 4302              	.LBE1980:
 4303              	.LBE1983:
 4304              	.LBB1984:
 4305              	.LBB1977:
 4306              		.loc 13 343 55 view .LVU961
 4307 0a00 84F83030 		strb	r3, [r4, #48]
 4308              	.LVL217:
 4309              		.loc 13 343 55 view .LVU962
ARM GAS  /var/folders/hl/qgbwny5j0fd895c2c41bk3tw0000gp/T//cckqgw4a.s 			page 110


 4310              	.LBE1977:
 4311              	.LBE1984:
 289:../../libDaisy//src/dev/mpr121.h ****             SetTransportErr(transport_.Write(buff, 2));
 4312              		.loc 13 289 21 view .LVU963
 4313 0a04 9DF80830 		ldrb	r3, [sp, #8]	@ zero_extendqisi2
 288:../../libDaisy//src/dev/mpr121.h ****             buff[1] = ecr_backup;
 4314              		.loc 13 288 21 view .LVU964
 4315 0a08 8DF81C60 		strb	r6, [sp, #28]
 289:../../libDaisy//src/dev/mpr121.h ****             SetTransportErr(transport_.Write(buff, 2));
 4316              		.loc 13 289 21 view .LVU965
 4317 0a0c 8DF81D30 		strb	r3, [sp, #29]
 4318              	.LVL218:
 4319              	.LBB1985:
 4320              	.LBI1978:
  63:../../libDaisy//src/dev/mpr121.h ****     {
 4321              		.loc 13 63 10 is_stmt 1 view .LVU966
 4322              	.LBB1981:
  65:../../libDaisy//src/dev/mpr121.h ****                != i2c_.TransmitBlocking(config_.dev_addr, data, size, 10);
 4323              		.loc 13 65 9 view .LVU967
  66:../../libDaisy//src/dev/mpr121.h ****     }
 4324              		.loc 13 66 40 is_stmt 0 view .LVU968
 4325 0a10 0223     		movs	r3, #2
 4326 0a12 FFF7FEFF 		bl	_ZN5daisy9I2CHandle16TransmitBlockingEtPhtm
 4327              	.LVL219:
  66:../../libDaisy//src/dev/mpr121.h ****     }
 4328              		.loc 13 66 40 view .LVU969
 4329              	.LBE1981:
 4330              	.LBE1985:
 4331              	.LBB1986:
 4332              	.LBI1986:
 4333              		.loc 13 343 10 is_stmt 1 view .LVU970
 4334              	.LBB1987:
 4335              		.loc 13 343 55 is_stmt 0 view .LVU971
 4336 0a16 94F83030 		ldrb	r3, [r4, #48]	@ zero_extendqisi2
 4337              	.LBE1987:
 4338              	.LBE1986:
 4339              	.LBE1993:
 4340              	.LBE1999:
 4341              	.LBB2000:
 4342              	.LBB2001:
 4343              	.LBB2002:
 4344              	.LBB2003:
  66:../../libDaisy//src/dev/mpr121.h ****     }
 4345              		.loc 13 66 40 view .LVU972
 4346 0a1a 07AA     		add	r2, sp, #28
 4347 0a1c 94F82C10 		ldrb	r1, [r4, #44]	@ zero_extendqisi2
 4348              	.LBE2003:
 4349              	.LBE2002:
 4350              	.LBE2001:
 4351              	.LBE2000:
 4352              	.LBB2070:
 4353              	.LBB1994:
 4354              	.LBB1990:
 4355              	.LBB1988:
 4356              		.loc 13 343 55 view .LVU973
 4357 0a20 4045     		cmp	r0, r8
 4358 0a22 18BF     		it	ne
ARM GAS  /var/folders/hl/qgbwny5j0fd895c2c41bk3tw0000gp/T//cckqgw4a.s 			page 111


 4359 0a24 43F00103 		orrne	r3, r3, #1
 4360              	.LBE1988:
 4361              	.LBE1990:
 4362              	.LBE1994:
 4363              	.LBE2070:
 4364              	.LBB2071:
 4365              	.LBB2066:
 4366              	.LBB2007:
 4367              	.LBB2004:
  66:../../libDaisy//src/dev/mpr121.h ****     }
 4368              		.loc 13 66 40 view .LVU974
 4369 0a28 0095     		str	r5, [sp]
 4370 0a2a 9C48     		ldr	r0, .L22
 4371              	.LVL220:
  66:../../libDaisy//src/dev/mpr121.h ****     }
 4372              		.loc 13 66 40 view .LVU975
 4373              	.LBE2004:
 4374              	.LBE2007:
 4375              	.LBE2066:
 4376              	.LBE2071:
 4377              	.LBB2072:
 4378              	.LBB1995:
 4379              	.LBB1991:
 4380              	.LBB1989:
 4381              		.loc 13 343 55 view .LVU976
 4382 0a2c 84F83030 		strb	r3, [r4, #48]
 4383              	.LVL221:
 4384              		.loc 13 343 55 view .LVU977
 4385              	.LBE1989:
 4386              	.LBE1991:
 4387              	.LBE1995:
 4388              	.LBE2072:
 4389              	.LBB2073:
 4390              	.LBI2000:
 257:../../libDaisy//src/dev/mpr121.h ****     {
 4391              		.loc 13 257 10 is_stmt 1 view .LVU978
 4392              	.LBB2067:
 4393              	.LBB2008:
 4394              	.LBI2002:
  63:../../libDaisy//src/dev/mpr121.h ****     {
 4395              		.loc 13 63 10 view .LVU979
 4396              	.LBB2005:
  65:../../libDaisy//src/dev/mpr121.h ****                != i2c_.TransmitBlocking(config_.dev_addr, data, size, 10);
 4397              		.loc 13 65 9 view .LVU980
  66:../../libDaisy//src/dev/mpr121.h ****     }
 4398              		.loc 13 66 40 is_stmt 0 view .LVU981
 4399 0a30 3B46     		mov	r3, r7
 4400              	.LBE2005:
 4401              	.LBE2008:
 264:../../libDaisy//src/dev/mpr121.h **** 
 4402              		.loc 13 264 17 view .LVU982
 4403 0a32 8DF81D80 		strb	r8, [sp, #29]
 4404 0a36 8DF81C60 		strb	r6, [sp, #28]
 4405              	.LBB2009:
 4406              	.LBB2006:
  66:../../libDaisy//src/dev/mpr121.h ****     }
 4407              		.loc 13 66 40 view .LVU983
ARM GAS  /var/folders/hl/qgbwny5j0fd895c2c41bk3tw0000gp/T//cckqgw4a.s 			page 112


 4408 0a3a FFF7FEFF 		bl	_ZN5daisy9I2CHandle16TransmitBlockingEtPhtm
 4409              	.LVL222:
  66:../../libDaisy//src/dev/mpr121.h ****     }
 4410              		.loc 13 66 40 view .LVU984
 4411              	.LBE2006:
 4412              	.LBE2009:
 4413              	.LBB2010:
 4414              	.LBI2010:
 4415              		.loc 13 343 10 is_stmt 1 view .LVU985
 4416              	.LBB2011:
 4417              		.loc 13 343 55 is_stmt 0 view .LVU986
 4418 0a3e 94F83030 		ldrb	r3, [r4, #48]	@ zero_extendqisi2
 4419              	.LBE2011:
 4420              	.LBE2010:
 4421              	.LBB2014:
 4422              	.LBB2015:
  73:../../libDaisy//src/dev/mpr121.h ****     }
 4423              		.loc 13 73 39 view .LVU987
 4424 0a42 02AA     		add	r2, sp, #8
 4425 0a44 94F82C10 		ldrb	r1, [r4, #44]	@ zero_extendqisi2
 4426              	.LBE2015:
 4427              	.LBE2014:
 4428              	.LBB2018:
 4429              	.LBB2012:
 4430              		.loc 13 343 55 view .LVU988
 4431 0a48 4045     		cmp	r0, r8
 4432 0a4a 18BF     		it	ne
 4433 0a4c 43F00103 		orrne	r3, r3, #1
 4434              	.LBE2012:
 4435              	.LBE2018:
 4436              	.LBB2019:
 4437              	.LBB2016:
  73:../../libDaisy//src/dev/mpr121.h ****     }
 4438              		.loc 13 73 39 view .LVU989
 4439 0a50 0095     		str	r5, [sp]
 4440 0a52 9248     		ldr	r0, .L22
 4441              	.LVL223:
  73:../../libDaisy//src/dev/mpr121.h ****     }
 4442              		.loc 13 73 39 view .LVU990
 4443              	.LBE2016:
 4444              	.LBE2019:
 4445              	.LBB2020:
 4446              	.LBB2013:
 4447              		.loc 13 343 55 view .LVU991
 4448 0a54 84F83030 		strb	r3, [r4, #48]
 4449              	.LVL224:
 4450              		.loc 13 343 55 view .LVU992
 4451              	.LBE2013:
 4452              	.LBE2020:
 4453              	.LBB2021:
 4454              	.LBI2014:
  70:../../libDaisy//src/dev/mpr121.h ****     {
 4455              		.loc 13 70 10 is_stmt 1 view .LVU993
 4456              	.LBB2017:
  72:../../libDaisy//src/dev/mpr121.h ****                != i2c_.ReceiveBlocking(config_.dev_addr, data, size, 10);
 4457              		.loc 13 72 9 view .LVU994
  73:../../libDaisy//src/dev/mpr121.h ****     }
ARM GAS  /var/folders/hl/qgbwny5j0fd895c2c41bk3tw0000gp/T//cckqgw4a.s 			page 113


 4458              		.loc 13 73 39 is_stmt 0 view .LVU995
 4459 0a58 3B46     		mov	r3, r7
 4460 0a5a FFF7FEFF 		bl	_ZN5daisy9I2CHandle15ReceiveBlockingEtPhtm
 4461              	.LVL225:
  73:../../libDaisy//src/dev/mpr121.h ****     }
 4462              		.loc 13 73 39 view .LVU996
 4463              	.LBE2017:
 4464              	.LBE2021:
 4465              	.LBB2022:
 4466              	.LBI2022:
 4467              		.loc 13 343 10 is_stmt 1 view .LVU997
 4468              	.LBB2023:
 4469              		.loc 13 343 55 is_stmt 0 view .LVU998
 4470 0a5e 94F83030 		ldrb	r3, [r4, #48]	@ zero_extendqisi2
 4471              	.LBE2023:
 4472              	.LBE2022:
 4473              	.LBB2026:
 4474              	.LBB2027:
  66:../../libDaisy//src/dev/mpr121.h ****     }
 4475              		.loc 13 66 40 view .LVU999
 4476 0a62 07AA     		add	r2, sp, #28
 4477 0a64 94F82C10 		ldrb	r1, [r4, #44]	@ zero_extendqisi2
 4478              	.LBE2027:
 4479              	.LBE2026:
 4480              	.LBB2030:
 4481              	.LBB2024:
 4482              		.loc 13 343 55 view .LVU1000
 4483 0a68 4045     		cmp	r0, r8
 4484 0a6a 18BF     		it	ne
 4485 0a6c 43F00103 		orrne	r3, r3, #1
 4486              	.LBE2024:
 4487              	.LBE2030:
 4488              	.LBB2031:
 4489              	.LBB2028:
  66:../../libDaisy//src/dev/mpr121.h ****     }
 4490              		.loc 13 66 40 view .LVU1001
 4491 0a70 0095     		str	r5, [sp]
 4492 0a72 8A48     		ldr	r0, .L22
 4493              	.LVL226:
  66:../../libDaisy//src/dev/mpr121.h ****     }
 4494              		.loc 13 66 40 view .LVU1002
 4495              	.LBE2028:
 4496              	.LBE2031:
 4497              	.LBB2032:
 4498              	.LBB2025:
 4499              		.loc 13 343 55 view .LVU1003
 4500 0a74 84F83030 		strb	r3, [r4, #48]
 4501              	.LVL227:
 4502              		.loc 13 343 55 view .LVU1004
 4503              	.LBE2025:
 4504              	.LBE2032:
 4505              	.LBB2033:
 4506              	.LBI2026:
  63:../../libDaisy//src/dev/mpr121.h ****     {
 4507              		.loc 13 63 10 is_stmt 1 view .LVU1005
 4508              	.LBB2029:
  65:../../libDaisy//src/dev/mpr121.h ****                != i2c_.TransmitBlocking(config_.dev_addr, data, size, 10);
ARM GAS  /var/folders/hl/qgbwny5j0fd895c2c41bk3tw0000gp/T//cckqgw4a.s 			page 114


 4509              		.loc 13 65 9 view .LVU1006
  66:../../libDaisy//src/dev/mpr121.h ****     }
 4510              		.loc 13 66 40 is_stmt 0 view .LVU1007
 4511 0a78 0223     		movs	r3, #2
 4512 0a7a FFF7FEFF 		bl	_ZN5daisy9I2CHandle16TransmitBlockingEtPhtm
 4513              	.LVL228:
  66:../../libDaisy//src/dev/mpr121.h ****     }
 4514              		.loc 13 66 40 view .LVU1008
 4515              	.LBE2029:
 4516              	.LBE2033:
 4517              	.LBB2034:
 4518              	.LBI2034:
 4519              		.loc 13 343 10 is_stmt 1 view .LVU1009
 4520              	.LBB2035:
 4521              		.loc 13 343 55 is_stmt 0 view .LVU1010
 4522 0a7e 94F83030 		ldrb	r3, [r4, #48]	@ zero_extendqisi2
 4523              	.LBE2035:
 4524              	.LBE2034:
 4525              	.LBB2038:
 4526              	.LBB2039:
  66:../../libDaisy//src/dev/mpr121.h ****     }
 4527              		.loc 13 66 40 view .LVU1011
 4528 0a82 07AA     		add	r2, sp, #28
 4529 0a84 94F82C10 		ldrb	r1, [r4, #44]	@ zero_extendqisi2
 4530              	.LBE2039:
 4531              	.LBE2038:
 4532              	.LBB2043:
 4533              	.LBB2036:
 4534              		.loc 13 343 55 view .LVU1012
 4535 0a88 4045     		cmp	r0, r8
 4536 0a8a 18BF     		it	ne
 4537 0a8c 43F00103 		orrne	r3, r3, #1
 4538              	.LBE2036:
 4539              	.LBE2043:
 4540              	.LBB2044:
 4541              	.LBB2040:
  66:../../libDaisy//src/dev/mpr121.h ****     }
 4542              		.loc 13 66 40 view .LVU1013
 4543 0a90 0095     		str	r5, [sp]
 4544 0a92 8248     		ldr	r0, .L22
 4545              	.LVL229:
  66:../../libDaisy//src/dev/mpr121.h ****     }
 4546              		.loc 13 66 40 view .LVU1014
 4547              	.LBE2040:
 4548              	.LBE2044:
 4549              	.LBB2045:
 4550              	.LBB2037:
 4551              		.loc 13 343 55 view .LVU1015
 4552 0a94 84F83030 		strb	r3, [r4, #48]
 4553              	.LVL230:
 4554              		.loc 13 343 55 view .LVU1016
 4555              	.LBE2037:
 4556              	.LBE2045:
 4557              	.LBB2046:
 4558              	.LBI2038:
  63:../../libDaisy//src/dev/mpr121.h ****     {
 4559              		.loc 13 63 10 is_stmt 1 view .LVU1017
ARM GAS  /var/folders/hl/qgbwny5j0fd895c2c41bk3tw0000gp/T//cckqgw4a.s 			page 115


 4560              	.LBB2041:
  65:../../libDaisy//src/dev/mpr121.h ****                != i2c_.TransmitBlocking(config_.dev_addr, data, size, 10);
 4561              		.loc 13 65 9 view .LVU1018
 4562              	.LBE2041:
 4563              	.LBE2046:
 281:../../libDaisy//src/dev/mpr121.h ****         buff[1] = value;
 4564              		.loc 13 281 17 is_stmt 0 view .LVU1019
 4565 0a98 3423     		movs	r3, #52
 282:../../libDaisy//src/dev/mpr121.h ****         SetTransportErr(transport_.Write(buff, 2));
 4566              		.loc 13 282 17 view .LVU1020
 4567 0a9a 8DF81D80 		strb	r8, [sp, #29]
 281:../../libDaisy//src/dev/mpr121.h ****         buff[1] = value;
 4568              		.loc 13 281 17 view .LVU1021
 4569 0a9e 8DF81C30 		strb	r3, [sp, #28]
 4570              	.LBB2047:
 4571              	.LBB2042:
  66:../../libDaisy//src/dev/mpr121.h ****     }
 4572              		.loc 13 66 40 view .LVU1022
 4573 0aa2 0223     		movs	r3, #2
 4574 0aa4 FFF7FEFF 		bl	_ZN5daisy9I2CHandle16TransmitBlockingEtPhtm
 4575              	.LVL231:
  66:../../libDaisy//src/dev/mpr121.h ****     }
 4576              		.loc 13 66 40 view .LVU1023
 4577              	.LBE2042:
 4578              	.LBE2047:
 4579              	.LBB2048:
 4580              	.LBI2048:
 4581              		.loc 13 343 10 is_stmt 1 view .LVU1024
 4582              	.LBB2049:
 4583              		.loc 13 343 55 is_stmt 0 view .LVU1025
 4584 0aa8 94F83030 		ldrb	r3, [r4, #48]	@ zero_extendqisi2
 4585              	.LBE2049:
 4586              	.LBE2048:
 4587              	.LBB2052:
 4588              	.LBB2053:
  66:../../libDaisy//src/dev/mpr121.h ****     }
 4589              		.loc 13 66 40 view .LVU1026
 4590 0aac 07AA     		add	r2, sp, #28
 4591 0aae 94F82C10 		ldrb	r1, [r4, #44]	@ zero_extendqisi2
 4592              	.LBE2053:
 4593              	.LBE2052:
 4594              	.LBB2056:
 4595              	.LBB2050:
 4596              		.loc 13 343 55 view .LVU1027
 4597 0ab2 4045     		cmp	r0, r8
 4598 0ab4 18BF     		it	ne
 4599 0ab6 43F00103 		orrne	r3, r3, #1
 4600              	.LBE2050:
 4601              	.LBE2056:
 4602              	.LBB2057:
 4603              	.LBB2054:
  66:../../libDaisy//src/dev/mpr121.h ****     }
 4604              		.loc 13 66 40 view .LVU1028
 4605 0aba 0095     		str	r5, [sp]
 4606 0abc 7748     		ldr	r0, .L22
 4607              	.LVL232:
  66:../../libDaisy//src/dev/mpr121.h ****     }
ARM GAS  /var/folders/hl/qgbwny5j0fd895c2c41bk3tw0000gp/T//cckqgw4a.s 			page 116


 4608              		.loc 13 66 40 view .LVU1029
 4609              	.LBE2054:
 4610              	.LBE2057:
 4611              	.LBB2058:
 4612              	.LBB2051:
 4613              		.loc 13 343 55 view .LVU1030
 4614 0abe 84F83030 		strb	r3, [r4, #48]
 4615              	.LVL233:
 4616              		.loc 13 343 55 view .LVU1031
 4617              	.LBE2051:
 4618              	.LBE2058:
 289:../../libDaisy//src/dev/mpr121.h ****             SetTransportErr(transport_.Write(buff, 2));
 4619              		.loc 13 289 21 view .LVU1032
 4620 0ac2 9DF80830 		ldrb	r3, [sp, #8]	@ zero_extendqisi2
 288:../../libDaisy//src/dev/mpr121.h ****             buff[1] = ecr_backup;
 4621              		.loc 13 288 21 view .LVU1033
 4622 0ac6 8DF81C60 		strb	r6, [sp, #28]
 289:../../libDaisy//src/dev/mpr121.h ****             SetTransportErr(transport_.Write(buff, 2));
 4623              		.loc 13 289 21 view .LVU1034
 4624 0aca 8DF81D30 		strb	r3, [sp, #29]
 4625              	.LVL234:
 4626              	.LBB2059:
 4627              	.LBI2052:
  63:../../libDaisy//src/dev/mpr121.h ****     {
 4628              		.loc 13 63 10 is_stmt 1 view .LVU1035
 4629              	.LBB2055:
  65:../../libDaisy//src/dev/mpr121.h ****                != i2c_.TransmitBlocking(config_.dev_addr, data, size, 10);
 4630              		.loc 13 65 9 view .LVU1036
  66:../../libDaisy//src/dev/mpr121.h ****     }
 4631              		.loc 13 66 40 is_stmt 0 view .LVU1037
 4632 0ace 0223     		movs	r3, #2
 4633 0ad0 FFF7FEFF 		bl	_ZN5daisy9I2CHandle16TransmitBlockingEtPhtm
 4634              	.LVL235:
  66:../../libDaisy//src/dev/mpr121.h ****     }
 4635              		.loc 13 66 40 view .LVU1038
 4636              	.LBE2055:
 4637              	.LBE2059:
 4638              	.LBB2060:
 4639              	.LBI2060:
 4640              		.loc 13 343 10 is_stmt 1 view .LVU1039
 4641              	.LBB2061:
 4642              		.loc 13 343 55 is_stmt 0 view .LVU1040
 4643 0ad4 94F83030 		ldrb	r3, [r4, #48]	@ zero_extendqisi2
 4644              	.LBE2061:
 4645              	.LBE2060:
 4646              	.LBE2067:
 4647              	.LBE2073:
 4648              	.LBB2074:
 4649              	.LBB2075:
 4650              	.LBB2076:
 4651              	.LBB2077:
  66:../../libDaisy//src/dev/mpr121.h ****     }
 4652              		.loc 13 66 40 view .LVU1041
 4653 0ad8 07AA     		add	r2, sp, #28
 4654 0ada 94F82C10 		ldrb	r1, [r4, #44]	@ zero_extendqisi2
 4655              	.LBE2077:
 4656              	.LBE2076:
ARM GAS  /var/folders/hl/qgbwny5j0fd895c2c41bk3tw0000gp/T//cckqgw4a.s 			page 117


 4657              	.LBE2075:
 4658              	.LBE2074:
 4659              	.LBB2144:
 4660              	.LBB2068:
 4661              	.LBB2064:
 4662              	.LBB2062:
 4663              		.loc 13 343 55 view .LVU1042
 4664 0ade 4045     		cmp	r0, r8
 4665 0ae0 18BF     		it	ne
 4666 0ae2 43F00103 		orrne	r3, r3, #1
 4667              	.LBE2062:
 4668              	.LBE2064:
 4669              	.LBE2068:
 4670              	.LBE2144:
 4671              	.LBB2145:
 4672              	.LBB2140:
 4673              	.LBB2081:
 4674              	.LBB2078:
  66:../../libDaisy//src/dev/mpr121.h ****     }
 4675              		.loc 13 66 40 view .LVU1043
 4676 0ae6 0095     		str	r5, [sp]
 4677 0ae8 6C48     		ldr	r0, .L22
 4678              	.LVL236:
  66:../../libDaisy//src/dev/mpr121.h ****     }
 4679              		.loc 13 66 40 view .LVU1044
 4680              	.LBE2078:
 4681              	.LBE2081:
 4682              	.LBE2140:
 4683              	.LBE2145:
 4684              	.LBB2146:
 4685              	.LBB2069:
 4686              	.LBB2065:
 4687              	.LBB2063:
 4688              		.loc 13 343 55 view .LVU1045
 4689 0aea 84F83030 		strb	r3, [r4, #48]
 4690              	.LVL237:
 4691              		.loc 13 343 55 view .LVU1046
 4692              	.LBE2063:
 4693              	.LBE2065:
 4694              	.LBE2069:
 4695              	.LBE2146:
 4696              	.LBB2147:
 4697              	.LBI2074:
 257:../../libDaisy//src/dev/mpr121.h ****     {
 4698              		.loc 13 257 10 is_stmt 1 view .LVU1047
 4699              	.LBB2141:
 4700              	.LBB2082:
 4701              	.LBI2076:
  63:../../libDaisy//src/dev/mpr121.h ****     {
 4702              		.loc 13 63 10 view .LVU1048
 4703              	.LBB2079:
  65:../../libDaisy//src/dev/mpr121.h ****                != i2c_.TransmitBlocking(config_.dev_addr, data, size, 10);
 4704              		.loc 13 65 9 view .LVU1049
  66:../../libDaisy//src/dev/mpr121.h ****     }
 4705              		.loc 13 66 40 is_stmt 0 view .LVU1050
 4706 0aee 3B46     		mov	r3, r7
 4707              	.LBE2079:
ARM GAS  /var/folders/hl/qgbwny5j0fd895c2c41bk3tw0000gp/T//cckqgw4a.s 			page 118


 4708              	.LBE2082:
 264:../../libDaisy//src/dev/mpr121.h **** 
 4709              		.loc 13 264 17 view .LVU1051
 4710 0af0 8DF81D80 		strb	r8, [sp, #29]
 4711 0af4 8DF81C60 		strb	r6, [sp, #28]
 4712              	.LBB2083:
 4713              	.LBB2080:
  66:../../libDaisy//src/dev/mpr121.h ****     }
 4714              		.loc 13 66 40 view .LVU1052
 4715 0af8 FFF7FEFF 		bl	_ZN5daisy9I2CHandle16TransmitBlockingEtPhtm
 4716              	.LVL238:
  66:../../libDaisy//src/dev/mpr121.h ****     }
 4717              		.loc 13 66 40 view .LVU1053
 4718              	.LBE2080:
 4719              	.LBE2083:
 4720              	.LBB2084:
 4721              	.LBI2084:
 4722              		.loc 13 343 10 is_stmt 1 view .LVU1054
 4723              	.LBB2085:
 4724              		.loc 13 343 55 is_stmt 0 view .LVU1055
 4725 0afc 94F83030 		ldrb	r3, [r4, #48]	@ zero_extendqisi2
 4726              	.LBE2085:
 4727              	.LBE2084:
 4728              	.LBB2088:
 4729              	.LBB2089:
  73:../../libDaisy//src/dev/mpr121.h ****     }
 4730              		.loc 13 73 39 view .LVU1056
 4731 0b00 02AA     		add	r2, sp, #8
 4732 0b02 94F82C10 		ldrb	r1, [r4, #44]	@ zero_extendqisi2
 4733              	.LBE2089:
 4734              	.LBE2088:
 4735              	.LBB2092:
 4736              	.LBB2086:
 4737              		.loc 13 343 55 view .LVU1057
 4738 0b06 4045     		cmp	r0, r8
 4739 0b08 18BF     		it	ne
 4740 0b0a 43F00103 		orrne	r3, r3, #1
 4741              	.LBE2086:
 4742              	.LBE2092:
 4743              	.LBB2093:
 4744              	.LBB2090:
  73:../../libDaisy//src/dev/mpr121.h ****     }
 4745              		.loc 13 73 39 view .LVU1058
 4746 0b0e 0095     		str	r5, [sp]
 4747 0b10 6248     		ldr	r0, .L22
 4748              	.LVL239:
  73:../../libDaisy//src/dev/mpr121.h ****     }
 4749              		.loc 13 73 39 view .LVU1059
 4750              	.LBE2090:
 4751              	.LBE2093:
 4752              	.LBB2094:
 4753              	.LBB2087:
 4754              		.loc 13 343 55 view .LVU1060
 4755 0b12 84F83030 		strb	r3, [r4, #48]
 4756              	.LVL240:
 4757              		.loc 13 343 55 view .LVU1061
 4758              	.LBE2087:
ARM GAS  /var/folders/hl/qgbwny5j0fd895c2c41bk3tw0000gp/T//cckqgw4a.s 			page 119


 4759              	.LBE2094:
 4760              	.LBB2095:
 4761              	.LBI2088:
  70:../../libDaisy//src/dev/mpr121.h ****     {
 4762              		.loc 13 70 10 is_stmt 1 view .LVU1062
 4763              	.LBB2091:
  72:../../libDaisy//src/dev/mpr121.h ****                != i2c_.ReceiveBlocking(config_.dev_addr, data, size, 10);
 4764              		.loc 13 72 9 view .LVU1063
  73:../../libDaisy//src/dev/mpr121.h ****     }
 4765              		.loc 13 73 39 is_stmt 0 view .LVU1064
 4766 0b16 3B46     		mov	r3, r7
 4767 0b18 FFF7FEFF 		bl	_ZN5daisy9I2CHandle15ReceiveBlockingEtPhtm
 4768              	.LVL241:
  73:../../libDaisy//src/dev/mpr121.h ****     }
 4769              		.loc 13 73 39 view .LVU1065
 4770              	.LBE2091:
 4771              	.LBE2095:
 4772              	.LBB2096:
 4773              	.LBI2096:
 4774              		.loc 13 343 10 is_stmt 1 view .LVU1066
 4775              	.LBB2097:
 4776              		.loc 13 343 55 is_stmt 0 view .LVU1067
 4777 0b1c 94F83030 		ldrb	r3, [r4, #48]	@ zero_extendqisi2
 4778              	.LBE2097:
 4779              	.LBE2096:
 4780              	.LBB2100:
 4781              	.LBB2101:
  66:../../libDaisy//src/dev/mpr121.h ****     }
 4782              		.loc 13 66 40 view .LVU1068
 4783 0b20 07AA     		add	r2, sp, #28
 4784 0b22 94F82C10 		ldrb	r1, [r4, #44]	@ zero_extendqisi2
 4785              	.LBE2101:
 4786              	.LBE2100:
 4787              	.LBB2104:
 4788              	.LBB2098:
 4789              		.loc 13 343 55 view .LVU1069
 4790 0b26 4045     		cmp	r0, r8
 4791 0b28 18BF     		it	ne
 4792 0b2a 43F00103 		orrne	r3, r3, #1
 4793              	.LBE2098:
 4794              	.LBE2104:
 4795              	.LBB2105:
 4796              	.LBB2102:
  66:../../libDaisy//src/dev/mpr121.h ****     }
 4797              		.loc 13 66 40 view .LVU1070
 4798 0b2e 0095     		str	r5, [sp]
 4799 0b30 5A48     		ldr	r0, .L22
 4800              	.LVL242:
  66:../../libDaisy//src/dev/mpr121.h ****     }
 4801              		.loc 13 66 40 view .LVU1071
 4802              	.LBE2102:
 4803              	.LBE2105:
 4804              	.LBB2106:
 4805              	.LBB2099:
 4806              		.loc 13 343 55 view .LVU1072
 4807 0b32 84F83030 		strb	r3, [r4, #48]
 4808              	.LVL243:
ARM GAS  /var/folders/hl/qgbwny5j0fd895c2c41bk3tw0000gp/T//cckqgw4a.s 			page 120


 4809              		.loc 13 343 55 view .LVU1073
 4810              	.LBE2099:
 4811              	.LBE2106:
 4812              	.LBB2107:
 4813              	.LBI2100:
  63:../../libDaisy//src/dev/mpr121.h ****     {
 4814              		.loc 13 63 10 is_stmt 1 view .LVU1074
 4815              	.LBB2103:
  65:../../libDaisy//src/dev/mpr121.h ****                != i2c_.TransmitBlocking(config_.dev_addr, data, size, 10);
 4816              		.loc 13 65 9 view .LVU1075
  66:../../libDaisy//src/dev/mpr121.h ****     }
 4817              		.loc 13 66 40 is_stmt 0 view .LVU1076
 4818 0b36 0223     		movs	r3, #2
 4819 0b38 FFF7FEFF 		bl	_ZN5daisy9I2CHandle16TransmitBlockingEtPhtm
 4820              	.LVL244:
  66:../../libDaisy//src/dev/mpr121.h ****     }
 4821              		.loc 13 66 40 view .LVU1077
 4822              	.LBE2103:
 4823              	.LBE2107:
 4824              	.LBB2108:
 4825              	.LBI2108:
 4826              		.loc 13 343 10 is_stmt 1 view .LVU1078
 4827              	.LBB2109:
 4828              		.loc 13 343 55 is_stmt 0 view .LVU1079
 4829 0b3c 94F83030 		ldrb	r3, [r4, #48]	@ zero_extendqisi2
 4830              	.LBE2109:
 4831              	.LBE2108:
 4832              	.LBB2112:
 4833              	.LBB2113:
  66:../../libDaisy//src/dev/mpr121.h ****     }
 4834              		.loc 13 66 40 view .LVU1080
 4835 0b40 07AA     		add	r2, sp, #28
 4836 0b42 94F82C10 		ldrb	r1, [r4, #44]	@ zero_extendqisi2
 4837              	.LBE2113:
 4838              	.LBE2112:
 4839              	.LBB2117:
 4840              	.LBB2110:
 4841              		.loc 13 343 55 view .LVU1081
 4842 0b46 4045     		cmp	r0, r8
 4843 0b48 18BF     		it	ne
 4844 0b4a 43F00103 		orrne	r3, r3, #1
 4845              	.LBE2110:
 4846              	.LBE2117:
 4847              	.LBB2118:
 4848              	.LBB2114:
  66:../../libDaisy//src/dev/mpr121.h ****     }
 4849              		.loc 13 66 40 view .LVU1082
 4850 0b4e 0095     		str	r5, [sp]
 4851 0b50 5248     		ldr	r0, .L22
 4852              	.LVL245:
  66:../../libDaisy//src/dev/mpr121.h ****     }
 4853              		.loc 13 66 40 view .LVU1083
 4854              	.LBE2114:
 4855              	.LBE2118:
 4856              	.LBB2119:
 4857              	.LBB2111:
 4858              		.loc 13 343 55 view .LVU1084
ARM GAS  /var/folders/hl/qgbwny5j0fd895c2c41bk3tw0000gp/T//cckqgw4a.s 			page 121


 4859 0b52 84F83030 		strb	r3, [r4, #48]
 4860              	.LVL246:
 4861              		.loc 13 343 55 view .LVU1085
 4862              	.LBE2111:
 4863              	.LBE2119:
 4864              	.LBB2120:
 4865              	.LBI2112:
  63:../../libDaisy//src/dev/mpr121.h ****     {
 4866              		.loc 13 63 10 is_stmt 1 view .LVU1086
 4867              	.LBB2115:
  65:../../libDaisy//src/dev/mpr121.h ****                != i2c_.TransmitBlocking(config_.dev_addr, data, size, 10);
 4868              		.loc 13 65 9 view .LVU1087
 4869              	.LBE2115:
 4870              	.LBE2120:
 281:../../libDaisy//src/dev/mpr121.h ****         buff[1] = value;
 4871              		.loc 13 281 17 is_stmt 0 view .LVU1088
 4872 0b56 3523     		movs	r3, #53
 282:../../libDaisy//src/dev/mpr121.h ****         SetTransportErr(transport_.Write(buff, 2));
 4873              		.loc 13 282 17 view .LVU1089
 4874 0b58 8DF81D80 		strb	r8, [sp, #29]
 281:../../libDaisy//src/dev/mpr121.h ****         buff[1] = value;
 4875              		.loc 13 281 17 view .LVU1090
 4876 0b5c 8DF81C30 		strb	r3, [sp, #28]
 4877              	.LBB2121:
 4878              	.LBB2116:
  66:../../libDaisy//src/dev/mpr121.h ****     }
 4879              		.loc 13 66 40 view .LVU1091
 4880 0b60 0223     		movs	r3, #2
 4881 0b62 FFF7FEFF 		bl	_ZN5daisy9I2CHandle16TransmitBlockingEtPhtm
 4882              	.LVL247:
  66:../../libDaisy//src/dev/mpr121.h ****     }
 4883              		.loc 13 66 40 view .LVU1092
 4884              	.LBE2116:
 4885              	.LBE2121:
 4886              	.LBB2122:
 4887              	.LBI2122:
 4888              		.loc 13 343 10 is_stmt 1 view .LVU1093
 4889              	.LBB2123:
 4890              		.loc 13 343 55 is_stmt 0 view .LVU1094
 4891 0b66 94F83030 		ldrb	r3, [r4, #48]	@ zero_extendqisi2
 4892              	.LBE2123:
 4893              	.LBE2122:
 4894              	.LBB2126:
 4895              	.LBB2127:
  66:../../libDaisy//src/dev/mpr121.h ****     }
 4896              		.loc 13 66 40 view .LVU1095
 4897 0b6a 07AA     		add	r2, sp, #28
 4898 0b6c 94F82C10 		ldrb	r1, [r4, #44]	@ zero_extendqisi2
 4899              	.LBE2127:
 4900              	.LBE2126:
 4901              	.LBB2130:
 4902              	.LBB2124:
 4903              		.loc 13 343 55 view .LVU1096
 4904 0b70 4045     		cmp	r0, r8
 4905 0b72 18BF     		it	ne
 4906 0b74 43F00103 		orrne	r3, r3, #1
 4907              	.LBE2124:
ARM GAS  /var/folders/hl/qgbwny5j0fd895c2c41bk3tw0000gp/T//cckqgw4a.s 			page 122


 4908              	.LBE2130:
 4909              	.LBB2131:
 4910              	.LBB2128:
  66:../../libDaisy//src/dev/mpr121.h ****     }
 4911              		.loc 13 66 40 view .LVU1097
 4912 0b78 0095     		str	r5, [sp]
 4913 0b7a 4848     		ldr	r0, .L22
 4914              	.LVL248:
  66:../../libDaisy//src/dev/mpr121.h ****     }
 4915              		.loc 13 66 40 view .LVU1098
 4916              	.LBE2128:
 4917              	.LBE2131:
 4918              	.LBB2132:
 4919              	.LBB2125:
 4920              		.loc 13 343 55 view .LVU1099
 4921 0b7c 84F83030 		strb	r3, [r4, #48]
 4922              	.LVL249:
 4923              		.loc 13 343 55 view .LVU1100
 4924              	.LBE2125:
 4925              	.LBE2132:
 289:../../libDaisy//src/dev/mpr121.h ****             SetTransportErr(transport_.Write(buff, 2));
 4926              		.loc 13 289 21 view .LVU1101
 4927 0b80 9DF80830 		ldrb	r3, [sp, #8]	@ zero_extendqisi2
 288:../../libDaisy//src/dev/mpr121.h ****             buff[1] = ecr_backup;
 4928              		.loc 13 288 21 view .LVU1102
 4929 0b84 8DF81C60 		strb	r6, [sp, #28]
 289:../../libDaisy//src/dev/mpr121.h ****             SetTransportErr(transport_.Write(buff, 2));
 4930              		.loc 13 289 21 view .LVU1103
 4931 0b88 8DF81D30 		strb	r3, [sp, #29]
 4932              	.LVL250:
 4933              	.LBB2133:
 4934              	.LBI2126:
  63:../../libDaisy//src/dev/mpr121.h ****     {
 4935              		.loc 13 63 10 is_stmt 1 view .LVU1104
 4936              	.LBB2129:
  65:../../libDaisy//src/dev/mpr121.h ****                != i2c_.TransmitBlocking(config_.dev_addr, data, size, 10);
 4937              		.loc 13 65 9 view .LVU1105
  66:../../libDaisy//src/dev/mpr121.h ****     }
 4938              		.loc 13 66 40 is_stmt 0 view .LVU1106
 4939 0b8c 0223     		movs	r3, #2
 4940 0b8e FFF7FEFF 		bl	_ZN5daisy9I2CHandle16TransmitBlockingEtPhtm
 4941              	.LVL251:
  66:../../libDaisy//src/dev/mpr121.h ****     }
 4942              		.loc 13 66 40 view .LVU1107
 4943              	.LBE2129:
 4944              	.LBE2133:
 4945              	.LBB2134:
 4946              	.LBI2134:
 4947              		.loc 13 343 10 is_stmt 1 view .LVU1108
 4948              	.LBB2135:
 4949              		.loc 13 343 55 is_stmt 0 view .LVU1109
 4950 0b92 94F83030 		ldrb	r3, [r4, #48]	@ zero_extendqisi2
 4951              	.LBE2135:
 4952              	.LBE2134:
 4953              	.LBE2141:
 4954              	.LBE2147:
 4955              	.LBB2148:
ARM GAS  /var/folders/hl/qgbwny5j0fd895c2c41bk3tw0000gp/T//cckqgw4a.s 			page 123


 4956              	.LBB2149:
 4957              	.LBB2150:
 4958              	.LBB2151:
  66:../../libDaisy//src/dev/mpr121.h ****     }
 4959              		.loc 13 66 40 view .LVU1110
 4960 0b96 07AA     		add	r2, sp, #28
 4961 0b98 94F82C10 		ldrb	r1, [r4, #44]	@ zero_extendqisi2
 4962              	.LBE2151:
 4963              	.LBE2150:
 4964              	.LBE2149:
 4965              	.LBE2148:
 4966              	.LBB2218:
 4967              	.LBB2142:
 4968              	.LBB2138:
 4969              	.LBB2136:
 4970              		.loc 13 343 55 view .LVU1111
 4971 0b9c 4045     		cmp	r0, r8
 4972 0b9e 18BF     		it	ne
 4973 0ba0 43F00103 		orrne	r3, r3, #1
 4974              	.LBE2136:
 4975              	.LBE2138:
 4976              	.LBE2142:
 4977              	.LBE2218:
 4978              	.LBB2219:
 4979              	.LBB2214:
 4980              	.LBB2155:
 4981              	.LBB2152:
  66:../../libDaisy//src/dev/mpr121.h ****     }
 4982              		.loc 13 66 40 view .LVU1112
 4983 0ba4 0095     		str	r5, [sp]
 4984 0ba6 3D48     		ldr	r0, .L22
 4985              	.LVL252:
  66:../../libDaisy//src/dev/mpr121.h ****     }
 4986              		.loc 13 66 40 view .LVU1113
 4987              	.LBE2152:
 4988              	.LBE2155:
 4989              	.LBE2214:
 4990              	.LBE2219:
 4991              	.LBB2220:
 4992              	.LBB2143:
 4993              	.LBB2139:
 4994              	.LBB2137:
 4995              		.loc 13 343 55 view .LVU1114
 4996 0ba8 84F83030 		strb	r3, [r4, #48]
 4997              	.LVL253:
 4998              		.loc 13 343 55 view .LVU1115
 4999              	.LBE2137:
 5000              	.LBE2139:
 5001              	.LBE2143:
 5002              	.LBE2220:
 5003              	.LBB2221:
 5004              	.LBI2148:
 257:../../libDaisy//src/dev/mpr121.h ****     {
 5005              		.loc 13 257 10 is_stmt 1 view .LVU1116
 5006              	.LBB2215:
 5007              	.LBB2156:
 5008              	.LBI2150:
ARM GAS  /var/folders/hl/qgbwny5j0fd895c2c41bk3tw0000gp/T//cckqgw4a.s 			page 124


  63:../../libDaisy//src/dev/mpr121.h ****     {
 5009              		.loc 13 63 10 view .LVU1117
 5010              	.LBB2153:
  65:../../libDaisy//src/dev/mpr121.h ****                != i2c_.TransmitBlocking(config_.dev_addr, data, size, 10);
 5011              		.loc 13 65 9 view .LVU1118
  66:../../libDaisy//src/dev/mpr121.h ****     }
 5012              		.loc 13 66 40 is_stmt 0 view .LVU1119
 5013 0bac 3B46     		mov	r3, r7
 5014              	.LBE2153:
 5015              	.LBE2156:
 264:../../libDaisy//src/dev/mpr121.h **** 
 5016              		.loc 13 264 17 view .LVU1120
 5017 0bae 8DF81D80 		strb	r8, [sp, #29]
 5018 0bb2 8DF81C60 		strb	r6, [sp, #28]
 5019              	.LBB2157:
 5020              	.LBB2154:
  66:../../libDaisy//src/dev/mpr121.h ****     }
 5021              		.loc 13 66 40 view .LVU1121
 5022 0bb6 FFF7FEFF 		bl	_ZN5daisy9I2CHandle16TransmitBlockingEtPhtm
 5023              	.LVL254:
  66:../../libDaisy//src/dev/mpr121.h ****     }
 5024              		.loc 13 66 40 view .LVU1122
 5025              	.LBE2154:
 5026              	.LBE2157:
 5027              	.LBB2158:
 5028              	.LBI2158:
 5029              		.loc 13 343 10 is_stmt 1 view .LVU1123
 5030              	.LBB2159:
 5031              		.loc 13 343 55 is_stmt 0 view .LVU1124
 5032 0bba 94F83030 		ldrb	r3, [r4, #48]	@ zero_extendqisi2
 5033              	.LBE2159:
 5034              	.LBE2158:
 5035              	.LBB2162:
 5036              	.LBB2163:
  73:../../libDaisy//src/dev/mpr121.h ****     }
 5037              		.loc 13 73 39 view .LVU1125
 5038 0bbe 02AA     		add	r2, sp, #8
 5039 0bc0 94F82C10 		ldrb	r1, [r4, #44]	@ zero_extendqisi2
 5040              	.LBE2163:
 5041              	.LBE2162:
 5042              	.LBB2166:
 5043              	.LBB2160:
 5044              		.loc 13 343 55 view .LVU1126
 5045 0bc4 4045     		cmp	r0, r8
 5046 0bc6 18BF     		it	ne
 5047 0bc8 43F00103 		orrne	r3, r3, #1
 5048              	.LBE2160:
 5049              	.LBE2166:
 5050              	.LBB2167:
 5051              	.LBB2164:
  73:../../libDaisy//src/dev/mpr121.h ****     }
 5052              		.loc 13 73 39 view .LVU1127
 5053 0bcc 0095     		str	r5, [sp]
 5054 0bce 3348     		ldr	r0, .L22
 5055              	.LVL255:
  73:../../libDaisy//src/dev/mpr121.h ****     }
 5056              		.loc 13 73 39 view .LVU1128
ARM GAS  /var/folders/hl/qgbwny5j0fd895c2c41bk3tw0000gp/T//cckqgw4a.s 			page 125


 5057              	.LBE2164:
 5058              	.LBE2167:
 5059              	.LBB2168:
 5060              	.LBB2161:
 5061              		.loc 13 343 55 view .LVU1129
 5062 0bd0 84F83030 		strb	r3, [r4, #48]
 5063              	.LVL256:
 5064              		.loc 13 343 55 view .LVU1130
 5065              	.LBE2161:
 5066              	.LBE2168:
 5067              	.LBB2169:
 5068              	.LBI2162:
  70:../../libDaisy//src/dev/mpr121.h ****     {
 5069              		.loc 13 70 10 is_stmt 1 view .LVU1131
 5070              	.LBB2165:
  72:../../libDaisy//src/dev/mpr121.h ****                != i2c_.ReceiveBlocking(config_.dev_addr, data, size, 10);
 5071              		.loc 13 72 9 view .LVU1132
  73:../../libDaisy//src/dev/mpr121.h ****     }
 5072              		.loc 13 73 39 is_stmt 0 view .LVU1133
 5073 0bd4 3B46     		mov	r3, r7
 5074 0bd6 FFF7FEFF 		bl	_ZN5daisy9I2CHandle15ReceiveBlockingEtPhtm
 5075              	.LVL257:
  73:../../libDaisy//src/dev/mpr121.h ****     }
 5076              		.loc 13 73 39 view .LVU1134
 5077              	.LBE2165:
 5078              	.LBE2169:
 5079              	.LBB2170:
 5080              	.LBI2170:
 5081              		.loc 13 343 10 is_stmt 1 view .LVU1135
 5082              	.LBB2171:
 5083              		.loc 13 343 55 is_stmt 0 view .LVU1136
 5084 0bda 94F83030 		ldrb	r3, [r4, #48]	@ zero_extendqisi2
 5085              	.LBE2171:
 5086              	.LBE2170:
 5087              	.LBB2174:
 5088              	.LBB2175:
  66:../../libDaisy//src/dev/mpr121.h ****     }
 5089              		.loc 13 66 40 view .LVU1137
 5090 0bde 07AA     		add	r2, sp, #28
 5091 0be0 94F82C10 		ldrb	r1, [r4, #44]	@ zero_extendqisi2
 5092              	.LBE2175:
 5093              	.LBE2174:
 5094              	.LBB2178:
 5095              	.LBB2172:
 5096              		.loc 13 343 55 view .LVU1138
 5097 0be4 4045     		cmp	r0, r8
 5098 0be6 18BF     		it	ne
 5099 0be8 43F00103 		orrne	r3, r3, #1
 5100              	.LBE2172:
 5101              	.LBE2178:
 5102              	.LBB2179:
 5103              	.LBB2176:
  66:../../libDaisy//src/dev/mpr121.h ****     }
 5104              		.loc 13 66 40 view .LVU1139
 5105 0bec 0095     		str	r5, [sp]
 5106 0bee 2B48     		ldr	r0, .L22
 5107              	.LVL258:
ARM GAS  /var/folders/hl/qgbwny5j0fd895c2c41bk3tw0000gp/T//cckqgw4a.s 			page 126


  66:../../libDaisy//src/dev/mpr121.h ****     }
 5108              		.loc 13 66 40 view .LVU1140
 5109              	.LBE2176:
 5110              	.LBE2179:
 5111              	.LBB2180:
 5112              	.LBB2173:
 5113              		.loc 13 343 55 view .LVU1141
 5114 0bf0 84F83030 		strb	r3, [r4, #48]
 5115              	.LVL259:
 5116              		.loc 13 343 55 view .LVU1142
 5117              	.LBE2173:
 5118              	.LBE2180:
 5119              	.LBB2181:
 5120              	.LBI2174:
  63:../../libDaisy//src/dev/mpr121.h ****     {
 5121              		.loc 13 63 10 is_stmt 1 view .LVU1143
 5122              	.LBB2177:
  65:../../libDaisy//src/dev/mpr121.h ****                != i2c_.TransmitBlocking(config_.dev_addr, data, size, 10);
 5123              		.loc 13 65 9 view .LVU1144
  66:../../libDaisy//src/dev/mpr121.h ****     }
 5124              		.loc 13 66 40 is_stmt 0 view .LVU1145
 5125 0bf4 0223     		movs	r3, #2
 5126 0bf6 FFF7FEFF 		bl	_ZN5daisy9I2CHandle16TransmitBlockingEtPhtm
 5127              	.LVL260:
  66:../../libDaisy//src/dev/mpr121.h ****     }
 5128              		.loc 13 66 40 view .LVU1146
 5129              	.LBE2177:
 5130              	.LBE2181:
 5131              	.LBB2182:
 5132              	.LBI2182:
 5133              		.loc 13 343 10 is_stmt 1 view .LVU1147
 5134              	.LBB2183:
 5135              		.loc 13 343 55 is_stmt 0 view .LVU1148
 5136 0bfa 94F83030 		ldrb	r3, [r4, #48]	@ zero_extendqisi2
 5137              	.LBE2183:
 5138              	.LBE2182:
 5139              	.LBB2186:
 5140              	.LBB2187:
  66:../../libDaisy//src/dev/mpr121.h ****     }
 5141              		.loc 13 66 40 view .LVU1149
 5142 0bfe 07AA     		add	r2, sp, #28
 5143 0c00 94F82C10 		ldrb	r1, [r4, #44]	@ zero_extendqisi2
 5144              	.LBE2187:
 5145              	.LBE2186:
 5146              	.LBB2191:
 5147              	.LBB2184:
 5148              		.loc 13 343 55 view .LVU1150
 5149 0c04 4045     		cmp	r0, r8
 5150 0c06 18BF     		it	ne
 5151 0c08 43F00103 		orrne	r3, r3, #1
 5152              	.LBE2184:
 5153              	.LBE2191:
 5154              	.LBB2192:
 5155              	.LBB2188:
  66:../../libDaisy//src/dev/mpr121.h ****     }
 5156              		.loc 13 66 40 view .LVU1151
 5157 0c0c 0095     		str	r5, [sp]
ARM GAS  /var/folders/hl/qgbwny5j0fd895c2c41bk3tw0000gp/T//cckqgw4a.s 			page 127


 5158 0c0e 2348     		ldr	r0, .L22
 5159              	.LVL261:
  66:../../libDaisy//src/dev/mpr121.h ****     }
 5160              		.loc 13 66 40 view .LVU1152
 5161              	.LBE2188:
 5162              	.LBE2192:
 5163              	.LBB2193:
 5164              	.LBB2185:
 5165              		.loc 13 343 55 view .LVU1153
 5166 0c10 84F83030 		strb	r3, [r4, #48]
 5167              	.LVL262:
 5168              		.loc 13 343 55 view .LVU1154
 5169              	.LBE2185:
 5170              	.LBE2193:
 5171              	.LBB2194:
 5172              	.LBI2186:
  63:../../libDaisy//src/dev/mpr121.h ****     {
 5173              		.loc 13 63 10 is_stmt 1 view .LVU1155
 5174              	.LBB2189:
  65:../../libDaisy//src/dev/mpr121.h ****                != i2c_.TransmitBlocking(config_.dev_addr, data, size, 10);
 5175              		.loc 13 65 9 view .LVU1156
 5176              	.LBE2189:
 5177              	.LBE2194:
 281:../../libDaisy//src/dev/mpr121.h ****         buff[1] = value;
 5178              		.loc 13 281 17 is_stmt 0 view .LVU1157
 5179 0c14 5B23     		movs	r3, #91
 282:../../libDaisy//src/dev/mpr121.h ****         SetTransportErr(transport_.Write(buff, 2));
 5180              		.loc 13 282 17 view .LVU1158
 5181 0c16 8DF81D80 		strb	r8, [sp, #29]
 281:../../libDaisy//src/dev/mpr121.h ****         buff[1] = value;
 5182              		.loc 13 281 17 view .LVU1159
 5183 0c1a 8DF81C30 		strb	r3, [sp, #28]
 5184              	.LBB2195:
 5185              	.LBB2190:
  66:../../libDaisy//src/dev/mpr121.h ****     }
 5186              		.loc 13 66 40 view .LVU1160
 5187 0c1e 0223     		movs	r3, #2
 5188 0c20 FFF7FEFF 		bl	_ZN5daisy9I2CHandle16TransmitBlockingEtPhtm
 5189              	.LVL263:
  66:../../libDaisy//src/dev/mpr121.h ****     }
 5190              		.loc 13 66 40 view .LVU1161
 5191              	.LBE2190:
 5192              	.LBE2195:
 5193              	.LBB2196:
 5194              	.LBI2196:
 5195              		.loc 13 343 10 is_stmt 1 view .LVU1162
 5196              	.LBB2197:
 5197              		.loc 13 343 55 is_stmt 0 view .LVU1163
 5198 0c24 94F83030 		ldrb	r3, [r4, #48]	@ zero_extendqisi2
 5199              	.LBE2197:
 5200              	.LBE2196:
 5201              	.LBB2200:
 5202              	.LBB2201:
  66:../../libDaisy//src/dev/mpr121.h ****     }
 5203              		.loc 13 66 40 view .LVU1164
 5204 0c28 07AA     		add	r2, sp, #28
 5205 0c2a 94F82C10 		ldrb	r1, [r4, #44]	@ zero_extendqisi2
ARM GAS  /var/folders/hl/qgbwny5j0fd895c2c41bk3tw0000gp/T//cckqgw4a.s 			page 128


 5206              	.LBE2201:
 5207              	.LBE2200:
 5208              	.LBB2204:
 5209              	.LBB2198:
 5210              		.loc 13 343 55 view .LVU1165
 5211 0c2e 4045     		cmp	r0, r8
 5212 0c30 18BF     		it	ne
 5213 0c32 43F00103 		orrne	r3, r3, #1
 5214              	.LBE2198:
 5215              	.LBE2204:
 5216              	.LBB2205:
 5217              	.LBB2202:
  66:../../libDaisy//src/dev/mpr121.h ****     }
 5218              		.loc 13 66 40 view .LVU1166
 5219 0c36 0095     		str	r5, [sp]
 5220 0c38 1848     		ldr	r0, .L22
 5221              	.LVL264:
  66:../../libDaisy//src/dev/mpr121.h ****     }
 5222              		.loc 13 66 40 view .LVU1167
 5223              	.LBE2202:
 5224              	.LBE2205:
 5225              	.LBB2206:
 5226              	.LBB2199:
 5227              		.loc 13 343 55 view .LVU1168
 5228 0c3a 84F83030 		strb	r3, [r4, #48]
 5229              	.LVL265:
 5230              		.loc 13 343 55 view .LVU1169
 5231              	.LBE2199:
 5232              	.LBE2206:
 289:../../libDaisy//src/dev/mpr121.h ****             SetTransportErr(transport_.Write(buff, 2));
 5233              		.loc 13 289 21 view .LVU1170
 5234 0c3e 9DF80830 		ldrb	r3, [sp, #8]	@ zero_extendqisi2
 288:../../libDaisy//src/dev/mpr121.h ****             buff[1] = ecr_backup;
 5235              		.loc 13 288 21 view .LVU1171
 5236 0c42 8DF81C60 		strb	r6, [sp, #28]
 289:../../libDaisy//src/dev/mpr121.h ****             SetTransportErr(transport_.Write(buff, 2));
 5237              		.loc 13 289 21 view .LVU1172
 5238 0c46 8DF81D30 		strb	r3, [sp, #29]
 5239              	.LVL266:
 5240              	.LBB2207:
 5241              	.LBI2200:
  63:../../libDaisy//src/dev/mpr121.h ****     {
 5242              		.loc 13 63 10 is_stmt 1 view .LVU1173
 5243              	.LBB2203:
  65:../../libDaisy//src/dev/mpr121.h ****                != i2c_.TransmitBlocking(config_.dev_addr, data, size, 10);
 5244              		.loc 13 65 9 view .LVU1174
  66:../../libDaisy//src/dev/mpr121.h ****     }
 5245              		.loc 13 66 40 is_stmt 0 view .LVU1175
 5246 0c4a 0223     		movs	r3, #2
 5247 0c4c FFF7FEFF 		bl	_ZN5daisy9I2CHandle16TransmitBlockingEtPhtm
 5248              	.LVL267:
  66:../../libDaisy//src/dev/mpr121.h ****     }
 5249              		.loc 13 66 40 view .LVU1176
 5250              	.LBE2203:
 5251              	.LBE2207:
 5252              	.LBB2208:
 5253              	.LBI2208:
ARM GAS  /var/folders/hl/qgbwny5j0fd895c2c41bk3tw0000gp/T//cckqgw4a.s 			page 129


 5254              		.loc 13 343 10 is_stmt 1 view .LVU1177
 5255              	.LBB2209:
 5256              		.loc 13 343 55 is_stmt 0 view .LVU1178
 5257 0c50 94F83030 		ldrb	r3, [r4, #48]	@ zero_extendqisi2
 5258              	.LBE2209:
 5259              	.LBE2208:
 5260              	.LBE2215:
 5261              	.LBE2221:
 5262              	.LBB2222:
 5263              	.LBB2223:
 5264              	.LBB2224:
 5265              	.LBB2225:
  66:../../libDaisy//src/dev/mpr121.h ****     }
 5266              		.loc 13 66 40 view .LVU1179
 5267 0c54 07AA     		add	r2, sp, #28
 5268 0c56 94F82C10 		ldrb	r1, [r4, #44]	@ zero_extendqisi2
 5269              	.LBE2225:
 5270              	.LBE2224:
 5271              	.LBE2223:
 5272              	.LBE2222:
 5273              	.LBB2290:
 5274              	.LBB2216:
 5275              	.LBB2212:
 5276              	.LBB2210:
 5277              		.loc 13 343 55 view .LVU1180
 5278 0c5a 4045     		cmp	r0, r8
 5279 0c5c 18BF     		it	ne
 5280 0c5e 43F00103 		orrne	r3, r3, #1
 5281              	.LBE2210:
 5282              	.LBE2212:
 5283              	.LBE2216:
 5284              	.LBE2290:
 5285              	.LBB2291:
 5286              	.LBB2286:
 5287              	.LBB2229:
 5288              	.LBB2226:
  66:../../libDaisy//src/dev/mpr121.h ****     }
 5289              		.loc 13 66 40 view .LVU1181
 5290 0c62 0095     		str	r5, [sp]
 5291 0c64 0D48     		ldr	r0, .L22
 5292              	.LVL268:
  66:../../libDaisy//src/dev/mpr121.h ****     }
 5293              		.loc 13 66 40 view .LVU1182
 5294              	.LBE2226:
 5295              	.LBE2229:
 5296              	.LBE2286:
 5297              	.LBE2291:
 5298              	.LBB2292:
 5299              	.LBB2217:
 5300              	.LBB2213:
 5301              	.LBB2211:
 5302              		.loc 13 343 55 view .LVU1183
 5303 0c66 84F83030 		strb	r3, [r4, #48]
 5304              	.LVL269:
 5305              		.loc 13 343 55 view .LVU1184
 5306              	.LBE2211:
 5307              	.LBE2213:
ARM GAS  /var/folders/hl/qgbwny5j0fd895c2c41bk3tw0000gp/T//cckqgw4a.s 			page 130


 5308              	.LBE2217:
 5309              	.LBE2292:
 5310              	.LBB2293:
 5311              	.LBI2222:
 257:../../libDaisy//src/dev/mpr121.h ****     {
 5312              		.loc 13 257 10 is_stmt 1 view .LVU1185
 5313              	.LBB2287:
 5314              	.LBB2230:
 5315              	.LBI2224:
  63:../../libDaisy//src/dev/mpr121.h ****     {
 5316              		.loc 13 63 10 view .LVU1186
 5317              	.LBB2227:
  65:../../libDaisy//src/dev/mpr121.h ****                != i2c_.TransmitBlocking(config_.dev_addr, data, size, 10);
 5318              		.loc 13 65 9 view .LVU1187
  66:../../libDaisy//src/dev/mpr121.h ****     }
 5319              		.loc 13 66 40 is_stmt 0 view .LVU1188
 5320 0c6a 3B46     		mov	r3, r7
 5321              	.LBE2227:
 5322              	.LBE2230:
 264:../../libDaisy//src/dev/mpr121.h **** 
 5323              		.loc 13 264 17 view .LVU1189
 5324 0c6c 8DF81D80 		strb	r8, [sp, #29]
 5325 0c70 8DF81C60 		strb	r6, [sp, #28]
 5326              	.LBB2231:
 5327              	.LBB2228:
  66:../../libDaisy//src/dev/mpr121.h ****     }
 5328              		.loc 13 66 40 view .LVU1190
 5329 0c74 FFF7FEFF 		bl	_ZN5daisy9I2CHandle16TransmitBlockingEtPhtm
 5330              	.LVL270:
  66:../../libDaisy//src/dev/mpr121.h ****     }
 5331              		.loc 13 66 40 view .LVU1191
 5332              	.LBE2228:
 5333              	.LBE2231:
 5334              	.LBB2232:
 5335              	.LBI2232:
 5336              		.loc 13 343 10 is_stmt 1 view .LVU1192
 5337              	.LBB2233:
 5338              		.loc 13 343 55 is_stmt 0 view .LVU1193
 5339 0c78 94F83020 		ldrb	r2, [r4, #48]	@ zero_extendqisi2
 5340              	.LBE2233:
 5341              	.LBE2232:
 5342              	.LBB2236:
 5343              	.LBB2237:
  73:../../libDaisy//src/dev/mpr121.h ****     }
 5344              		.loc 13 73 39 view .LVU1194
 5345 0c7c 3B46     		mov	r3, r7
 5346 0c7e 94F82C10 		ldrb	r1, [r4, #44]	@ zero_extendqisi2
 5347              	.LBE2237:
 5348              	.LBE2236:
 5349              	.LBB2240:
 5350              	.LBB2234:
 5351              		.loc 13 343 55 view .LVU1195
 5352 0c82 4045     		cmp	r0, r8
 5353 0c84 18BF     		it	ne
 5354 0c86 42F00102 		orrne	r2, r2, #1
 5355              	.LBE2234:
 5356              	.LBE2240:
ARM GAS  /var/folders/hl/qgbwny5j0fd895c2c41bk3tw0000gp/T//cckqgw4a.s 			page 131


 5357              	.LBB2241:
 5358              	.LBB2238:
  73:../../libDaisy//src/dev/mpr121.h ****     }
 5359              		.loc 13 73 39 view .LVU1196
 5360 0c8a 0095     		str	r5, [sp]
 5361 0c8c 0348     		ldr	r0, .L22
 5362              	.LVL271:
  73:../../libDaisy//src/dev/mpr121.h ****     }
 5363              		.loc 13 73 39 view .LVU1197
 5364              	.LBE2238:
 5365              	.LBE2241:
 5366              	.LBB2242:
 5367              	.LBB2235:
 5368              		.loc 13 343 55 view .LVU1198
 5369 0c8e 84F83020 		strb	r2, [r4, #48]
 5370              	.LVL272:
 5371              		.loc 13 343 55 view .LVU1199
 5372              	.LBE2235:
 5373              	.LBE2242:
 5374              	.LBB2243:
 5375              	.LBI2236:
  70:../../libDaisy//src/dev/mpr121.h ****     {
 5376              		.loc 13 70 10 is_stmt 1 view .LVU1200
 5377              	.LBB2239:
  72:../../libDaisy//src/dev/mpr121.h ****                != i2c_.ReceiveBlocking(config_.dev_addr, data, size, 10);
 5378              		.loc 13 72 9 view .LVU1201
  73:../../libDaisy//src/dev/mpr121.h ****     }
 5379              		.loc 13 73 39 is_stmt 0 view .LVU1202
 5380 0c92 02AA     		add	r2, sp, #8
 5381              	.LVL273:
  73:../../libDaisy//src/dev/mpr121.h ****     }
 5382              		.loc 13 73 39 view .LVU1203
 5383 0c94 FFF7FEFF 		bl	_ZN5daisy9I2CHandle15ReceiveBlockingEtPhtm
 5384              	.LVL274:
 5385 0c98 02E0     		b	.L23
 5386              	.L24:
 5387 0c9a 00BF     		.align	2
 5388              	.L22:
 5389 0c9c 18000000 		.word	.LANCHOR0+24
 5390              	.L23:
 5391              	.LVL275:
  73:../../libDaisy//src/dev/mpr121.h ****     }
 5392              		.loc 13 73 39 view .LVU1204
 5393              	.LBE2239:
 5394              	.LBE2243:
 5395              	.LBB2244:
 5396              	.LBI2244:
 5397              		.loc 13 343 10 is_stmt 1 view .LVU1205
 5398              	.LBB2245:
 5399              		.loc 13 343 55 is_stmt 0 view .LVU1206
 5400 0ca0 94F83030 		ldrb	r3, [r4, #48]	@ zero_extendqisi2
 5401              	.LBE2245:
 5402              	.LBE2244:
 5403              	.LBB2248:
 5404              	.LBB2249:
  66:../../libDaisy//src/dev/mpr121.h ****     }
 5405              		.loc 13 66 40 view .LVU1207
ARM GAS  /var/folders/hl/qgbwny5j0fd895c2c41bk3tw0000gp/T//cckqgw4a.s 			page 132


 5406 0ca4 07AA     		add	r2, sp, #28
 5407 0ca6 94F82C10 		ldrb	r1, [r4, #44]	@ zero_extendqisi2
 5408              	.LBE2249:
 5409              	.LBE2248:
 5410              	.LBB2252:
 5411              	.LBB2246:
 5412              		.loc 13 343 55 view .LVU1208
 5413 0caa 4045     		cmp	r0, r8
 5414 0cac 18BF     		it	ne
 5415 0cae 43F00103 		orrne	r3, r3, #1
 5416              	.LBE2246:
 5417              	.LBE2252:
 5418              	.LBB2253:
 5419              	.LBB2250:
  66:../../libDaisy//src/dev/mpr121.h ****     }
 5420              		.loc 13 66 40 view .LVU1209
 5421 0cb2 0095     		str	r5, [sp]
 5422 0cb4 6748     		ldr	r0, .L25
 5423              	.LVL276:
  66:../../libDaisy//src/dev/mpr121.h ****     }
 5424              		.loc 13 66 40 view .LVU1210
 5425              	.LBE2250:
 5426              	.LBE2253:
 5427              	.LBB2254:
 5428              	.LBB2247:
 5429              		.loc 13 343 55 view .LVU1211
 5430 0cb6 84F83030 		strb	r3, [r4, #48]
 5431              	.LVL277:
 5432              		.loc 13 343 55 view .LVU1212
 5433              	.LBE2247:
 5434              	.LBE2254:
 5435              	.LBB2255:
 5436              	.LBI2248:
  63:../../libDaisy//src/dev/mpr121.h ****     {
 5437              		.loc 13 63 10 is_stmt 1 view .LVU1213
 5438              	.LBB2251:
  65:../../libDaisy//src/dev/mpr121.h ****                != i2c_.TransmitBlocking(config_.dev_addr, data, size, 10);
 5439              		.loc 13 65 9 view .LVU1214
  66:../../libDaisy//src/dev/mpr121.h ****     }
 5440              		.loc 13 66 40 is_stmt 0 view .LVU1215
 5441 0cba 0223     		movs	r3, #2
 5442 0cbc FFF7FEFF 		bl	_ZN5daisy9I2CHandle16TransmitBlockingEtPhtm
 5443              	.LVL278:
  66:../../libDaisy//src/dev/mpr121.h ****     }
 5444              		.loc 13 66 40 view .LVU1216
 5445              	.LBE2251:
 5446              	.LBE2255:
 5447              	.LBB2256:
 5448              	.LBI2256:
 5449              		.loc 13 343 10 is_stmt 1 view .LVU1217
 5450              	.LBB2257:
 5451              		.loc 13 343 55 is_stmt 0 view .LVU1218
 5452 0cc0 94F83030 		ldrb	r3, [r4, #48]	@ zero_extendqisi2
 5453              	.LBE2257:
 5454              	.LBE2256:
 5455              	.LBB2260:
 5456              	.LBB2261:
ARM GAS  /var/folders/hl/qgbwny5j0fd895c2c41bk3tw0000gp/T//cckqgw4a.s 			page 133


  66:../../libDaisy//src/dev/mpr121.h ****     }
 5457              		.loc 13 66 40 view .LVU1219
 5458 0cc4 07AA     		add	r2, sp, #28
 5459 0cc6 94F82C10 		ldrb	r1, [r4, #44]	@ zero_extendqisi2
 5460              	.LBE2261:
 5461              	.LBE2260:
 5462              	.LBB2264:
 5463              	.LBB2258:
 5464              		.loc 13 343 55 view .LVU1220
 5465 0cca 4045     		cmp	r0, r8
 5466 0ccc 18BF     		it	ne
 5467 0cce 43F00103 		orrne	r3, r3, #1
 5468              	.LBE2258:
 5469              	.LBE2264:
 5470              	.LBB2265:
 5471              	.LBB2262:
  66:../../libDaisy//src/dev/mpr121.h ****     }
 5472              		.loc 13 66 40 view .LVU1221
 5473 0cd2 0095     		str	r5, [sp]
 5474 0cd4 5F48     		ldr	r0, .L25
 5475              	.LVL279:
  66:../../libDaisy//src/dev/mpr121.h ****     }
 5476              		.loc 13 66 40 view .LVU1222
 5477              	.LBE2262:
 5478              	.LBE2265:
 5479              	.LBB2266:
 5480              	.LBB2259:
 5481              		.loc 13 343 55 view .LVU1223
 5482 0cd6 84F83030 		strb	r3, [r4, #48]
 5483              	.LVL280:
 5484              		.loc 13 343 55 view .LVU1224
 5485              	.LBE2259:
 5486              	.LBE2266:
 281:../../libDaisy//src/dev/mpr121.h ****         buff[1] = value;
 5487              		.loc 13 281 17 view .LVU1225
 5488 0cda 5C23     		movs	r3, #92
 5489 0cdc 8DF81C30 		strb	r3, [sp, #28]
 282:../../libDaisy//src/dev/mpr121.h ****         SetTransportErr(transport_.Write(buff, 2));
 5490              		.loc 13 282 17 view .LVU1226
 5491 0ce0 1023     		movs	r3, #16
 5492 0ce2 8DF81D30 		strb	r3, [sp, #29]
 5493              	.LVL281:
 5494              	.LBB2267:
 5495              	.LBI2260:
  63:../../libDaisy//src/dev/mpr121.h ****     {
 5496              		.loc 13 63 10 is_stmt 1 view .LVU1227
 5497              	.LBB2263:
  65:../../libDaisy//src/dev/mpr121.h ****                != i2c_.TransmitBlocking(config_.dev_addr, data, size, 10);
 5498              		.loc 13 65 9 view .LVU1228
  66:../../libDaisy//src/dev/mpr121.h ****     }
 5499              		.loc 13 66 40 is_stmt 0 view .LVU1229
 5500 0ce6 0223     		movs	r3, #2
 5501 0ce8 FFF7FEFF 		bl	_ZN5daisy9I2CHandle16TransmitBlockingEtPhtm
 5502              	.LVL282:
  66:../../libDaisy//src/dev/mpr121.h ****     }
 5503              		.loc 13 66 40 view .LVU1230
 5504              	.LBE2263:
ARM GAS  /var/folders/hl/qgbwny5j0fd895c2c41bk3tw0000gp/T//cckqgw4a.s 			page 134


 5505              	.LBE2267:
 5506              	.LBB2268:
 5507              	.LBI2268:
 5508              		.loc 13 343 10 is_stmt 1 view .LVU1231
 5509              	.LBB2269:
 5510              		.loc 13 343 55 is_stmt 0 view .LVU1232
 5511 0cec 94F83030 		ldrb	r3, [r4, #48]	@ zero_extendqisi2
 5512              	.LBE2269:
 5513              	.LBE2268:
 5514              	.LBB2272:
 5515              	.LBB2273:
  66:../../libDaisy//src/dev/mpr121.h ****     }
 5516              		.loc 13 66 40 view .LVU1233
 5517 0cf0 07AA     		add	r2, sp, #28
 5518 0cf2 94F82C10 		ldrb	r1, [r4, #44]	@ zero_extendqisi2
 5519              	.LBE2273:
 5520              	.LBE2272:
 5521              	.LBB2276:
 5522              	.LBB2270:
 5523              		.loc 13 343 55 view .LVU1234
 5524 0cf6 4045     		cmp	r0, r8
 5525 0cf8 18BF     		it	ne
 5526 0cfa 43F00103 		orrne	r3, r3, #1
 5527              	.LBE2270:
 5528              	.LBE2276:
 5529              	.LBB2277:
 5530              	.LBB2274:
  66:../../libDaisy//src/dev/mpr121.h ****     }
 5531              		.loc 13 66 40 view .LVU1235
 5532 0cfe 0095     		str	r5, [sp]
 5533 0d00 5448     		ldr	r0, .L25
 5534              	.LVL283:
  66:../../libDaisy//src/dev/mpr121.h ****     }
 5535              		.loc 13 66 40 view .LVU1236
 5536              	.LBE2274:
 5537              	.LBE2277:
 5538              	.LBB2278:
 5539              	.LBB2271:
 5540              		.loc 13 343 55 view .LVU1237
 5541 0d02 84F83030 		strb	r3, [r4, #48]
 5542              	.LVL284:
 5543              		.loc 13 343 55 view .LVU1238
 5544              	.LBE2271:
 5545              	.LBE2278:
 289:../../libDaisy//src/dev/mpr121.h ****             SetTransportErr(transport_.Write(buff, 2));
 5546              		.loc 13 289 21 view .LVU1239
 5547 0d06 9DF80830 		ldrb	r3, [sp, #8]	@ zero_extendqisi2
 288:../../libDaisy//src/dev/mpr121.h ****             buff[1] = ecr_backup;
 5548              		.loc 13 288 21 view .LVU1240
 5549 0d0a 8DF81C60 		strb	r6, [sp, #28]
 289:../../libDaisy//src/dev/mpr121.h ****             SetTransportErr(transport_.Write(buff, 2));
 5550              		.loc 13 289 21 view .LVU1241
 5551 0d0e 8DF81D30 		strb	r3, [sp, #29]
 5552              	.LVL285:
 5553              	.LBB2279:
 5554              	.LBI2272:
  63:../../libDaisy//src/dev/mpr121.h ****     {
ARM GAS  /var/folders/hl/qgbwny5j0fd895c2c41bk3tw0000gp/T//cckqgw4a.s 			page 135


 5555              		.loc 13 63 10 is_stmt 1 view .LVU1242
 5556              	.LBB2275:
  65:../../libDaisy//src/dev/mpr121.h ****                != i2c_.TransmitBlocking(config_.dev_addr, data, size, 10);
 5557              		.loc 13 65 9 view .LVU1243
  66:../../libDaisy//src/dev/mpr121.h ****     }
 5558              		.loc 13 66 40 is_stmt 0 view .LVU1244
 5559 0d12 0223     		movs	r3, #2
 5560 0d14 FFF7FEFF 		bl	_ZN5daisy9I2CHandle16TransmitBlockingEtPhtm
 5561              	.LVL286:
  66:../../libDaisy//src/dev/mpr121.h ****     }
 5562              		.loc 13 66 40 view .LVU1245
 5563              	.LBE2275:
 5564              	.LBE2279:
 5565              	.LBB2280:
 5566              	.LBI2280:
 5567              		.loc 13 343 10 is_stmt 1 view .LVU1246
 5568              	.LBB2281:
 5569              		.loc 13 343 55 is_stmt 0 view .LVU1247
 5570 0d18 94F83030 		ldrb	r3, [r4, #48]	@ zero_extendqisi2
 5571              	.LBE2281:
 5572              	.LBE2280:
 5573              	.LBE2287:
 5574              	.LBE2293:
 5575              	.LBB2294:
 5576              	.LBB2295:
 5577              	.LBB2296:
 5578              	.LBB2297:
  66:../../libDaisy//src/dev/mpr121.h ****     }
 5579              		.loc 13 66 40 view .LVU1248
 5580 0d1c 07AA     		add	r2, sp, #28
 5581 0d1e 94F82C10 		ldrb	r1, [r4, #44]	@ zero_extendqisi2
 5582              	.LBE2297:
 5583              	.LBE2296:
 5584              	.LBE2295:
 5585              	.LBE2294:
 5586              	.LBB2362:
 5587              	.LBB2288:
 5588              	.LBB2284:
 5589              	.LBB2282:
 5590              		.loc 13 343 55 view .LVU1249
 5591 0d22 4045     		cmp	r0, r8
 5592 0d24 18BF     		it	ne
 5593 0d26 43F00103 		orrne	r3, r3, #1
 5594              	.LBE2282:
 5595              	.LBE2284:
 5596              	.LBE2288:
 5597              	.LBE2362:
 5598              	.LBB2363:
 5599              	.LBB2358:
 5600              	.LBB2301:
 5601              	.LBB2298:
  66:../../libDaisy//src/dev/mpr121.h ****     }
 5602              		.loc 13 66 40 view .LVU1250
 5603 0d2a 0095     		str	r5, [sp]
 5604 0d2c 4948     		ldr	r0, .L25
 5605              	.LVL287:
  66:../../libDaisy//src/dev/mpr121.h ****     }
ARM GAS  /var/folders/hl/qgbwny5j0fd895c2c41bk3tw0000gp/T//cckqgw4a.s 			page 136


 5606              		.loc 13 66 40 view .LVU1251
 5607              	.LBE2298:
 5608              	.LBE2301:
 5609              	.LBE2358:
 5610              	.LBE2363:
 5611              	.LBB2364:
 5612              	.LBB2289:
 5613              	.LBB2285:
 5614              	.LBB2283:
 5615              		.loc 13 343 55 view .LVU1252
 5616 0d2e 84F83030 		strb	r3, [r4, #48]
 5617              	.LVL288:
 5618              		.loc 13 343 55 view .LVU1253
 5619              	.LBE2283:
 5620              	.LBE2285:
 5621              	.LBE2289:
 5622              	.LBE2364:
 5623              	.LBB2365:
 5624              	.LBI2294:
 257:../../libDaisy//src/dev/mpr121.h ****     {
 5625              		.loc 13 257 10 is_stmt 1 view .LVU1254
 5626              	.LBB2359:
 5627              	.LBB2302:
 5628              	.LBI2296:
  63:../../libDaisy//src/dev/mpr121.h ****     {
 5629              		.loc 13 63 10 view .LVU1255
 5630              	.LBB2299:
  65:../../libDaisy//src/dev/mpr121.h ****                != i2c_.TransmitBlocking(config_.dev_addr, data, size, 10);
 5631              		.loc 13 65 9 view .LVU1256
  66:../../libDaisy//src/dev/mpr121.h ****     }
 5632              		.loc 13 66 40 is_stmt 0 view .LVU1257
 5633 0d32 3B46     		mov	r3, r7
 5634              	.LBE2299:
 5635              	.LBE2302:
 264:../../libDaisy//src/dev/mpr121.h **** 
 5636              		.loc 13 264 17 view .LVU1258
 5637 0d34 8DF81D80 		strb	r8, [sp, #29]
 5638 0d38 8DF81C60 		strb	r6, [sp, #28]
 5639              	.LBB2303:
 5640              	.LBB2300:
  66:../../libDaisy//src/dev/mpr121.h ****     }
 5641              		.loc 13 66 40 view .LVU1259
 5642 0d3c FFF7FEFF 		bl	_ZN5daisy9I2CHandle16TransmitBlockingEtPhtm
 5643              	.LVL289:
  66:../../libDaisy//src/dev/mpr121.h ****     }
 5644              		.loc 13 66 40 view .LVU1260
 5645              	.LBE2300:
 5646              	.LBE2303:
 5647              	.LBB2304:
 5648              	.LBI2304:
 5649              		.loc 13 343 10 is_stmt 1 view .LVU1261
 5650              	.LBB2305:
 5651              		.loc 13 343 55 is_stmt 0 view .LVU1262
 5652 0d40 94F83030 		ldrb	r3, [r4, #48]	@ zero_extendqisi2
 5653              	.LBE2305:
 5654              	.LBE2304:
 5655              	.LBB2308:
ARM GAS  /var/folders/hl/qgbwny5j0fd895c2c41bk3tw0000gp/T//cckqgw4a.s 			page 137


 5656              	.LBB2309:
  73:../../libDaisy//src/dev/mpr121.h ****     }
 5657              		.loc 13 73 39 view .LVU1263
 5658 0d44 02AA     		add	r2, sp, #8
 5659 0d46 94F82C10 		ldrb	r1, [r4, #44]	@ zero_extendqisi2
 5660              	.LBE2309:
 5661              	.LBE2308:
 5662              	.LBB2312:
 5663              	.LBB2306:
 5664              		.loc 13 343 55 view .LVU1264
 5665 0d4a 4045     		cmp	r0, r8
 5666 0d4c 18BF     		it	ne
 5667 0d4e 43F00103 		orrne	r3, r3, #1
 5668              	.LBE2306:
 5669              	.LBE2312:
 5670              	.LBB2313:
 5671              	.LBB2310:
  73:../../libDaisy//src/dev/mpr121.h ****     }
 5672              		.loc 13 73 39 view .LVU1265
 5673 0d52 0095     		str	r5, [sp]
 5674 0d54 3F48     		ldr	r0, .L25
 5675              	.LVL290:
  73:../../libDaisy//src/dev/mpr121.h ****     }
 5676              		.loc 13 73 39 view .LVU1266
 5677              	.LBE2310:
 5678              	.LBE2313:
 5679              	.LBB2314:
 5680              	.LBB2307:
 5681              		.loc 13 343 55 view .LVU1267
 5682 0d56 84F83030 		strb	r3, [r4, #48]
 5683              	.LVL291:
 5684              		.loc 13 343 55 view .LVU1268
 5685              	.LBE2307:
 5686              	.LBE2314:
 5687              	.LBB2315:
 5688              	.LBI2308:
  70:../../libDaisy//src/dev/mpr121.h ****     {
 5689              		.loc 13 70 10 is_stmt 1 view .LVU1269
 5690              	.LBB2311:
  72:../../libDaisy//src/dev/mpr121.h ****                != i2c_.ReceiveBlocking(config_.dev_addr, data, size, 10);
 5691              		.loc 13 72 9 view .LVU1270
  73:../../libDaisy//src/dev/mpr121.h ****     }
 5692              		.loc 13 73 39 is_stmt 0 view .LVU1271
 5693 0d5a 3B46     		mov	r3, r7
 5694 0d5c FFF7FEFF 		bl	_ZN5daisy9I2CHandle15ReceiveBlockingEtPhtm
 5695              	.LVL292:
  73:../../libDaisy//src/dev/mpr121.h ****     }
 5696              		.loc 13 73 39 view .LVU1272
 5697              	.LBE2311:
 5698              	.LBE2315:
 5699              	.LBB2316:
 5700              	.LBI2316:
 5701              		.loc 13 343 10 is_stmt 1 view .LVU1273
 5702              	.LBB2317:
 5703              		.loc 13 343 55 is_stmt 0 view .LVU1274
 5704 0d60 94F83030 		ldrb	r3, [r4, #48]	@ zero_extendqisi2
 5705              	.LBE2317:
ARM GAS  /var/folders/hl/qgbwny5j0fd895c2c41bk3tw0000gp/T//cckqgw4a.s 			page 138


 5706              	.LBE2316:
 5707              	.LBB2320:
 5708              	.LBB2321:
  66:../../libDaisy//src/dev/mpr121.h ****     }
 5709              		.loc 13 66 40 view .LVU1275
 5710 0d64 07AA     		add	r2, sp, #28
 5711 0d66 94F82C10 		ldrb	r1, [r4, #44]	@ zero_extendqisi2
 5712              	.LBE2321:
 5713              	.LBE2320:
 5714              	.LBB2324:
 5715              	.LBB2318:
 5716              		.loc 13 343 55 view .LVU1276
 5717 0d6a 4045     		cmp	r0, r8
 5718 0d6c 18BF     		it	ne
 5719 0d6e 43F00103 		orrne	r3, r3, #1
 5720              	.LBE2318:
 5721              	.LBE2324:
 5722              	.LBB2325:
 5723              	.LBB2322:
  66:../../libDaisy//src/dev/mpr121.h ****     }
 5724              		.loc 13 66 40 view .LVU1277
 5725 0d72 0095     		str	r5, [sp]
 5726 0d74 3748     		ldr	r0, .L25
 5727              	.LVL293:
  66:../../libDaisy//src/dev/mpr121.h ****     }
 5728              		.loc 13 66 40 view .LVU1278
 5729              	.LBE2322:
 5730              	.LBE2325:
 5731              	.LBB2326:
 5732              	.LBB2319:
 5733              		.loc 13 343 55 view .LVU1279
 5734 0d76 84F83030 		strb	r3, [r4, #48]
 5735              	.LVL294:
 5736              		.loc 13 343 55 view .LVU1280
 5737              	.LBE2319:
 5738              	.LBE2326:
 5739              	.LBB2327:
 5740              	.LBI2320:
  63:../../libDaisy//src/dev/mpr121.h ****     {
 5741              		.loc 13 63 10 is_stmt 1 view .LVU1281
 5742              	.LBB2323:
  65:../../libDaisy//src/dev/mpr121.h ****                != i2c_.TransmitBlocking(config_.dev_addr, data, size, 10);
 5743              		.loc 13 65 9 view .LVU1282
  66:../../libDaisy//src/dev/mpr121.h ****     }
 5744              		.loc 13 66 40 is_stmt 0 view .LVU1283
 5745 0d7a 0223     		movs	r3, #2
 5746 0d7c FFF7FEFF 		bl	_ZN5daisy9I2CHandle16TransmitBlockingEtPhtm
 5747              	.LVL295:
  66:../../libDaisy//src/dev/mpr121.h ****     }
 5748              		.loc 13 66 40 view .LVU1284
 5749              	.LBE2323:
 5750              	.LBE2327:
 5751              	.LBB2328:
 5752              	.LBI2328:
 5753              		.loc 13 343 10 is_stmt 1 view .LVU1285
 5754              	.LBB2329:
 5755              		.loc 13 343 55 is_stmt 0 view .LVU1286
ARM GAS  /var/folders/hl/qgbwny5j0fd895c2c41bk3tw0000gp/T//cckqgw4a.s 			page 139


 5756 0d80 94F83030 		ldrb	r3, [r4, #48]	@ zero_extendqisi2
 5757              	.LBE2329:
 5758              	.LBE2328:
 5759              	.LBB2332:
 5760              	.LBB2333:
  66:../../libDaisy//src/dev/mpr121.h ****     }
 5761              		.loc 13 66 40 view .LVU1287
 5762 0d84 07AA     		add	r2, sp, #28
 5763 0d86 94F82C10 		ldrb	r1, [r4, #44]	@ zero_extendqisi2
 5764              	.LBE2333:
 5765              	.LBE2332:
 5766              	.LBB2336:
 5767              	.LBB2330:
 5768              		.loc 13 343 55 view .LVU1288
 5769 0d8a 4045     		cmp	r0, r8
 5770 0d8c 18BF     		it	ne
 5771 0d8e 43F00103 		orrne	r3, r3, #1
 5772              	.LBE2330:
 5773              	.LBE2336:
 5774              	.LBB2337:
 5775              	.LBB2334:
  66:../../libDaisy//src/dev/mpr121.h ****     }
 5776              		.loc 13 66 40 view .LVU1289
 5777 0d92 0095     		str	r5, [sp]
 5778 0d94 2F48     		ldr	r0, .L25
 5779              	.LVL296:
  66:../../libDaisy//src/dev/mpr121.h ****     }
 5780              		.loc 13 66 40 view .LVU1290
 5781              	.LBE2334:
 5782              	.LBE2337:
 5783              	.LBB2338:
 5784              	.LBB2331:
 5785              		.loc 13 343 55 view .LVU1291
 5786 0d96 84F83030 		strb	r3, [r4, #48]
 5787              	.LVL297:
 5788              		.loc 13 343 55 view .LVU1292
 5789              	.LBE2331:
 5790              	.LBE2338:
 281:../../libDaisy//src/dev/mpr121.h ****         buff[1] = value;
 5791              		.loc 13 281 17 view .LVU1293
 5792 0d9a 5D23     		movs	r3, #93
 5793 0d9c 8DF81C30 		strb	r3, [sp, #28]
 282:../../libDaisy//src/dev/mpr121.h ****         SetTransportErr(transport_.Write(buff, 2));
 5794              		.loc 13 282 17 view .LVU1294
 5795 0da0 2023     		movs	r3, #32
 5796 0da2 8DF81D30 		strb	r3, [sp, #29]
 5797              	.LVL298:
 5798              	.LBB2339:
 5799              	.LBI2332:
  63:../../libDaisy//src/dev/mpr121.h ****     {
 5800              		.loc 13 63 10 is_stmt 1 view .LVU1295
 5801              	.LBB2335:
  65:../../libDaisy//src/dev/mpr121.h ****                != i2c_.TransmitBlocking(config_.dev_addr, data, size, 10);
 5802              		.loc 13 65 9 view .LVU1296
  66:../../libDaisy//src/dev/mpr121.h ****     }
 5803              		.loc 13 66 40 is_stmt 0 view .LVU1297
 5804 0da6 0223     		movs	r3, #2
ARM GAS  /var/folders/hl/qgbwny5j0fd895c2c41bk3tw0000gp/T//cckqgw4a.s 			page 140


 5805 0da8 FFF7FEFF 		bl	_ZN5daisy9I2CHandle16TransmitBlockingEtPhtm
 5806              	.LVL299:
  66:../../libDaisy//src/dev/mpr121.h ****     }
 5807              		.loc 13 66 40 view .LVU1298
 5808              	.LBE2335:
 5809              	.LBE2339:
 5810              	.LBB2340:
 5811              	.LBI2340:
 5812              		.loc 13 343 10 is_stmt 1 view .LVU1299
 5813              	.LBB2341:
 5814              		.loc 13 343 55 is_stmt 0 view .LVU1300
 5815 0dac 94F83030 		ldrb	r3, [r4, #48]	@ zero_extendqisi2
 5816              	.LBE2341:
 5817              	.LBE2340:
 5818              	.LBB2344:
 5819              	.LBB2345:
  66:../../libDaisy//src/dev/mpr121.h ****     }
 5820              		.loc 13 66 40 view .LVU1301
 5821 0db0 07AA     		add	r2, sp, #28
 5822 0db2 94F82C10 		ldrb	r1, [r4, #44]	@ zero_extendqisi2
 5823              	.LBE2345:
 5824              	.LBE2344:
 5825              	.LBB2348:
 5826              	.LBB2342:
 5827              		.loc 13 343 55 view .LVU1302
 5828 0db6 4045     		cmp	r0, r8
 5829 0db8 18BF     		it	ne
 5830 0dba 43F00103 		orrne	r3, r3, #1
 5831              	.LBE2342:
 5832              	.LBE2348:
 5833              	.LBB2349:
 5834              	.LBB2346:
  66:../../libDaisy//src/dev/mpr121.h ****     }
 5835              		.loc 13 66 40 view .LVU1303
 5836 0dbe 0095     		str	r5, [sp]
 5837 0dc0 2448     		ldr	r0, .L25
 5838              	.LVL300:
  66:../../libDaisy//src/dev/mpr121.h ****     }
 5839              		.loc 13 66 40 view .LVU1304
 5840              	.LBE2346:
 5841              	.LBE2349:
 5842              	.LBB2350:
 5843              	.LBB2343:
 5844              		.loc 13 343 55 view .LVU1305
 5845 0dc2 84F83030 		strb	r3, [r4, #48]
 5846              	.LVL301:
 5847              		.loc 13 343 55 view .LVU1306
 5848              	.LBE2343:
 5849              	.LBE2350:
 289:../../libDaisy//src/dev/mpr121.h ****             SetTransportErr(transport_.Write(buff, 2));
 5850              		.loc 13 289 21 view .LVU1307
 5851 0dc6 9DF80830 		ldrb	r3, [sp, #8]	@ zero_extendqisi2
 288:../../libDaisy//src/dev/mpr121.h ****             buff[1] = ecr_backup;
 5852              		.loc 13 288 21 view .LVU1308
 5853 0dca 8DF81C60 		strb	r6, [sp, #28]
 289:../../libDaisy//src/dev/mpr121.h ****             SetTransportErr(transport_.Write(buff, 2));
 5854              		.loc 13 289 21 view .LVU1309
ARM GAS  /var/folders/hl/qgbwny5j0fd895c2c41bk3tw0000gp/T//cckqgw4a.s 			page 141


 5855 0dce 8DF81D30 		strb	r3, [sp, #29]
 5856              	.LVL302:
 5857              	.LBB2351:
 5858              	.LBI2344:
  63:../../libDaisy//src/dev/mpr121.h ****     {
 5859              		.loc 13 63 10 is_stmt 1 view .LVU1310
 5860              	.LBB2347:
  65:../../libDaisy//src/dev/mpr121.h ****                != i2c_.TransmitBlocking(config_.dev_addr, data, size, 10);
 5861              		.loc 13 65 9 view .LVU1311
  66:../../libDaisy//src/dev/mpr121.h ****     }
 5862              		.loc 13 66 40 is_stmt 0 view .LVU1312
 5863 0dd2 0223     		movs	r3, #2
 5864 0dd4 FFF7FEFF 		bl	_ZN5daisy9I2CHandle16TransmitBlockingEtPhtm
 5865              	.LVL303:
  66:../../libDaisy//src/dev/mpr121.h ****     }
 5866              		.loc 13 66 40 view .LVU1313
 5867              	.LBE2347:
 5868              	.LBE2351:
 5869              	.LBB2352:
 5870              	.LBI2352:
 5871              		.loc 13 343 10 is_stmt 1 view .LVU1314
 5872              	.LBB2353:
 5873              		.loc 13 343 55 is_stmt 0 view .LVU1315
 5874 0dd8 94F83030 		ldrb	r3, [r4, #48]	@ zero_extendqisi2
 5875              	.LBE2353:
 5876              	.LBE2352:
 5877              	.LBE2359:
 5878              	.LBE2365:
 5879              	.LBB2366:
 5880              	.LBB2367:
 5881              	.LBB2368:
 5882              	.LBB2369:
  66:../../libDaisy//src/dev/mpr121.h ****     }
 5883              		.loc 13 66 40 view .LVU1316
 5884 0ddc 07AA     		add	r2, sp, #28
 5885 0dde 94F82C10 		ldrb	r1, [r4, #44]	@ zero_extendqisi2
 5886              	.LBE2369:
 5887              	.LBE2368:
 5888              	.LBE2367:
 5889              	.LBE2366:
 5890              	.LBB2406:
 5891              	.LBB2360:
 5892              	.LBB2356:
 5893              	.LBB2354:
 5894              		.loc 13 343 55 view .LVU1317
 5895 0de2 4045     		cmp	r0, r8
 5896 0de4 18BF     		it	ne
 5897 0de6 43F00103 		orrne	r3, r3, #1
 5898              	.LBE2354:
 5899              	.LBE2356:
 5900              	.LBE2360:
 5901              	.LBE2406:
 5902              	.LBB2407:
 5903              	.LBB2404:
 5904              	.LBB2373:
 5905              	.LBB2370:
  66:../../libDaisy//src/dev/mpr121.h ****     }
ARM GAS  /var/folders/hl/qgbwny5j0fd895c2c41bk3tw0000gp/T//cckqgw4a.s 			page 142


 5906              		.loc 13 66 40 view .LVU1318
 5907 0dea 0095     		str	r5, [sp]
 5908 0dec 1948     		ldr	r0, .L25
 5909              	.LVL304:
  66:../../libDaisy//src/dev/mpr121.h ****     }
 5910              		.loc 13 66 40 view .LVU1319
 5911              	.LBE2370:
 5912              	.LBE2373:
 5913              	.LBE2404:
 5914              	.LBE2407:
 5915              	.LBB2408:
 5916              	.LBB2361:
 5917              	.LBB2357:
 5918              	.LBB2355:
 5919              		.loc 13 343 55 view .LVU1320
 5920 0dee 84F83030 		strb	r3, [r4, #48]
 5921              	.LVL305:
 5922              		.loc 13 343 55 view .LVU1321
 5923              	.LBE2355:
 5924              	.LBE2357:
 5925              	.LBE2361:
 5926              	.LBE2408:
 5927              	.LBB2409:
 5928              	.LBI2366:
 257:../../libDaisy//src/dev/mpr121.h ****     {
 5929              		.loc 13 257 10 is_stmt 1 view .LVU1322
 5930              	.LBB2405:
 5931              	.LBB2374:
 5932              	.LBI2368:
  63:../../libDaisy//src/dev/mpr121.h ****     {
 5933              		.loc 13 63 10 view .LVU1323
 5934              	.LBB2371:
  65:../../libDaisy//src/dev/mpr121.h ****                != i2c_.TransmitBlocking(config_.dev_addr, data, size, 10);
 5935              		.loc 13 65 9 view .LVU1324
  66:../../libDaisy//src/dev/mpr121.h ****     }
 5936              		.loc 13 66 40 is_stmt 0 view .LVU1325
 5937 0df2 3B46     		mov	r3, r7
 5938              	.LBE2371:
 5939              	.LBE2374:
 264:../../libDaisy//src/dev/mpr121.h **** 
 5940              		.loc 13 264 17 view .LVU1326
 5941 0df4 8DF81D80 		strb	r8, [sp, #29]
 5942 0df8 8DF81C60 		strb	r6, [sp, #28]
 5943              	.LBB2375:
 5944              	.LBB2372:
  66:../../libDaisy//src/dev/mpr121.h ****     }
 5945              		.loc 13 66 40 view .LVU1327
 5946 0dfc FFF7FEFF 		bl	_ZN5daisy9I2CHandle16TransmitBlockingEtPhtm
 5947              	.LVL306:
  66:../../libDaisy//src/dev/mpr121.h ****     }
 5948              		.loc 13 66 40 view .LVU1328
 5949              	.LBE2372:
 5950              	.LBE2375:
 5951              	.LBB2376:
 5952              	.LBI2376:
 5953              		.loc 13 343 10 is_stmt 1 view .LVU1329
 5954              	.LBB2377:
ARM GAS  /var/folders/hl/qgbwny5j0fd895c2c41bk3tw0000gp/T//cckqgw4a.s 			page 143


 5955              		.loc 13 343 55 is_stmt 0 view .LVU1330
 5956 0e00 94F83030 		ldrb	r3, [r4, #48]	@ zero_extendqisi2
 5957              	.LBE2377:
 5958              	.LBE2376:
 5959              	.LBB2380:
 5960              	.LBB2381:
  73:../../libDaisy//src/dev/mpr121.h ****     }
 5961              		.loc 13 73 39 view .LVU1331
 5962 0e04 02AA     		add	r2, sp, #8
 5963 0e06 94F82C10 		ldrb	r1, [r4, #44]	@ zero_extendqisi2
 5964              	.LBE2381:
 5965              	.LBE2380:
 5966              	.LBB2384:
 5967              	.LBB2378:
 5968              		.loc 13 343 55 view .LVU1332
 5969 0e0a 4045     		cmp	r0, r8
 5970 0e0c 18BF     		it	ne
 5971 0e0e 43F00103 		orrne	r3, r3, #1
 5972              	.LBE2378:
 5973              	.LBE2384:
 5974              	.LBB2385:
 5975              	.LBB2382:
  73:../../libDaisy//src/dev/mpr121.h ****     }
 5976              		.loc 13 73 39 view .LVU1333
 5977 0e12 0095     		str	r5, [sp]
 5978 0e14 0F48     		ldr	r0, .L25
 5979              	.LVL307:
  73:../../libDaisy//src/dev/mpr121.h ****     }
 5980              		.loc 13 73 39 view .LVU1334
 5981              	.LBE2382:
 5982              	.LBE2385:
 5983              	.LBB2386:
 5984              	.LBB2379:
 5985              		.loc 13 343 55 view .LVU1335
 5986 0e16 84F83030 		strb	r3, [r4, #48]
 5987              	.LVL308:
 5988              		.loc 13 343 55 view .LVU1336
 5989              	.LBE2379:
 5990              	.LBE2386:
 5991              	.LBB2387:
 5992              	.LBI2380:
  70:../../libDaisy//src/dev/mpr121.h ****     {
 5993              		.loc 13 70 10 is_stmt 1 view .LVU1337
 5994              	.LBB2383:
  72:../../libDaisy//src/dev/mpr121.h ****                != i2c_.ReceiveBlocking(config_.dev_addr, data, size, 10);
 5995              		.loc 13 72 9 view .LVU1338
  73:../../libDaisy//src/dev/mpr121.h ****     }
 5996              		.loc 13 73 39 is_stmt 0 view .LVU1339
 5997 0e1a 3B46     		mov	r3, r7
 5998 0e1c FFF7FEFF 		bl	_ZN5daisy9I2CHandle15ReceiveBlockingEtPhtm
 5999              	.LVL309:
  73:../../libDaisy//src/dev/mpr121.h ****     }
 6000              		.loc 13 73 39 view .LVU1340
 6001              	.LBE2383:
 6002              	.LBE2387:
 6003              	.LBB2388:
 6004              	.LBI2388:
ARM GAS  /var/folders/hl/qgbwny5j0fd895c2c41bk3tw0000gp/T//cckqgw4a.s 			page 144


 6005              		.loc 13 343 10 is_stmt 1 view .LVU1341
 6006              	.LBB2389:
 6007              		.loc 13 343 55 is_stmt 0 view .LVU1342
 6008 0e20 94F83010 		ldrb	r1, [r4, #48]	@ zero_extendqisi2
 6009              	.LBE2389:
 6010              	.LBE2388:
 282:../../libDaisy//src/dev/mpr121.h ****         SetTransportErr(transport_.Write(buff, 2));
 6011              		.loc 13 282 17 view .LVU1343
 6012 0e24 8C23     		movs	r3, #140
 6013              	.LBB2392:
 6014              	.LBB2393:
  66:../../libDaisy//src/dev/mpr121.h ****     }
 6015              		.loc 13 66 40 view .LVU1344
 6016 0e26 07AA     		add	r2, sp, #28
 6017              	.LBE2393:
 6018              	.LBE2392:
 6019              	.LBB2398:
 6020              	.LBB2390:
 6021              		.loc 13 343 55 view .LVU1345
 6022 0e28 4045     		cmp	r0, r8
 6023 0e2a 18BF     		it	ne
 6024 0e2c 41F00101 		orrne	r1, r1, #1
 6025              	.LBE2390:
 6026              	.LBE2398:
 6027              	.LBB2399:
 6028              	.LBB2394:
  66:../../libDaisy//src/dev/mpr121.h ****     }
 6029              		.loc 13 66 40 view .LVU1346
 6030 0e30 0095     		str	r5, [sp]
 6031              	.LBE2394:
 6032              	.LBE2399:
 282:../../libDaisy//src/dev/mpr121.h ****         SetTransportErr(transport_.Write(buff, 2));
 6033              		.loc 13 282 17 view .LVU1347
 6034 0e32 8DF81D30 		strb	r3, [sp, #29]
 6035              	.LBB2400:
 6036              	.LBB2395:
  66:../../libDaisy//src/dev/mpr121.h ****     }
 6037              		.loc 13 66 40 view .LVU1348
 6038 0e36 0223     		movs	r3, #2
 6039              	.LBE2395:
 6040              	.LBE2400:
 6041              	.LBB2401:
 6042              	.LBB2391:
 6043              		.loc 13 343 55 view .LVU1349
 6044 0e38 84F83010 		strb	r1, [r4, #48]
 6045              	.LVL310:
 6046              		.loc 13 343 55 view .LVU1350
 6047              	.LBE2391:
 6048              	.LBE2401:
 6049              	.LBB2402:
 6050              	.LBI2392:
  63:../../libDaisy//src/dev/mpr121.h ****     {
 6051              		.loc 13 63 10 is_stmt 1 view .LVU1351
 6052              	.LBB2396:
  65:../../libDaisy//src/dev/mpr121.h ****                != i2c_.TransmitBlocking(config_.dev_addr, data, size, 10);
 6053              		.loc 13 65 9 view .LVU1352
  66:../../libDaisy//src/dev/mpr121.h ****     }
ARM GAS  /var/folders/hl/qgbwny5j0fd895c2c41bk3tw0000gp/T//cckqgw4a.s 			page 145


 6054              		.loc 13 66 40 is_stmt 0 view .LVU1353
 6055 0e3c 94F82C10 		ldrb	r1, [r4, #44]	@ zero_extendqisi2
 6056 0e40 0448     		ldr	r0, .L25
 6057              	.LBE2396:
 6058              	.LBE2402:
 281:../../libDaisy//src/dev/mpr121.h ****         buff[1] = value;
 6059              		.loc 13 281 17 view .LVU1354
 6060 0e42 8DF81C60 		strb	r6, [sp, #28]
 6061              	.LBB2403:
 6062              	.LBB2397:
  66:../../libDaisy//src/dev/mpr121.h ****     }
 6063              		.loc 13 66 40 view .LVU1355
 6064 0e46 FFF7FEFF 		bl	_ZN5daisy9I2CHandle16TransmitBlockingEtPhtm
 6065              	.LVL311:
  66:../../libDaisy//src/dev/mpr121.h ****     }
 6066              		.loc 13 66 40 view .LVU1356
 6067              	.LBE2397:
 6068              	.LBE2403:
 6069              	.LBE2405:
 6070              	.LBE2409:
 6071              	.LBB2410:
 6072              	.LBI2410:
 344:../../libDaisy//src/dev/mpr121.h **** 
 345:../../libDaisy//src/dev/mpr121.h ****     /** Get the global transport_error_ bool (as a Result), then reset it */
 346:../../libDaisy//src/dev/mpr121.h ****     Result GetTransportErr()
 6073              		.loc 13 346 12 is_stmt 1 view .LVU1357
 6074              	.LBB2411:
 347:../../libDaisy//src/dev/mpr121.h ****     {
 348:../../libDaisy//src/dev/mpr121.h ****         Result ret       = transport_error_ ? ERR : OK;
 349:../../libDaisy//src/dev/mpr121.h ****         transport_error_ = false;
 6075              		.loc 13 349 26 is_stmt 0 view .LVU1358
 6076 0e4a 84F83080 		strb	r8, [r4, #48]
 6077              	.LVL312:
 6078              		.loc 13 349 26 view .LVU1359
 6079              	.LBE2411:
 6080              	.LBE2410:
 6081              	.LBE2414:
 6082              	.LBE2418:
  25:touchEvent.h  **** }
 6083              		.loc 14 25 1 view .LVU1360
 6084 0e4e 0DB0     		add	sp, sp, #52
 6085              		.cfi_def_cfa_offset 36
 6086              		@ sp needed
 6087 0e50 BDE8F08F 		pop	{r4, r5, r6, r7, r8, r9, r10, fp, pc}
 6088              	.L26:
 6089              		.align	2
 6090              	.L25:
 6091 0e54 18000000 		.word	.LANCHOR0+24
 6092              		.cfi_endproc
 6093              	.LFE4792:
 6095              		.section	.text._Z10touchEventv,"ax",%progbits
 6096              		.align	1
 6097              		.p2align 2,,3
 6098              		.global	_Z10touchEventv
 6099              		.syntax unified
 6100              		.thumb
 6101              		.thumb_func
ARM GAS  /var/folders/hl/qgbwny5j0fd895c2c41bk3tw0000gp/T//cckqgw4a.s 			page 146


 6102              		.fpu fpv5-d16
 6104              	_Z10touchEventv:
 6105              	.LFB4793:
  26:touchEvent.h  **** 
  27:touchEvent.h  **** bool hasTriggered = false;
  28:touchEvent.h  **** void touchEvent(){
 6106              		.loc 14 28 18 is_stmt 1 view -0
 6107              		.cfi_startproc
 6108              		@ args = 0, pretend = 0, frame = 8
 6109              		@ frame_needed = 0, uses_anonymous_args = 0
  29:touchEvent.h  ****     currtouched = touch1.Touched();
 6110              		.loc 14 29 5 view .LVU1362
 6111              	.LVL313:
 6112              	.LBB2432:
 6113              	.LBI2432:
 221:../../libDaisy//src/dev/mpr121.h ****     {
 6114              		.loc 13 221 14 view .LVU1363
 221:../../libDaisy//src/dev/mpr121.h ****     {
 6115              		.loc 13 221 14 is_stmt 0 view .LVU1364
 6116              	.LBE2432:
  28:touchEvent.h  ****     currtouched = touch1.Touched();
 6117              		.loc 14 28 18 view .LVU1365
 6118 0000 F0B5     		push	{r4, r5, r6, r7, lr}
 6119              		.cfi_def_cfa_offset 20
 6120              		.cfi_offset 4, -20
 6121              		.cfi_offset 5, -16
 6122              		.cfi_offset 6, -12
 6123              		.cfi_offset 7, -8
 6124              		.cfi_offset 14, -4
 6125              	.LBB2469:
 6126              	.LBB2433:
 6127              	.LBB2434:
 6128              	.LBB2435:
 6129              	.LBB2436:
 6130              	.LBB2437:
  66:../../libDaisy//src/dev/mpr121.h ****     }
 6131              		.loc 13 66 49 view .LVU1366
 6132 0002 314D     		ldr	r5, .L43
 6133              	.LBE2437:
 6134              	.LBE2436:
 6135              	.LBE2435:
 6136              	.LBE2434:
 6137              	.LBE2433:
 6138              	.LBE2469:
  28:touchEvent.h  ****     currtouched = touch1.Touched();
 6139              		.loc 14 28 18 view .LVU1367
 6140 0004 85B0     		sub	sp, sp, #20
 6141              		.cfi_def_cfa_offset 40
 6142              	.LBB2470:
 6143              	.LBB2467:
 6144              	.LBB2464:
 6145              	.LBB2460:
 6146              	.LBB2440:
 6147              	.LBB2438:
  66:../../libDaisy//src/dev/mpr121.h ****     }
 6148              		.loc 13 66 40 view .LVU1368
 6149 0006 0A26     		movs	r6, #10
ARM GAS  /var/folders/hl/qgbwny5j0fd895c2c41bk3tw0000gp/T//cckqgw4a.s 			page 147


 6150 0008 0024     		movs	r4, #0
 6151 000a 0123     		movs	r3, #1
 6152 000c 0DF10D02 		add	r2, sp, #13
 6153 0010 0096     		str	r6, [sp]
 6154 0012 05F11800 		add	r0, r5, #24
 6155 0016 95F82C10 		ldrb	r1, [r5, #44]	@ zero_extendqisi2
 6156 001a 8DF80D40 		strb	r4, [sp, #13]
 6157              	.LVL314:
  66:../../libDaisy//src/dev/mpr121.h ****     }
 6158              		.loc 13 66 40 view .LVU1369
 6159              	.LBE2438:
 6160              	.LBE2440:
 6161              	.LBE2460:
 6162              	.LBI2434:
 244:../../libDaisy//src/dev/mpr121.h ****     {
 6163              		.loc 13 244 14 is_stmt 1 view .LVU1370
 6164              	.LBB2461:
 6165              	.LBB2441:
 6166              	.LBI2436:
  63:../../libDaisy//src/dev/mpr121.h ****     {
 6167              		.loc 13 63 10 view .LVU1371
 6168              	.LBB2439:
  65:../../libDaisy//src/dev/mpr121.h ****                != i2c_.TransmitBlocking(config_.dev_addr, data, size, 10);
 6169              		.loc 13 65 9 view .LVU1372
  66:../../libDaisy//src/dev/mpr121.h ****     }
 6170              		.loc 13 66 40 is_stmt 0 view .LVU1373
 6171 001e FFF7FEFF 		bl	_ZN5daisy9I2CHandle16TransmitBlockingEtPhtm
 6172              	.LVL315:
  66:../../libDaisy//src/dev/mpr121.h ****     }
 6173              		.loc 13 66 40 view .LVU1374
 6174              	.LBE2439:
 6175              	.LBE2441:
 6176              	.LBB2442:
 6177              	.LBI2442:
 343:../../libDaisy//src/dev/mpr121.h **** 
 6178              		.loc 13 343 10 is_stmt 1 view .LVU1375
 6179              	.LBB2443:
 343:../../libDaisy//src/dev/mpr121.h **** 
 6180              		.loc 13 343 55 is_stmt 0 view .LVU1376
 6181 0022 95F83020 		ldrb	r2, [r5, #48]	@ zero_extendqisi2
 6182              	.LBE2443:
 6183              	.LBE2442:
 6184              	.LBB2446:
 6185              	.LBB2447:
  73:../../libDaisy//src/dev/mpr121.h ****     }
 6186              		.loc 13 73 39 view .LVU1377
 6187 0026 0223     		movs	r3, #2
 6188 0028 0096     		str	r6, [sp]
 6189              	.LBE2447:
 6190              	.LBE2446:
 6191              	.LBB2450:
 6192              	.LBB2444:
 343:../../libDaisy//src/dev/mpr121.h **** 
 6193              		.loc 13 343 55 view .LVU1378
 6194 002a A042     		cmp	r0, r4
 6195 002c 18BF     		it	ne
 6196 002e 42F00102 		orrne	r2, r2, #1
ARM GAS  /var/folders/hl/qgbwny5j0fd895c2c41bk3tw0000gp/T//cckqgw4a.s 			page 148


 6197              	.LBE2444:
 6198              	.LBE2450:
 6199              	.LBB2451:
 6200              	.LBB2448:
  73:../../libDaisy//src/dev/mpr121.h ****     }
 6201              		.loc 13 73 39 view .LVU1379
 6202 0032 95F82C10 		ldrb	r1, [r5, #44]	@ zero_extendqisi2
 6203 0036 05F11800 		add	r0, r5, #24
 6204              	.LVL316:
  73:../../libDaisy//src/dev/mpr121.h ****     }
 6205              		.loc 13 73 39 view .LVU1380
 6206              	.LBE2448:
 6207              	.LBE2451:
 6208              	.LBE2461:
 6209              	.LBE2464:
 6210              	.LBE2467:
 6211              	.LBE2470:
 6212              		.loc 14 29 17 view .LVU1381
 6213 003a 244F     		ldr	r7, .L43+4
 6214              	.LBB2471:
 6215              	.LBB2468:
 6216              	.LBB2465:
 6217              	.LBB2462:
 6218              	.LBB2452:
 6219              	.LBB2445:
 343:../../libDaisy//src/dev/mpr121.h **** 
 6220              		.loc 13 343 55 view .LVU1382
 6221 003c 85F83020 		strb	r2, [r5, #48]
 6222              	.LVL317:
 343:../../libDaisy//src/dev/mpr121.h **** 
 6223              		.loc 13 343 55 view .LVU1383
 6224              	.LBE2445:
 6225              	.LBE2452:
 6226              	.LBB2453:
 6227              	.LBI2446:
  70:../../libDaisy//src/dev/mpr121.h ****     {
 6228              		.loc 13 70 10 is_stmt 1 view .LVU1384
 6229              	.LBB2449:
  72:../../libDaisy//src/dev/mpr121.h ****                != i2c_.ReceiveBlocking(config_.dev_addr, data, size, 10);
 6230              		.loc 13 72 9 view .LVU1385
  73:../../libDaisy//src/dev/mpr121.h ****     }
 6231              		.loc 13 73 39 is_stmt 0 view .LVU1386
 6232 0040 0DF10E02 		add	r2, sp, #14
 6233              	.LVL318:
  73:../../libDaisy//src/dev/mpr121.h ****     }
 6234              		.loc 13 73 39 view .LVU1387
 6235 0044 FFF7FEFF 		bl	_ZN5daisy9I2CHandle15ReceiveBlockingEtPhtm
 6236              	.LVL319:
  73:../../libDaisy//src/dev/mpr121.h ****     }
 6237              		.loc 13 73 39 view .LVU1388
 6238              	.LBE2449:
 6239              	.LBE2453:
 6240              	.LBB2454:
 6241              	.LBI2454:
 343:../../libDaisy//src/dev/mpr121.h **** 
 6242              		.loc 13 343 10 is_stmt 1 view .LVU1389
 6243              	.LBB2455:
ARM GAS  /var/folders/hl/qgbwny5j0fd895c2c41bk3tw0000gp/T//cckqgw4a.s 			page 149


 343:../../libDaisy//src/dev/mpr121.h **** 
 6244              		.loc 13 343 55 is_stmt 0 view .LVU1390
 6245 0048 95F83030 		ldrb	r3, [r5, #48]	@ zero_extendqisi2
 6246              	.LBE2455:
 6247              	.LBE2454:
 250:../../libDaisy//src/dev/mpr121.h ****     }
 6248              		.loc 13 250 16 view .LVU1391
 6249 004c BDF80E20 		ldrh	r2, [sp, #14]
 6250              	.LBB2458:
 6251              	.LBB2456:
 343:../../libDaisy//src/dev/mpr121.h **** 
 6252              		.loc 13 343 55 view .LVU1392
 6253 0050 A042     		cmp	r0, r4
 6254 0052 18BF     		it	ne
 6255 0054 43F00103 		orrne	r3, r3, #1
 6256 0058 1D4E     		ldr	r6, .L43+8
 6257              	.LBE2456:
 6258              	.LBE2458:
 6259              	.LBE2462:
 6260              	.LBE2465:
 224:../../libDaisy//src/dev/mpr121.h ****     }
 6261              		.loc 13 224 20 view .LVU1393
 6262 005a C2F30B02 		ubfx	r2, r2, #0, #12
 6263              	.LBB2466:
 6264              	.LBB2463:
 6265              	.LBB2459:
 6266              	.LBB2457:
 343:../../libDaisy//src/dev/mpr121.h **** 
 6267              		.loc 13 343 55 view .LVU1394
 6268 005e 85F83030 		strb	r3, [r5, #48]
 6269              	.LVL320:
 343:../../libDaisy//src/dev/mpr121.h **** 
 6270              		.loc 13 343 55 view .LVU1395
 6271              	.LBE2457:
 6272              	.LBE2459:
 6273              	.LBE2463:
 6274              	.LBE2466:
 6275              	.LBE2468:
 6276              	.LBE2471:
 6277              		.loc 14 29 17 view .LVU1396
 6278 0062 3A80     		strh	r2, [r7]	@ movhi
  30:touchEvent.h  ****     for (uint8_t i=0; i<12; i++) {
 6279              		.loc 14 30 5 is_stmt 1 view .LVU1397
 6280              	.LVL321:
 6281              	.LBB2472:
 6282              		.loc 14 30 24 view .LVU1398
 6283 0064 07E0     		b	.L33
 6284              	.LVL322:
 6285              	.L32:
  31:touchEvent.h  ****         // it if *is* touched and *wasnt* touched before, alert!
  32:touchEvent.h  ****         if ((currtouched & _BV(i)) && !(lasttouched & _BV(i)) ) {
  33:touchEvent.h  ****             hw.SetLed(true);
  34:touchEvent.h  ****             //hw.PrintLine("touched: %d", i);
  35:touchEvent.h  ****             pad = i;
  36:touchEvent.h  ****             hasTriggered = false; // reset the trigger flag when a new touch is detected
  37:touchEvent.h  ****         }
  38:touchEvent.h  ****         // if it *was* touched and now *isnt*, alert!
ARM GAS  /var/folders/hl/qgbwny5j0fd895c2c41bk3tw0000gp/T//cckqgw4a.s 			page 150


  39:touchEvent.h  ****         if (!(currtouched & _BV(i)) && (lasttouched & _BV(i)) ) {
 6286              		.loc 14 39 41 is_stmt 0 view .LVU1399
 6287 0066 3388     		ldrh	r3, [r6]
 6288              		.loc 14 39 53 view .LVU1400
 6289 0068 2341     		asrs	r3, r3, r4
 6290              		.loc 14 39 37 view .LVU1401
 6291 006a DA07     		lsls	r2, r3, #31
 6292 006c 1FD4     		bmi	.L41
 6293              	.LBE2472:
  40:touchEvent.h  ****             hw.SetLed(false);
  41:touchEvent.h  ****             pad = 99;
  42:touchEvent.h  ****             hasTriggered = false; // reset the trigger flag when the touch is released
  43:touchEvent.h  ****         }
  44:touchEvent.h  ****     }
  45:touchEvent.h  ****     // reset our state
  46:touchEvent.h  ****     lasttouched = currtouched;
 6294              		.loc 14 46 17 view .LVU1402
 6295 006e 3A88     		ldrh	r2, [r7]
 6296              	.L31:
 6297              	.LBB2473:
  30:touchEvent.h  ****         // it if *is* touched and *wasnt* touched before, alert!
 6298              		.loc 14 30 5 is_stmt 1 discriminator 2 view .LVU1403
 6299              	.LVL323:
  30:touchEvent.h  ****         // it if *is* touched and *wasnt* touched before, alert!
 6300              		.loc 14 30 24 discriminator 2 view .LVU1404
 6301 0070 0134     		adds	r4, r4, #1
 6302              	.LVL324:
  30:touchEvent.h  ****         // it if *is* touched and *wasnt* touched before, alert!
 6303              		.loc 14 30 24 is_stmt 0 discriminator 2 view .LVU1405
 6304 0072 0C2C     		cmp	r4, #12
 6305 0074 18D0     		beq	.L42
 6306              	.L33:
 6307              	.LVL325:
  32:touchEvent.h  ****             hw.SetLed(true);
 6308              		.loc 14 32 9 is_stmt 1 view .LVU1406
  32:touchEvent.h  ****             hw.SetLed(true);
 6309              		.loc 14 32 26 is_stmt 0 view .LVU1407
 6310 0076 42FA04F3 		asr	r3, r2, r4
  32:touchEvent.h  ****             hw.SetLed(true);
 6311              		.loc 14 32 9 view .LVU1408
 6312 007a D907     		lsls	r1, r3, #31
 6313 007c F3D5     		bpl	.L32
  32:touchEvent.h  ****             hw.SetLed(true);
 6314              		.loc 14 32 41 discriminator 1 view .LVU1409
 6315 007e 3388     		ldrh	r3, [r6]
  32:touchEvent.h  ****             hw.SetLed(true);
 6316              		.loc 14 32 39 discriminator 1 view .LVU1410
 6317 0080 2341     		asrs	r3, r3, r4
  32:touchEvent.h  ****             hw.SetLed(true);
 6318              		.loc 14 32 36 discriminator 1 view .LVU1411
 6319 0082 13F00105 		ands	r5, r3, #1
 6320 0086 F3D1     		bne	.L31
  33:touchEvent.h  ****             //hw.PrintLine("touched: %d", i);
 6321              		.loc 14 33 13 is_stmt 1 view .LVU1412
  33:touchEvent.h  ****             //hw.PrintLine("touched: %d", i);
 6322              		.loc 14 33 22 is_stmt 0 view .LVU1413
 6323 0088 0121     		movs	r1, #1
ARM GAS  /var/folders/hl/qgbwny5j0fd895c2c41bk3tw0000gp/T//cckqgw4a.s 			page 151


 6324 008a 1248     		ldr	r0, .L43+12
 6325 008c FFF7FEFF 		bl	_ZN5daisy9DaisySeed6SetLedEb
 6326              	.LVL326:
  35:touchEvent.h  ****             hasTriggered = false; // reset the trigger flag when a new touch is detected
 6327              		.loc 14 35 13 is_stmt 1 view .LVU1414
  39:touchEvent.h  ****             hw.SetLed(false);
 6328              		.loc 14 39 15 is_stmt 0 view .LVU1415
 6329 0090 3A88     		ldrh	r2, [r7]
  35:touchEvent.h  ****             hasTriggered = false; // reset the trigger flag when a new touch is detected
 6330              		.loc 14 35 17 view .LVU1416
 6331 0092 1148     		ldr	r0, .L43+16
  39:touchEvent.h  ****             hw.SetLed(false);
 6332              		.loc 14 39 13 view .LVU1417
 6333 0094 42FA04F3 		asr	r3, r2, r4
  36:touchEvent.h  ****         }
 6334              		.loc 14 36 26 view .LVU1418
 6335 0098 1049     		ldr	r1, .L43+20
  35:touchEvent.h  ****             hasTriggered = false; // reset the trigger flag when a new touch is detected
 6336              		.loc 14 35 17 view .LVU1419
 6337 009a 0460     		str	r4, [r0]
  36:touchEvent.h  ****         }
 6338              		.loc 14 36 13 is_stmt 1 view .LVU1420
  39:touchEvent.h  ****             hw.SetLed(false);
 6339              		.loc 14 39 9 is_stmt 0 view .LVU1421
 6340 009c DB07     		lsls	r3, r3, #31
  36:touchEvent.h  ****         }
 6341              		.loc 14 36 26 view .LVU1422
 6342 009e 0D70     		strb	r5, [r1]
  39:touchEvent.h  ****             hw.SetLed(false);
 6343              		.loc 14 39 9 is_stmt 1 view .LVU1423
 6344 00a0 E1D5     		bpl	.L32
  30:touchEvent.h  ****         // it if *is* touched and *wasnt* touched before, alert!
 6345              		.loc 14 30 5 view .LVU1424
 6346              	.LVL327:
  30:touchEvent.h  ****         // it if *is* touched and *wasnt* touched before, alert!
 6347              		.loc 14 30 24 view .LVU1425
 6348 00a2 0134     		adds	r4, r4, #1
 6349              	.LVL328:
  30:touchEvent.h  ****         // it if *is* touched and *wasnt* touched before, alert!
 6350              		.loc 14 30 24 is_stmt 0 view .LVU1426
 6351 00a4 0C2C     		cmp	r4, #12
 6352 00a6 E6D1     		bne	.L33
 6353              	.L42:
  30:touchEvent.h  ****         // it if *is* touched and *wasnt* touched before, alert!
 6354              		.loc 14 30 24 view .LVU1427
 6355              	.LBE2473:
 6356              		.loc 14 46 5 is_stmt 1 view .LVU1428
 6357              		.loc 14 46 17 is_stmt 0 view .LVU1429
 6358 00a8 3280     		strh	r2, [r6]	@ movhi
  47:touchEvent.h  **** }
 6359              		.loc 14 47 1 view .LVU1430
 6360 00aa 05B0     		add	sp, sp, #20
 6361              		.cfi_remember_state
 6362              		.cfi_def_cfa_offset 20
 6363              		@ sp needed
 6364 00ac F0BD     		pop	{r4, r5, r6, r7, pc}
 6365              	.LVL329:
ARM GAS  /var/folders/hl/qgbwny5j0fd895c2c41bk3tw0000gp/T//cckqgw4a.s 			page 152


 6366              	.L41:
 6367              		.cfi_restore_state
 6368              	.LBB2474:
  40:touchEvent.h  ****             pad = 99;
 6369              		.loc 14 40 13 is_stmt 1 view .LVU1431
  40:touchEvent.h  ****             pad = 99;
 6370              		.loc 14 40 22 is_stmt 0 view .LVU1432
 6371 00ae 0021     		movs	r1, #0
 6372 00b0 0848     		ldr	r0, .L43+12
 6373 00b2 FFF7FEFF 		bl	_ZN5daisy9DaisySeed6SetLedEb
 6374              	.LVL330:
  41:touchEvent.h  ****             hasTriggered = false; // reset the trigger flag when the touch is released
 6375              		.loc 14 41 13 is_stmt 1 view .LVU1433
  41:touchEvent.h  ****             hasTriggered = false; // reset the trigger flag when the touch is released
 6376              		.loc 14 41 17 is_stmt 0 view .LVU1434
 6377 00b6 6325     		movs	r5, #99
 6378 00b8 0748     		ldr	r0, .L43+16
  42:touchEvent.h  ****         }
 6379              		.loc 14 42 26 view .LVU1435
 6380 00ba 0021     		movs	r1, #0
 6381 00bc 074B     		ldr	r3, .L43+20
 6382              	.LBE2474:
  46:touchEvent.h  **** }
 6383              		.loc 14 46 17 view .LVU1436
 6384 00be 3A88     		ldrh	r2, [r7]
 6385              	.LBB2475:
  41:touchEvent.h  ****             hasTriggered = false; // reset the trigger flag when the touch is released
 6386              		.loc 14 41 17 view .LVU1437
 6387 00c0 0560     		str	r5, [r0]
  42:touchEvent.h  ****         }
 6388              		.loc 14 42 13 is_stmt 1 view .LVU1438
  42:touchEvent.h  ****         }
 6389              		.loc 14 42 26 is_stmt 0 view .LVU1439
 6390 00c2 1970     		strb	r1, [r3]
 6391 00c4 D4E7     		b	.L31
 6392              	.L44:
 6393 00c6 00BF     		.align	2
 6394              	.L43:
 6395 00c8 00000000 		.word	.LANCHOR0
 6396 00cc 00000000 		.word	.LANCHOR1
 6397 00d0 00000000 		.word	.LANCHOR2
 6398 00d4 00000000 		.word	.LANCHOR3
 6399 00d8 00000000 		.word	.LANCHOR4
 6400 00dc 00000000 		.word	.LANCHOR5
 6401              	.LBE2475:
 6402              		.cfi_endproc
 6403              	.LFE4793:
 6405              		.section	.text._Z11TouchedNotev,"ax",%progbits
 6406              		.align	1
 6407              		.p2align 2,,3
 6408              		.global	_Z11TouchedNotev
 6409              		.syntax unified
 6410              		.thumb
 6411              		.thumb_func
 6412              		.fpu fpv5-d16
 6414              	_Z11TouchedNotev:
 6415              	.LFB4794:
ARM GAS  /var/folders/hl/qgbwny5j0fd895c2c41bk3tw0000gp/T//cckqgw4a.s 			page 153


  48:touchEvent.h  **** 
  49:touchEvent.h  **** int TouchedNote(){
 6416              		.loc 14 49 18 is_stmt 1 view -0
 6417              		.cfi_startproc
 6418              		@ args = 0, pretend = 0, frame = 0
 6419              		@ frame_needed = 0, uses_anonymous_args = 0
 6420              		@ link register save eliminated.
  50:touchEvent.h  ****     return pad;
 6421              		.loc 14 50 5 view .LVU1441
 6422              		.loc 14 50 12 is_stmt 0 view .LVU1442
 6423 0000 014B     		ldr	r3, .L46
  51:touchEvent.h  **** }
 6424              		.loc 14 51 1 view .LVU1443
 6425 0002 1868     		ldr	r0, [r3]
 6426 0004 7047     		bx	lr
 6427              	.L47:
 6428 0006 00BF     		.align	2
 6429              	.L46:
 6430 0008 00000000 		.word	.LANCHOR4
 6431              		.cfi_endproc
 6432              	.LFE4794:
 6434              		.section	.rodata._Z7logInitv.str1.4,"aMS",%progbits,1
 6435              		.align	2
 6436              	.LC4:
 6437 0000 48656C6C 		.ascii	"Hello World!\000"
 6437      6F20576F 
 6437      726C6421 
 6437      00
 6438              		.section	.text._Z7logInitv,"ax",%progbits
 6439              		.align	1
 6440              		.p2align 2,,3
 6441              		.global	_Z7logInitv
 6442              		.syntax unified
 6443              		.thumb
 6444              		.thumb_func
 6445              		.fpu fpv5-d16
 6447              	_Z7logInitv:
 6448              	.LFB4821:
 6449              		.file 17 "OmniSeed.cpp"
   1:OmniSeed.cpp  **** #include "daisy_seed.h"
   2:OmniSeed.cpp  **** #include "daisysp.h"
   3:OmniSeed.cpp  **** #include "keypad.h"
   4:OmniSeed.cpp  **** #include "touchEvent.h"
   5:OmniSeed.cpp  **** #include "notes.h"
   6:OmniSeed.cpp  **** #include "PolyPluck_p.h"
   7:OmniSeed.cpp  **** #include "PolyOsc.h"
   8:OmniSeed.cpp  **** 
   9:OmniSeed.cpp  **** using namespace daisy;
  10:OmniSeed.cpp  **** using namespace daisysp;
  11:OmniSeed.cpp  **** using namespace seed;
  12:OmniSeed.cpp  **** 
  13:OmniSeed.cpp  **** /******************
  14:OmniSeed.cpp  ****  * System setup	  *
  15:OmniSeed.cpp  **** ******************/
  16:OmniSeed.cpp  **** DaisySeed 		hw;
  17:OmniSeed.cpp  **** KeyboardMatrix 	kb;
  18:OmniSeed.cpp  **** Switch 			oct1,oct2,reset;
ARM GAS  /var/folders/hl/qgbwny5j0fd895c2c41bk3tw0000gp/T//cckqgw4a.s 			page 154


  19:OmniSeed.cpp  **** // testing cpuloads
  20:OmniSeed.cpp  **** CpuLoadMeter loadMeter;
  21:OmniSeed.cpp  **** 
  22:OmniSeed.cpp  **** enum AdcChannel {
  23:OmniSeed.cpp  ****    pot1 = 0,
  24:OmniSeed.cpp  ****    pot2,
  25:OmniSeed.cpp  ****    pot3,
  26:OmniSeed.cpp  ****    pot4,
  27:OmniSeed.cpp  ****    pot5,
  28:OmniSeed.cpp  ****    pot6,
  29:OmniSeed.cpp  ****    rot,
  30:OmniSeed.cpp  ****    NUM_ADC_CHANNELS
  31:OmniSeed.cpp  **** };
  32:OmniSeed.cpp  **** 
  33:OmniSeed.cpp  **** 
  34:OmniSeed.cpp  **** void logInit();
  35:OmniSeed.cpp  **** void syslog();
  36:OmniSeed.cpp  **** void systemReset();
  37:OmniSeed.cpp  **** 
  38:OmniSeed.cpp  **** /******************
  39:OmniSeed.cpp  ****  * Audio setup	  *
  40:OmniSeed.cpp  **** ******************/
  41:OmniSeed.cpp  **** int metaKey, metaScale, touchedPad;
  42:OmniSeed.cpp  **** const auto NUM_VOICES = 24;
  43:OmniSeed.cpp  **** float trig = 0.0f;
  44:OmniSeed.cpp  **** bool sus = false;
  45:OmniSeed.cpp  **** bool test = false;
  46:OmniSeed.cpp  **** int voice = 0;
  47:OmniSeed.cpp  **** bool change_wave = false;
  48:OmniSeed.cpp  **** 
  49:OmniSeed.cpp  **** PolyPluck_p<NUM_VOICES>			pluck; 
  50:OmniSeed.cpp  **** Resonator						res;
  51:OmniSeed.cpp  **** PolyOscillator DSY_SDRAM_BSS	posc;
  52:OmniSeed.cpp  **** WaveTableLoader					wtl;
  53:OmniSeed.cpp  **** 
  54:OmniSeed.cpp  **** float voiceSelect(float rootFreq, float augFreq);
  55:OmniSeed.cpp  **** float buttonHandler();
  56:OmniSeed.cpp  **** 
  57:OmniSeed.cpp  **** void AudioCallback(AudioHandle::InputBuffer in, AudioHandle::OutputBuffer out, size_t size)
  58:OmniSeed.cpp  **** {
  59:OmniSeed.cpp  **** 	// testing cpuloads
  60:OmniSeed.cpp  **** 	loadMeter.OnBlockStart();
  61:OmniSeed.cpp  **** 	float rootFreq, augFreq, pludec, bright, structr, damp, attack, decay, feedback, cutoff;
  62:OmniSeed.cpp  **** 	rootFreq = noteArray[metaKey];
  63:OmniSeed.cpp  **** 	augFreq = chordNote[metaScale][touchedPad];
  64:OmniSeed.cpp  **** 	oct1.Debounce();
  65:OmniSeed.cpp  **** 	oct2.Debounce();
  66:OmniSeed.cpp  **** 
  67:OmniSeed.cpp  **** 	pludec = fmap(hw.adc.GetFloat(pot1), 0.1f, 1.0f); 
  68:OmniSeed.cpp  **** 	bright = fmap(hw.adc.GetFloat(pot1), 0.0f, 1.0f);
  69:OmniSeed.cpp  **** 	damp = fmap(hw.adc.GetFloat(pot2), 0.0f, 1.0f);
  70:OmniSeed.cpp  **** 	structr = fmap(hw.adc.GetFloat(pot3), 0.0f, 1.0f);
  71:OmniSeed.cpp  **** 	attack = fmap(hw.adc.GetFloat(pot5), .01, 2);
  72:OmniSeed.cpp  **** 	decay  = fmap(hw.adc.GetFloat(pot6), 0.1f, 1.0f);
  73:OmniSeed.cpp  **** 	feedback = fmap(hw.adc.GetFloat(pot3), 0.3f, 0.99f);
  74:OmniSeed.cpp  **** 	cutoff = fmap(hw.adc.GetFloat(pot4), 1000.f, 19000.f, Mapping::LOG);
  75:OmniSeed.cpp  **** 
ARM GAS  /var/folders/hl/qgbwny5j0fd895c2c41bk3tw0000gp/T//cckqgw4a.s 			page 155


  76:OmniSeed.cpp  **** 
  77:OmniSeed.cpp  **** 
  78:OmniSeed.cpp  **** 	pluck.SetDecay(pludec);
  79:OmniSeed.cpp  **** 	res.SetBrightness(bright);
  80:OmniSeed.cpp  **** 	res.SetDamping(damp);
  81:OmniSeed.cpp  **** 	res.SetStructure(structr);
  82:OmniSeed.cpp  **** 	posc.SetAttack(attack);
  83:OmniSeed.cpp  **** 	posc.SetDecay(decay);
  84:OmniSeed.cpp  **** 	posc.SetCuttoff(cutoff);
  85:OmniSeed.cpp  **** 	posc.SetFeedback(feedback);
  86:OmniSeed.cpp  **** 
  87:OmniSeed.cpp  **** 	for (size_t i = 0; i < size; i++)
  88:OmniSeed.cpp  **** 	{
  89:OmniSeed.cpp  **** 		float output;
  90:OmniSeed.cpp  **** 
  91:OmniSeed.cpp  **** 		output = voiceSelect(rootFreq, augFreq);
  92:OmniSeed.cpp  **** 		
  93:OmniSeed.cpp  **** 		out[0][i] = output;
  94:OmniSeed.cpp  **** 		out[1][i] = output;
  95:OmniSeed.cpp  **** 	}
  96:OmniSeed.cpp  **** 	// testing cpuloads
  97:OmniSeed.cpp  **** 	loadMeter.OnBlockEnd();
  98:OmniSeed.cpp  **** }
  99:OmniSeed.cpp  **** 
 100:OmniSeed.cpp  **** int main(void)
 101:OmniSeed.cpp  **** {
 102:OmniSeed.cpp  **** 	hw.Init(true);
 103:OmniSeed.cpp  **** 	hw.SetAudioBlockSize(32); // number of samples handled per callback
 104:OmniSeed.cpp  **** 	hw.SetAudioSampleRate(SaiHandle::Config::SampleRate::SAI_48KHZ);
 105:OmniSeed.cpp  **** 	float sample_rate = hw.AudioSampleRate();
 106:OmniSeed.cpp  **** 
 107:OmniSeed.cpp  **** 	AdcChannelConfig adc_config[NUM_ADC_CHANNELS];
 108:OmniSeed.cpp  **** 	adc_config[pot1].InitSingle(A0);
 109:OmniSeed.cpp  **** 	adc_config[pot2].InitSingle(A1);
 110:OmniSeed.cpp  **** 	adc_config[pot3].InitSingle(A2);
 111:OmniSeed.cpp  **** 	adc_config[pot4].InitSingle(A3);
 112:OmniSeed.cpp  **** 	adc_config[pot5].InitSingle(A4);
 113:OmniSeed.cpp  **** 	adc_config[pot6].InitSingle(A5);
 114:OmniSeed.cpp  **** 	adc_config[rot].InitSingle(A7);
 115:OmniSeed.cpp  **** 	hw.adc.Init(adc_config,NUM_ADC_CHANNELS);
 116:OmniSeed.cpp  **** 	hw.adc.Start();
 117:OmniSeed.cpp  **** 
 118:OmniSeed.cpp  **** 	// testing cpuloads
 119:OmniSeed.cpp  **** 	loadMeter.Init(hw.AudioSampleRate(), hw.AudioBlockSize());
 120:OmniSeed.cpp  **** 	logInit();
 121:OmniSeed.cpp  **** 
 122:OmniSeed.cpp  **** 	// hw init
 123:OmniSeed.cpp  **** 	Init121();
 124:OmniSeed.cpp  **** 	kb.init();
 125:OmniSeed.cpp  **** 	oct1.Init(seed::D30, sample_rate);
 126:OmniSeed.cpp  **** 	oct2.Init(seed::D29, sample_rate);
 127:OmniSeed.cpp  **** 	reset.Init(seed::D27, sample_rate);
 128:OmniSeed.cpp  **** 
 129:OmniSeed.cpp  **** 	// audio init
 130:OmniSeed.cpp  **** 	pluck.Init(sample_rate);
 131:OmniSeed.cpp  **** 	res.Init(.025, 24, sample_rate);
 132:OmniSeed.cpp  **** 	posc.Init(sample_rate);
ARM GAS  /var/folders/hl/qgbwny5j0fd895c2c41bk3tw0000gp/T//cckqgw4a.s 			page 156


 133:OmniSeed.cpp  **** 
 134:OmniSeed.cpp  **** 	hw.StartAudio(AudioCallback);
 135:OmniSeed.cpp  **** 	while(1) {		
 136:OmniSeed.cpp  **** 		systemReset();
 137:OmniSeed.cpp  **** 		std::pair<int, int> key = kb.iReadKey();
 138:OmniSeed.cpp  **** 		
 139:OmniSeed.cpp  **** 		if(key.first != 99){
 140:OmniSeed.cpp  **** 			metaKey = key.first;
 141:OmniSeed.cpp  **** 			metaScale = key.second;
 142:OmniSeed.cpp  **** 			//hw.Print("Key of: %d", metaKey);
 143:OmniSeed.cpp  **** 			//hw.PrintLine("\t Scale: %d", metaScale);
 144:OmniSeed.cpp  **** 		}
 145:OmniSeed.cpp  **** 		
 146:OmniSeed.cpp  **** 		touchEvent();
 147:OmniSeed.cpp  **** 		if(TouchedNote() != 99 && !hasTriggered){
 148:OmniSeed.cpp  **** 			touchedPad = TouchedNote();
 149:OmniSeed.cpp  **** 			trig = 1.0f;
 150:OmniSeed.cpp  **** 			hasTriggered = true; // set the trigger flag to prevent repeated triggers
 151:OmniSeed.cpp  **** 			test = true;
 152:OmniSeed.cpp  **** 			//hw.PrintLine("Pad: %d", touchedPad);
 153:OmniSeed.cpp  **** 		} else { test = false;}
 154:OmniSeed.cpp  **** 
 155:OmniSeed.cpp  **** 	syslog();
 156:OmniSeed.cpp  **** 	System::Delay(10);
 157:OmniSeed.cpp  **** 	}
 158:OmniSeed.cpp  **** }
 159:OmniSeed.cpp  **** 
 160:OmniSeed.cpp  **** void logInit(){
 6450              		.loc 17 160 15 is_stmt 1 view -0
 6451              		.cfi_startproc
 6452              		@ args = 0, pretend = 0, frame = 0
 6453              		@ frame_needed = 0, uses_anonymous_args = 0
 161:OmniSeed.cpp  **** 	hw.StartLog();
 6454              		.loc 17 161 2 view .LVU1445
 6455              	.LVL331:
 6456              	.LBB2476:
 6457              	.LBI2476:
  23:../../libDaisy//src/daisy_seed.h **** 
  24:../../libDaisy//src/daisy_seed.h ****     /** This function used to provide a pre-initialization configuraiton 
  25:../../libDaisy//src/daisy_seed.h ****      *  it has since been deprecated, and does nothing.
  26:../../libDaisy//src/daisy_seed.h ****      */
  27:../../libDaisy//src/daisy_seed.h ****     void Configure();
  28:../../libDaisy//src/daisy_seed.h **** 
  29:../../libDaisy//src/daisy_seed.h ****     /** 
  30:../../libDaisy//src/daisy_seed.h ****     Initializes the Daisy Seed and the following peripherals:
  31:../../libDaisy//src/daisy_seed.h ****     SDRAM, QSPI, 24-bit 48kHz Audio via AK4556, Internal USB,
  32:../../libDaisy//src/daisy_seed.h ****     as well as the built-in LED and Testpoint.
  33:../../libDaisy//src/daisy_seed.h **** 
  34:../../libDaisy//src/daisy_seed.h ****     ADCs, DACs, and other special peripherals (such as I2C, SPI, etc.)
  35:../../libDaisy//src/daisy_seed.h ****     can be initialized using their specific initializers within libdaisy
  36:../../libDaisy//src/daisy_seed.h ****     for a specific application.
  37:../../libDaisy//src/daisy_seed.h ****     */
  38:../../libDaisy//src/daisy_seed.h ****     void Init(bool boost = false);
  39:../../libDaisy//src/daisy_seed.h **** 
  40:../../libDaisy//src/daisy_seed.h ****     /** 
  41:../../libDaisy//src/daisy_seed.h ****     Deinitializes all peripherals automatically handled by `Init`.
  42:../../libDaisy//src/daisy_seed.h ****     */
ARM GAS  /var/folders/hl/qgbwny5j0fd895c2c41bk3tw0000gp/T//cckqgw4a.s 			page 157


  43:../../libDaisy//src/daisy_seed.h ****     void DeInit();
  44:../../libDaisy//src/daisy_seed.h **** 
  45:../../libDaisy//src/daisy_seed.h ****     /** 
  46:../../libDaisy//src/daisy_seed.h ****     Wait some ms before going on.
  47:../../libDaisy//src/daisy_seed.h ****     \param del Delay time in ms.
  48:../../libDaisy//src/daisy_seed.h ****     */
  49:../../libDaisy//src/daisy_seed.h ****     void DelayMs(size_t del);
  50:../../libDaisy//src/daisy_seed.h **** 
  51:../../libDaisy//src/daisy_seed.h ****     /** 
  52:../../libDaisy//src/daisy_seed.h ****     Returns the gpio_pin corresponding to the index 0-31.
  53:../../libDaisy//src/daisy_seed.h ****     For the given GPIO on the Daisy Seed (labeled 1-32 in docs).
  54:../../libDaisy//src/daisy_seed.h ****     */
  55:../../libDaisy//src/daisy_seed.h ****     static dsy_gpio_pin GetPin(uint8_t pin_idx);
  56:../../libDaisy//src/daisy_seed.h **** 
  57:../../libDaisy//src/daisy_seed.h ****     /** Begins the audio for the seeds builtin audio.
  58:../../libDaisy//src/daisy_seed.h ****     the specified callback will get called whenever
  59:../../libDaisy//src/daisy_seed.h ****     new data is ready to be prepared.
  60:../../libDaisy//src/daisy_seed.h ****     */
  61:../../libDaisy//src/daisy_seed.h ****     void StartAudio(AudioHandle::InterleavingAudioCallback cb);
  62:../../libDaisy//src/daisy_seed.h **** 
  63:../../libDaisy//src/daisy_seed.h ****     /** Begins the audio for the seeds builtin audio.
  64:../../libDaisy//src/daisy_seed.h ****     the specified callback will get called whenever
  65:../../libDaisy//src/daisy_seed.h ****     new data is ready to be prepared.
  66:../../libDaisy//src/daisy_seed.h ****     This will use the newer non-interleaved callback.
  67:../../libDaisy//src/daisy_seed.h ****     */
  68:../../libDaisy//src/daisy_seed.h ****     void StartAudio(AudioHandle::AudioCallback cb);
  69:../../libDaisy//src/daisy_seed.h **** 
  70:../../libDaisy//src/daisy_seed.h ****     /** Changes to a new interleaved callback
  71:../../libDaisy//src/daisy_seed.h ****      */
  72:../../libDaisy//src/daisy_seed.h ****     void ChangeAudioCallback(AudioHandle::InterleavingAudioCallback cb);
  73:../../libDaisy//src/daisy_seed.h **** 
  74:../../libDaisy//src/daisy_seed.h ****     /** Changes to a new multichannel callback
  75:../../libDaisy//src/daisy_seed.h ****      */
  76:../../libDaisy//src/daisy_seed.h ****     void ChangeAudioCallback(AudioHandle::AudioCallback cb);
  77:../../libDaisy//src/daisy_seed.h **** 
  78:../../libDaisy//src/daisy_seed.h ****     /** Stops the audio if it is running. */
  79:../../libDaisy//src/daisy_seed.h ****     void StopAudio();
  80:../../libDaisy//src/daisy_seed.h **** 
  81:../../libDaisy//src/daisy_seed.h ****     /** Updates the Audio Sample Rate, and reinitializes.
  82:../../libDaisy//src/daisy_seed.h ****      ** Audio must be stopped for this to work.
  83:../../libDaisy//src/daisy_seed.h ****      */
  84:../../libDaisy//src/daisy_seed.h ****     void SetAudioSampleRate(SaiHandle::Config::SampleRate samplerate);
  85:../../libDaisy//src/daisy_seed.h **** 
  86:../../libDaisy//src/daisy_seed.h ****     /** Returns the audio sample rate in Hz as a floating point number.
  87:../../libDaisy//src/daisy_seed.h ****      */
  88:../../libDaisy//src/daisy_seed.h ****     float AudioSampleRate();
  89:../../libDaisy//src/daisy_seed.h **** 
  90:../../libDaisy//src/daisy_seed.h ****     /** Sets the number of samples processed per channel by the audio callback.
  91:../../libDaisy//src/daisy_seed.h ****      */
  92:../../libDaisy//src/daisy_seed.h ****     void SetAudioBlockSize(size_t blocksize);
  93:../../libDaisy//src/daisy_seed.h **** 
  94:../../libDaisy//src/daisy_seed.h ****     /** Returns the number of samples per channel in a block of audio. */
  95:../../libDaisy//src/daisy_seed.h ****     size_t AudioBlockSize();
  96:../../libDaisy//src/daisy_seed.h **** 
  97:../../libDaisy//src/daisy_seed.h ****     /** Returns the rate in Hz that the Audio callback is called */
  98:../../libDaisy//src/daisy_seed.h ****     float AudioCallbackRate() const;
  99:../../libDaisy//src/daisy_seed.h **** 
ARM GAS  /var/folders/hl/qgbwny5j0fd895c2c41bk3tw0000gp/T//cckqgw4a.s 			page 158


 100:../../libDaisy//src/daisy_seed.h ****     /** Sets the state of the built in LED
 101:../../libDaisy//src/daisy_seed.h ****      */
 102:../../libDaisy//src/daisy_seed.h ****     void SetLed(bool state);
 103:../../libDaisy//src/daisy_seed.h **** 
 104:../../libDaisy//src/daisy_seed.h ****     /** Sets the state of the test point near pin 10
 105:../../libDaisy//src/daisy_seed.h ****      */
 106:../../libDaisy//src/daisy_seed.h ****     void SetTestPoint(bool state);
 107:../../libDaisy//src/daisy_seed.h **** 
 108:../../libDaisy//src/daisy_seed.h ****     /** Print formatted debug log message
 109:../../libDaisy//src/daisy_seed.h ****      */
 110:../../libDaisy//src/daisy_seed.h ****     template <typename... VA>
 111:../../libDaisy//src/daisy_seed.h ****     static void Print(const char* format, VA... va)
 112:../../libDaisy//src/daisy_seed.h ****     {
 113:../../libDaisy//src/daisy_seed.h ****         Log::Print(format, va...);
 114:../../libDaisy//src/daisy_seed.h ****     }
 115:../../libDaisy//src/daisy_seed.h **** 
 116:../../libDaisy//src/daisy_seed.h ****     /** Print formatted debug log message with automatic line termination
 117:../../libDaisy//src/daisy_seed.h ****     */
 118:../../libDaisy//src/daisy_seed.h ****     template <typename... VA>
 119:../../libDaisy//src/daisy_seed.h ****     static void PrintLine(const char* format, VA... va)
 120:../../libDaisy//src/daisy_seed.h ****     {
 121:../../libDaisy//src/daisy_seed.h ****         Log::PrintLine(format, va...);
 122:../../libDaisy//src/daisy_seed.h ****     }
 123:../../libDaisy//src/daisy_seed.h **** 
 124:../../libDaisy//src/daisy_seed.h ****     /** Start the logging session. Optionally wait for terminal connection before proceeding.
 125:../../libDaisy//src/daisy_seed.h ****     */
 126:../../libDaisy//src/daisy_seed.h ****     static void StartLog(bool wait_for_pc = false)
 6458              		.loc 3 126 17 view .LVU1446
 6459              	.LBB2477:
 127:../../libDaisy//src/daisy_seed.h ****     {
 128:../../libDaisy//src/daisy_seed.h ****         Log::StartLog(wait_for_pc);
 6460              		.loc 3 128 9 view .LVU1447
 6461              		.loc 3 128 22 is_stmt 0 view .LVU1448
 6462 0000 0020     		movs	r0, #0
 6463              	.LBE2477:
 6464              	.LBE2476:
 160:OmniSeed.cpp  **** 	hw.StartLog();
 6465              		.loc 17 160 15 view .LVU1449
 6466 0002 08B5     		push	{r3, lr}
 6467              		.cfi_def_cfa_offset 8
 6468              		.cfi_offset 3, -8
 6469              		.cfi_offset 14, -4
 6470              	.LBB2479:
 6471              	.LBB2478:
 6472              		.loc 3 128 22 view .LVU1450
 6473 0004 FFF7FEFF 		bl	_ZN5daisy6LoggerILNS_17LoggerDestinationE1EE8StartLogEb
 6474              	.LVL332:
 6475              		.loc 3 128 22 view .LVU1451
 6476              	.LBE2478:
 6477              	.LBE2479:
 162:OmniSeed.cpp  **** 	hw.PrintLine("Hello World!");
 6478              		.loc 17 162 2 is_stmt 1 view .LVU1452
 6479              	.LBB2480:
 6480              	.LBI2480:
 119:../../libDaisy//src/daisy_seed.h ****     {
 6481              		.loc 3 119 17 view .LVU1453
 6482              	.LBB2481:
ARM GAS  /var/folders/hl/qgbwny5j0fd895c2c41bk3tw0000gp/T//cckqgw4a.s 			page 159


 121:../../libDaisy//src/daisy_seed.h ****     }
 6483              		.loc 3 121 23 is_stmt 0 view .LVU1454
 6484 0008 0248     		ldr	r0, .L50
 6485              	.LBE2481:
 6486              	.LBE2480:
 163:OmniSeed.cpp  **** }
 6487              		.loc 17 163 1 view .LVU1455
 6488 000a BDE80840 		pop	{r3, lr}
 6489              		.cfi_restore 14
 6490              		.cfi_restore 3
 6491              		.cfi_def_cfa_offset 0
 6492              	.LBB2483:
 6493              	.LBB2482:
 121:../../libDaisy//src/daisy_seed.h ****     }
 6494              		.loc 3 121 23 view .LVU1456
 6495 000e FFF7FEBF 		b	_ZN5daisy6LoggerILNS_17LoggerDestinationE1EE9PrintLineEPKcz
 6496              	.LVL333:
 6497              	.L51:
 6498 0012 00BF     		.align	2
 6499              	.L50:
 6500 0014 00000000 		.word	.LC4
 6501              	.LBE2482:
 6502              	.LBE2483:
 6503              		.cfi_endproc
 6504              	.LFE4821:
 6506              		.section	.rodata._Z6syslogv.str1.4,"aMS",%progbits,1
 6507              		.align	2
 6508              	.LC5:
 6509 0000 50726F63 		.ascii	"Processing Load %:\000"
 6509      65737369 
 6509      6E67204C 
 6509      6F616420 
 6509      253A00
 6510 0013 00       		.align	2
 6511              	.LC6:
 6512 0014 4D61783A 		.ascii	"Max: %c%d.%03d\000"
 6512      20256325 
 6512      642E2530 
 6512      336400
 6513 0023 00       		.align	2
 6514              	.LC7:
 6515 0024 4176673A 		.ascii	"Avg: %c%d.%03d\000"
 6515      20256325 
 6515      642E2530 
 6515      336400
 6516 0033 00       		.align	2
 6517              	.LC8:
 6518 0034 4D696E3A 		.ascii	"Min: %c%d.%03d\000"
 6518      20256325 
 6518      642E2530 
 6518      336400
 6519              		.section	.text._Z6syslogv,"ax",%progbits
 6520              		.align	1
 6521              		.p2align 2,,3
 6522              		.global	_Z6syslogv
 6523              		.syntax unified
 6524              		.thumb
ARM GAS  /var/folders/hl/qgbwny5j0fd895c2c41bk3tw0000gp/T//cckqgw4a.s 			page 160


 6525              		.thumb_func
 6526              		.fpu fpv5-d16
 6528              	_Z6syslogv:
 6529              	.LFB4822:
 164:OmniSeed.cpp  **** 
 165:OmniSeed.cpp  **** void syslog(){
 6530              		.loc 17 165 14 is_stmt 1 view -0
 6531              		.cfi_startproc
 6532              		@ args = 0, pretend = 0, frame = 0
 6533              		@ frame_needed = 0, uses_anonymous_args = 0
 166:OmniSeed.cpp  **** 	// testing cpuloads
 167:OmniSeed.cpp  **** 	// get the current load (smoothed value and peak values)
 168:OmniSeed.cpp  **** 	const float avgLoad = loadMeter.GetAvgCpuLoad();
 6534              		.loc 17 168 2 view .LVU1458
 6535              	.LVL334:
 6536              	.LBB2484:
 6537              	.LBI2484:
 6538              		.file 18 "../../libDaisy//src/util/CpuLoadMeter.h"
   1:../../libDaisy//src/util/CpuLoadMeter.h **** #pragma once
   2:../../libDaisy//src/util/CpuLoadMeter.h **** 
   3:../../libDaisy//src/util/CpuLoadMeter.h **** #include "sys/system.h"
   4:../../libDaisy//src/util/CpuLoadMeter.h **** #include <cmath>
   5:../../libDaisy//src/util/CpuLoadMeter.h **** 
   6:../../libDaisy//src/util/CpuLoadMeter.h **** namespace daisy
   7:../../libDaisy//src/util/CpuLoadMeter.h **** {
   8:../../libDaisy//src/util/CpuLoadMeter.h **** /** @brief CPU load metering
   9:../../libDaisy//src/util/CpuLoadMeter.h ****  *  @author jelliesen
  10:../../libDaisy//src/util/CpuLoadMeter.h ****  *  @addtogroup utility
  11:../../libDaisy//src/util/CpuLoadMeter.h ****  * 
  12:../../libDaisy//src/util/CpuLoadMeter.h ****  *  To measure the CPU load of your audio processing, create a CpuLoadMeter
  13:../../libDaisy//src/util/CpuLoadMeter.h ****  *  and initialize it with your block size and sample rate.
  14:../../libDaisy//src/util/CpuLoadMeter.h ****  *  Then at the beginning of the audio callback, call `OnBlockStart()`, 
  15:../../libDaisy//src/util/CpuLoadMeter.h ****  *  and at the end of the audio callback, call `OnBlockEnd()`.
  16:../../libDaisy//src/util/CpuLoadMeter.h ****  *  You can then read out the minimum, maximum and average CPU load.
  17:../../libDaisy//src/util/CpuLoadMeter.h ****  */
  18:../../libDaisy//src/util/CpuLoadMeter.h **** class CpuLoadMeter
  19:../../libDaisy//src/util/CpuLoadMeter.h **** {
  20:../../libDaisy//src/util/CpuLoadMeter.h ****   public:
  21:../../libDaisy//src/util/CpuLoadMeter.h ****     CpuLoadMeter(){};
  22:../../libDaisy//src/util/CpuLoadMeter.h **** 
  23:../../libDaisy//src/util/CpuLoadMeter.h ****     /** Initializes the CpuLoadMeter for a particular sample rate and block size.
  24:../../libDaisy//src/util/CpuLoadMeter.h ****      *  @param sampleRateInHz           The sample rate in Hz
  25:../../libDaisy//src/util/CpuLoadMeter.h ****      *  @param blockSizeInSamples       The block size in samples
  26:../../libDaisy//src/util/CpuLoadMeter.h ****      *  @param smoothingFilterCutoffHz  The cutoff frequency of the smoothing filter that's used to
  27:../../libDaisy//src/util/CpuLoadMeter.h ****      *                                  create the average CPU load reading.
  28:../../libDaisy//src/util/CpuLoadMeter.h ****      */
  29:../../libDaisy//src/util/CpuLoadMeter.h ****     void Init(float sampleRateInHz,
  30:../../libDaisy//src/util/CpuLoadMeter.h ****               int   blockSizeInSamples,
  31:../../libDaisy//src/util/CpuLoadMeter.h ****               float smoothingFilterCutoffHz = 1.0f)
  32:../../libDaisy//src/util/CpuLoadMeter.h ****     {
  33:../../libDaisy//src/util/CpuLoadMeter.h ****         const auto secPerBlock = float(blockSizeInSamples) / sampleRateInHz;
  34:../../libDaisy//src/util/CpuLoadMeter.h ****         const auto ticksPerS   = float(System::GetTickFreq());
  35:../../libDaisy//src/util/CpuLoadMeter.h ****         ticksPerBlockInv_      = 1.0f / (ticksPerS * secPerBlock);
  36:../../libDaisy//src/util/CpuLoadMeter.h **** 
  37:../../libDaisy//src/util/CpuLoadMeter.h ****         // update filter coefficient for smoothing filter (1pole lowpass)
  38:../../libDaisy//src/util/CpuLoadMeter.h ****         const auto blockRateInHz = sampleRateInHz / float(blockSizeInSamples);
  39:../../libDaisy//src/util/CpuLoadMeter.h ****         const auto cutoffNormalized
ARM GAS  /var/folders/hl/qgbwny5j0fd895c2c41bk3tw0000gp/T//cckqgw4a.s 			page 161


  40:../../libDaisy//src/util/CpuLoadMeter.h ****             = smoothingFilterCutoffHz * 2.0f * 3.141592653f / blockRateInHz;
  41:../../libDaisy//src/util/CpuLoadMeter.h ****         // according to
  42:../../libDaisy//src/util/CpuLoadMeter.h ****         // https://en.wikipedia.org/wiki/Low-pass_filter#Simple_infinite_impulse_response_filter
  43:../../libDaisy//src/util/CpuLoadMeter.h ****         smoothingConstant_ = cutoffNormalized / (cutoffNormalized + 1.0f);
  44:../../libDaisy//src/util/CpuLoadMeter.h **** 
  45:../../libDaisy//src/util/CpuLoadMeter.h ****         Reset();
  46:../../libDaisy//src/util/CpuLoadMeter.h ****     }
  47:../../libDaisy//src/util/CpuLoadMeter.h **** 
  48:../../libDaisy//src/util/CpuLoadMeter.h ****     /** Call this at the beginning of your audio callback */
  49:../../libDaisy//src/util/CpuLoadMeter.h ****     void OnBlockStart() { currentBlockStartTicks_ = System::GetTick(); }
  50:../../libDaisy//src/util/CpuLoadMeter.h **** 
  51:../../libDaisy//src/util/CpuLoadMeter.h ****     /** Call this at the end of your audio callback */
  52:../../libDaisy//src/util/CpuLoadMeter.h ****     void OnBlockEnd()
  53:../../libDaisy//src/util/CpuLoadMeter.h ****     {
  54:../../libDaisy//src/util/CpuLoadMeter.h ****         const auto end         = System::GetTick();
  55:../../libDaisy//src/util/CpuLoadMeter.h ****         const auto ticksPassed = end - currentBlockStartTicks_;
  56:../../libDaisy//src/util/CpuLoadMeter.h ****         const auto currentBlockLoad
  57:../../libDaisy//src/util/CpuLoadMeter.h ****             = float(ticksPassed) * ticksPerBlockInv_; // usPassed / usPerBlock
  58:../../libDaisy//src/util/CpuLoadMeter.h **** 
  59:../../libDaisy//src/util/CpuLoadMeter.h ****         if(firstCycle_)
  60:../../libDaisy//src/util/CpuLoadMeter.h ****         {
  61:../../libDaisy//src/util/CpuLoadMeter.h ****             max_ = min_ = avg_ = currentBlockLoad;
  62:../../libDaisy//src/util/CpuLoadMeter.h ****             firstCycle_        = false;
  63:../../libDaisy//src/util/CpuLoadMeter.h ****         }
  64:../../libDaisy//src/util/CpuLoadMeter.h ****         else
  65:../../libDaisy//src/util/CpuLoadMeter.h ****         {
  66:../../libDaisy//src/util/CpuLoadMeter.h ****             if(currentBlockLoad > max_)
  67:../../libDaisy//src/util/CpuLoadMeter.h ****                 max_ = currentBlockLoad;
  68:../../libDaisy//src/util/CpuLoadMeter.h ****             if(currentBlockLoad < min_)
  69:../../libDaisy//src/util/CpuLoadMeter.h ****                 min_ = currentBlockLoad;
  70:../../libDaisy//src/util/CpuLoadMeter.h **** 
  71:../../libDaisy//src/util/CpuLoadMeter.h ****             avg_ = smoothingConstant_ * currentBlockLoad
  72:../../libDaisy//src/util/CpuLoadMeter.h ****                    + (1.0f - smoothingConstant_) * avg_;
  73:../../libDaisy//src/util/CpuLoadMeter.h ****         }
  74:../../libDaisy//src/util/CpuLoadMeter.h ****     }
  75:../../libDaisy//src/util/CpuLoadMeter.h **** 
  76:../../libDaisy//src/util/CpuLoadMeter.h ****     /** Returns the smoothed average CPU load in the range 0..1 */
  77:../../libDaisy//src/util/CpuLoadMeter.h ****     float GetAvgCpuLoad() const { return avg_; }
 6539              		.loc 18 77 11 view .LVU1459
 6540              	.LBB2485:
 6541              		.loc 18 77 35 view .LVU1460
 6542              		.loc 18 77 42 is_stmt 0 view .LVU1461
 6543 0000 3B4B     		ldr	r3, .L60+8
 6544              	.LBE2485:
 6545              	.LBE2484:
 6546              	.LBB2487:
 6547              	.LBB2488:
 121:../../libDaisy//src/daisy_seed.h ****     }
 6548              		.loc 3 121 23 view .LVU1462
 6549 0002 3C48     		ldr	r0, .L60+12
 6550              	.LBE2488:
 6551              	.LBE2487:
 165:OmniSeed.cpp  **** 	// testing cpuloads
 6552              		.loc 17 165 14 view .LVU1463
 6553 0004 10B5     		push	{r4, lr}
 6554              		.cfi_def_cfa_offset 8
 6555              		.cfi_offset 4, -8
ARM GAS  /var/folders/hl/qgbwny5j0fd895c2c41bk3tw0000gp/T//cckqgw4a.s 			page 162


 6556              		.cfi_offset 14, -4
 6557 0006 2DED068B 		vpush.64	{d8, d9, d10}
 6558              		.cfi_def_cfa_offset 32
 6559              		.cfi_offset 80, -32
 6560              		.cfi_offset 81, -28
 6561              		.cfi_offset 82, -24
 6562              		.cfi_offset 83, -20
 6563              		.cfi_offset 84, -16
 6564              		.cfi_offset 85, -12
 169:OmniSeed.cpp  **** 	const float maxLoad = loadMeter.GetMaxCpuLoad();
 170:OmniSeed.cpp  **** 	const float minLoad = loadMeter.GetMinCpuLoad();
 171:OmniSeed.cpp  **** 	// print it to the serial connection (as percentages)
 172:OmniSeed.cpp  **** 	hw.PrintLine("Processing Load %:");
 173:OmniSeed.cpp  **** 	hw.PrintLine("Max: " FLT_FMT3, FLT_VAR3(maxLoad * 100.0f));
 6565              		.loc 17 173 33 view .LVU1464
 6566 000a DFED3B9A 		vldr.32	s19, .L60+16
 6567              	.LBB2490:
 6568              	.LBB2491:
  78:../../libDaisy//src/util/CpuLoadMeter.h ****     /** Returns the minimun CPU load observed since the last call to Reset(). */
  79:../../libDaisy//src/util/CpuLoadMeter.h ****     float GetMinCpuLoad() const { return min_; }
  80:../../libDaisy//src/util/CpuLoadMeter.h ****     /** Returns the maximum CPU load observed since the last call to Reset(). */
  81:../../libDaisy//src/util/CpuLoadMeter.h ****     float GetMaxCpuLoad() const { return max_; }
 6569              		.loc 18 81 42 view .LVU1465
 6570 000e D3ED04AA 		vldr.32	s21, [r3, #16]
 6571              	.LBE2491:
 6572              	.LBE2490:
 6573              	.LBB2493:
 6574              	.LBB2486:
  77:../../libDaisy//src/util/CpuLoadMeter.h ****     /** Returns the minimun CPU load observed since the last call to Reset(). */
 6575              		.loc 18 77 42 view .LVU1466
 6576 0012 93ED05AA 		vldr.32	s20, [r3, #20]
 6577              	.LVL335:
  77:../../libDaisy//src/util/CpuLoadMeter.h ****     /** Returns the minimun CPU load observed since the last call to Reset(). */
 6578              		.loc 18 77 42 view .LVU1467
 6579              	.LBE2486:
 6580              	.LBE2493:
 169:OmniSeed.cpp  **** 	const float maxLoad = loadMeter.GetMaxCpuLoad();
 6581              		.loc 17 169 2 is_stmt 1 view .LVU1468
 6582              	.LBB2494:
 6583              	.LBI2490:
 6584              		.loc 18 81 11 view .LVU1469
 6585              	.LBB2492:
 6586              		.loc 18 81 35 view .LVU1470
 6587              		.loc 18 81 35 is_stmt 0 view .LVU1471
 6588              	.LBE2492:
 6589              	.LBE2494:
 170:OmniSeed.cpp  **** 	// print it to the serial connection (as percentages)
 6590              		.loc 17 170 2 is_stmt 1 view .LVU1472
 6591              	.LBB2495:
 6592              	.LBI2495:
  79:../../libDaisy//src/util/CpuLoadMeter.h ****     /** Returns the maximum CPU load observed since the last call to Reset(). */
 6593              		.loc 18 79 11 view .LVU1473
 6594              	.LBB2496:
  79:../../libDaisy//src/util/CpuLoadMeter.h ****     /** Returns the maximum CPU load observed since the last call to Reset(). */
 6595              		.loc 18 79 35 view .LVU1474
  79:../../libDaisy//src/util/CpuLoadMeter.h ****     /** Returns the maximum CPU load observed since the last call to Reset(). */
 6596              		.loc 18 79 42 is_stmt 0 view .LVU1475
ARM GAS  /var/folders/hl/qgbwny5j0fd895c2c41bk3tw0000gp/T//cckqgw4a.s 			page 163


 6597 0016 93ED039A 		vldr.32	s18, [r3, #12]
 6598              	.LVL336:
  79:../../libDaisy//src/util/CpuLoadMeter.h ****     /** Returns the maximum CPU load observed since the last call to Reset(). */
 6599              		.loc 18 79 42 view .LVU1476
 6600              	.LBE2496:
 6601              	.LBE2495:
 172:OmniSeed.cpp  **** 	hw.PrintLine("Max: " FLT_FMT3, FLT_VAR3(maxLoad * 100.0f));
 6602              		.loc 17 172 2 is_stmt 1 view .LVU1477
 6603              	.LBB2497:
 6604              	.LBI2487:
 119:../../libDaisy//src/daisy_seed.h ****     {
 6605              		.loc 3 119 17 view .LVU1478
 6606              	.LBB2489:
 121:../../libDaisy//src/daisy_seed.h ****     }
 6607              		.loc 3 121 23 is_stmt 0 view .LVU1479
 6608 001a FFF7FEFF 		bl	_ZN5daisy6LoggerILNS_17LoggerDestinationE1EE9PrintLineEPKcz
 6609              	.LVL337:
 121:../../libDaisy//src/daisy_seed.h ****     }
 6610              		.loc 3 121 23 view .LVU1480
 6611              	.LBE2489:
 6612              	.LBE2497:
 6613              		.loc 17 173 2 is_stmt 1 view .LVU1481
 6614              	.LBB2498:
 6615              	.LBI2498:
 6616              		.file 19 "/opt/homebrew/Cellar/arm-none-eabi-gcc/10.3-2021.07/gcc/arm-none-eabi/include/c++/10.3.1
   1:/opt/homebrew/Cellar/arm-none-eabi-gcc/10.3-2021.07/gcc/arm-none-eabi/include/c++/10.3.1/bits/std_abs.h **** // -*- C++ -*- C library enhancements header.
   2:/opt/homebrew/Cellar/arm-none-eabi-gcc/10.3-2021.07/gcc/arm-none-eabi/include/c++/10.3.1/bits/std_abs.h **** 
   3:/opt/homebrew/Cellar/arm-none-eabi-gcc/10.3-2021.07/gcc/arm-none-eabi/include/c++/10.3.1/bits/std_abs.h **** // Copyright (C) 2016-2020 Free Software Foundation, Inc.
   4:/opt/homebrew/Cellar/arm-none-eabi-gcc/10.3-2021.07/gcc/arm-none-eabi/include/c++/10.3.1/bits/std_abs.h **** //
   5:/opt/homebrew/Cellar/arm-none-eabi-gcc/10.3-2021.07/gcc/arm-none-eabi/include/c++/10.3.1/bits/std_abs.h **** // This file is part of the GNU ISO C++ Library.  This library is free
   6:/opt/homebrew/Cellar/arm-none-eabi-gcc/10.3-2021.07/gcc/arm-none-eabi/include/c++/10.3.1/bits/std_abs.h **** // software; you can redistribute it and/or modify it under the
   7:/opt/homebrew/Cellar/arm-none-eabi-gcc/10.3-2021.07/gcc/arm-none-eabi/include/c++/10.3.1/bits/std_abs.h **** // terms of the GNU General Public License as published by the
   8:/opt/homebrew/Cellar/arm-none-eabi-gcc/10.3-2021.07/gcc/arm-none-eabi/include/c++/10.3.1/bits/std_abs.h **** // Free Software Foundation; either version 3, or (at your option)
   9:/opt/homebrew/Cellar/arm-none-eabi-gcc/10.3-2021.07/gcc/arm-none-eabi/include/c++/10.3.1/bits/std_abs.h **** // any later version.
  10:/opt/homebrew/Cellar/arm-none-eabi-gcc/10.3-2021.07/gcc/arm-none-eabi/include/c++/10.3.1/bits/std_abs.h **** 
  11:/opt/homebrew/Cellar/arm-none-eabi-gcc/10.3-2021.07/gcc/arm-none-eabi/include/c++/10.3.1/bits/std_abs.h **** // This library is distributed in the hope that it will be useful,
  12:/opt/homebrew/Cellar/arm-none-eabi-gcc/10.3-2021.07/gcc/arm-none-eabi/include/c++/10.3.1/bits/std_abs.h **** // but WITHOUT ANY WARRANTY; without even the implied warranty of
  13:/opt/homebrew/Cellar/arm-none-eabi-gcc/10.3-2021.07/gcc/arm-none-eabi/include/c++/10.3.1/bits/std_abs.h **** // MERCHANTABILITY or FITNESS FOR A PARTICULAR PURPOSE.  See the
  14:/opt/homebrew/Cellar/arm-none-eabi-gcc/10.3-2021.07/gcc/arm-none-eabi/include/c++/10.3.1/bits/std_abs.h **** // GNU General Public License for more details.
  15:/opt/homebrew/Cellar/arm-none-eabi-gcc/10.3-2021.07/gcc/arm-none-eabi/include/c++/10.3.1/bits/std_abs.h **** 
  16:/opt/homebrew/Cellar/arm-none-eabi-gcc/10.3-2021.07/gcc/arm-none-eabi/include/c++/10.3.1/bits/std_abs.h **** // Under Section 7 of GPL version 3, you are granted additional
  17:/opt/homebrew/Cellar/arm-none-eabi-gcc/10.3-2021.07/gcc/arm-none-eabi/include/c++/10.3.1/bits/std_abs.h **** // permissions described in the GCC Runtime Library Exception, version
  18:/opt/homebrew/Cellar/arm-none-eabi-gcc/10.3-2021.07/gcc/arm-none-eabi/include/c++/10.3.1/bits/std_abs.h **** // 3.1, as published by the Free Software Foundation.
  19:/opt/homebrew/Cellar/arm-none-eabi-gcc/10.3-2021.07/gcc/arm-none-eabi/include/c++/10.3.1/bits/std_abs.h **** 
  20:/opt/homebrew/Cellar/arm-none-eabi-gcc/10.3-2021.07/gcc/arm-none-eabi/include/c++/10.3.1/bits/std_abs.h **** // You should have received a copy of the GNU General Public License and
  21:/opt/homebrew/Cellar/arm-none-eabi-gcc/10.3-2021.07/gcc/arm-none-eabi/include/c++/10.3.1/bits/std_abs.h **** // a copy of the GCC Runtime Library Exception along with this program;
  22:/opt/homebrew/Cellar/arm-none-eabi-gcc/10.3-2021.07/gcc/arm-none-eabi/include/c++/10.3.1/bits/std_abs.h **** // see the files COPYING3 and COPYING.RUNTIME respectively.  If not, see
  23:/opt/homebrew/Cellar/arm-none-eabi-gcc/10.3-2021.07/gcc/arm-none-eabi/include/c++/10.3.1/bits/std_abs.h **** // <http://www.gnu.org/licenses/>.
  24:/opt/homebrew/Cellar/arm-none-eabi-gcc/10.3-2021.07/gcc/arm-none-eabi/include/c++/10.3.1/bits/std_abs.h **** 
  25:/opt/homebrew/Cellar/arm-none-eabi-gcc/10.3-2021.07/gcc/arm-none-eabi/include/c++/10.3.1/bits/std_abs.h **** /** @file include/bits/std_abs.h
  26:/opt/homebrew/Cellar/arm-none-eabi-gcc/10.3-2021.07/gcc/arm-none-eabi/include/c++/10.3.1/bits/std_abs.h ****  *  This is an internal header file, included by other library headers.
  27:/opt/homebrew/Cellar/arm-none-eabi-gcc/10.3-2021.07/gcc/arm-none-eabi/include/c++/10.3.1/bits/std_abs.h ****  *  Do not attempt to use it directly. @headername{cmath, cstdlib}
  28:/opt/homebrew/Cellar/arm-none-eabi-gcc/10.3-2021.07/gcc/arm-none-eabi/include/c++/10.3.1/bits/std_abs.h ****  */
  29:/opt/homebrew/Cellar/arm-none-eabi-gcc/10.3-2021.07/gcc/arm-none-eabi/include/c++/10.3.1/bits/std_abs.h **** 
  30:/opt/homebrew/Cellar/arm-none-eabi-gcc/10.3-2021.07/gcc/arm-none-eabi/include/c++/10.3.1/bits/std_abs.h **** #ifndef _GLIBCXX_BITS_STD_ABS_H
  31:/opt/homebrew/Cellar/arm-none-eabi-gcc/10.3-2021.07/gcc/arm-none-eabi/include/c++/10.3.1/bits/std_abs.h **** #define _GLIBCXX_BITS_STD_ABS_H
  32:/opt/homebrew/Cellar/arm-none-eabi-gcc/10.3-2021.07/gcc/arm-none-eabi/include/c++/10.3.1/bits/std_abs.h **** 
ARM GAS  /var/folders/hl/qgbwny5j0fd895c2c41bk3tw0000gp/T//cckqgw4a.s 			page 164


  33:/opt/homebrew/Cellar/arm-none-eabi-gcc/10.3-2021.07/gcc/arm-none-eabi/include/c++/10.3.1/bits/std_abs.h **** #pragma GCC system_header
  34:/opt/homebrew/Cellar/arm-none-eabi-gcc/10.3-2021.07/gcc/arm-none-eabi/include/c++/10.3.1/bits/std_abs.h **** 
  35:/opt/homebrew/Cellar/arm-none-eabi-gcc/10.3-2021.07/gcc/arm-none-eabi/include/c++/10.3.1/bits/std_abs.h **** #include <bits/c++config.h>
  36:/opt/homebrew/Cellar/arm-none-eabi-gcc/10.3-2021.07/gcc/arm-none-eabi/include/c++/10.3.1/bits/std_abs.h **** 
  37:/opt/homebrew/Cellar/arm-none-eabi-gcc/10.3-2021.07/gcc/arm-none-eabi/include/c++/10.3.1/bits/std_abs.h **** #define _GLIBCXX_INCLUDE_NEXT_C_HEADERS
  38:/opt/homebrew/Cellar/arm-none-eabi-gcc/10.3-2021.07/gcc/arm-none-eabi/include/c++/10.3.1/bits/std_abs.h **** #include_next <stdlib.h>
  39:/opt/homebrew/Cellar/arm-none-eabi-gcc/10.3-2021.07/gcc/arm-none-eabi/include/c++/10.3.1/bits/std_abs.h **** #ifdef __CORRECT_ISO_CPP_MATH_H_PROTO
  40:/opt/homebrew/Cellar/arm-none-eabi-gcc/10.3-2021.07/gcc/arm-none-eabi/include/c++/10.3.1/bits/std_abs.h **** # include_next <math.h>
  41:/opt/homebrew/Cellar/arm-none-eabi-gcc/10.3-2021.07/gcc/arm-none-eabi/include/c++/10.3.1/bits/std_abs.h **** #endif
  42:/opt/homebrew/Cellar/arm-none-eabi-gcc/10.3-2021.07/gcc/arm-none-eabi/include/c++/10.3.1/bits/std_abs.h **** #undef _GLIBCXX_INCLUDE_NEXT_C_HEADERS
  43:/opt/homebrew/Cellar/arm-none-eabi-gcc/10.3-2021.07/gcc/arm-none-eabi/include/c++/10.3.1/bits/std_abs.h **** 
  44:/opt/homebrew/Cellar/arm-none-eabi-gcc/10.3-2021.07/gcc/arm-none-eabi/include/c++/10.3.1/bits/std_abs.h **** #undef abs
  45:/opt/homebrew/Cellar/arm-none-eabi-gcc/10.3-2021.07/gcc/arm-none-eabi/include/c++/10.3.1/bits/std_abs.h **** 
  46:/opt/homebrew/Cellar/arm-none-eabi-gcc/10.3-2021.07/gcc/arm-none-eabi/include/c++/10.3.1/bits/std_abs.h **** extern "C++"
  47:/opt/homebrew/Cellar/arm-none-eabi-gcc/10.3-2021.07/gcc/arm-none-eabi/include/c++/10.3.1/bits/std_abs.h **** {
  48:/opt/homebrew/Cellar/arm-none-eabi-gcc/10.3-2021.07/gcc/arm-none-eabi/include/c++/10.3.1/bits/std_abs.h **** namespace std _GLIBCXX_VISIBILITY(default)
  49:/opt/homebrew/Cellar/arm-none-eabi-gcc/10.3-2021.07/gcc/arm-none-eabi/include/c++/10.3.1/bits/std_abs.h **** {
  50:/opt/homebrew/Cellar/arm-none-eabi-gcc/10.3-2021.07/gcc/arm-none-eabi/include/c++/10.3.1/bits/std_abs.h **** _GLIBCXX_BEGIN_NAMESPACE_VERSION
  51:/opt/homebrew/Cellar/arm-none-eabi-gcc/10.3-2021.07/gcc/arm-none-eabi/include/c++/10.3.1/bits/std_abs.h **** 
  52:/opt/homebrew/Cellar/arm-none-eabi-gcc/10.3-2021.07/gcc/arm-none-eabi/include/c++/10.3.1/bits/std_abs.h ****   using ::abs;
  53:/opt/homebrew/Cellar/arm-none-eabi-gcc/10.3-2021.07/gcc/arm-none-eabi/include/c++/10.3.1/bits/std_abs.h **** 
  54:/opt/homebrew/Cellar/arm-none-eabi-gcc/10.3-2021.07/gcc/arm-none-eabi/include/c++/10.3.1/bits/std_abs.h **** #ifndef __CORRECT_ISO_CPP_STDLIB_H_PROTO
  55:/opt/homebrew/Cellar/arm-none-eabi-gcc/10.3-2021.07/gcc/arm-none-eabi/include/c++/10.3.1/bits/std_abs.h ****   inline long
  56:/opt/homebrew/Cellar/arm-none-eabi-gcc/10.3-2021.07/gcc/arm-none-eabi/include/c++/10.3.1/bits/std_abs.h ****   abs(long __i) { return __builtin_labs(__i); }
  57:/opt/homebrew/Cellar/arm-none-eabi-gcc/10.3-2021.07/gcc/arm-none-eabi/include/c++/10.3.1/bits/std_abs.h **** #endif
  58:/opt/homebrew/Cellar/arm-none-eabi-gcc/10.3-2021.07/gcc/arm-none-eabi/include/c++/10.3.1/bits/std_abs.h **** 
  59:/opt/homebrew/Cellar/arm-none-eabi-gcc/10.3-2021.07/gcc/arm-none-eabi/include/c++/10.3.1/bits/std_abs.h **** #ifdef _GLIBCXX_USE_LONG_LONG
  60:/opt/homebrew/Cellar/arm-none-eabi-gcc/10.3-2021.07/gcc/arm-none-eabi/include/c++/10.3.1/bits/std_abs.h ****   inline long long
  61:/opt/homebrew/Cellar/arm-none-eabi-gcc/10.3-2021.07/gcc/arm-none-eabi/include/c++/10.3.1/bits/std_abs.h ****   abs(long long __x) { return __builtin_llabs (__x); }
  62:/opt/homebrew/Cellar/arm-none-eabi-gcc/10.3-2021.07/gcc/arm-none-eabi/include/c++/10.3.1/bits/std_abs.h **** #endif
  63:/opt/homebrew/Cellar/arm-none-eabi-gcc/10.3-2021.07/gcc/arm-none-eabi/include/c++/10.3.1/bits/std_abs.h **** 
  64:/opt/homebrew/Cellar/arm-none-eabi-gcc/10.3-2021.07/gcc/arm-none-eabi/include/c++/10.3.1/bits/std_abs.h **** // _GLIBCXX_RESOLVE_LIB_DEFECTS
  65:/opt/homebrew/Cellar/arm-none-eabi-gcc/10.3-2021.07/gcc/arm-none-eabi/include/c++/10.3.1/bits/std_abs.h **** // 2192. Validity and return type of std::abs(0u) is unclear
  66:/opt/homebrew/Cellar/arm-none-eabi-gcc/10.3-2021.07/gcc/arm-none-eabi/include/c++/10.3.1/bits/std_abs.h **** // 2294. <cstdlib> should declare abs(double)
  67:/opt/homebrew/Cellar/arm-none-eabi-gcc/10.3-2021.07/gcc/arm-none-eabi/include/c++/10.3.1/bits/std_abs.h **** // 2735. std::abs(short), std::abs(signed char) and others should return int
  68:/opt/homebrew/Cellar/arm-none-eabi-gcc/10.3-2021.07/gcc/arm-none-eabi/include/c++/10.3.1/bits/std_abs.h **** 
  69:/opt/homebrew/Cellar/arm-none-eabi-gcc/10.3-2021.07/gcc/arm-none-eabi/include/c++/10.3.1/bits/std_abs.h **** #ifndef __CORRECT_ISO_CPP_MATH_H_PROTO
  70:/opt/homebrew/Cellar/arm-none-eabi-gcc/10.3-2021.07/gcc/arm-none-eabi/include/c++/10.3.1/bits/std_abs.h ****   inline _GLIBCXX_CONSTEXPR double
  71:/opt/homebrew/Cellar/arm-none-eabi-gcc/10.3-2021.07/gcc/arm-none-eabi/include/c++/10.3.1/bits/std_abs.h ****   abs(double __x)
  72:/opt/homebrew/Cellar/arm-none-eabi-gcc/10.3-2021.07/gcc/arm-none-eabi/include/c++/10.3.1/bits/std_abs.h ****   { return __builtin_fabs(__x); }
  73:/opt/homebrew/Cellar/arm-none-eabi-gcc/10.3-2021.07/gcc/arm-none-eabi/include/c++/10.3.1/bits/std_abs.h **** 
  74:/opt/homebrew/Cellar/arm-none-eabi-gcc/10.3-2021.07/gcc/arm-none-eabi/include/c++/10.3.1/bits/std_abs.h ****   inline _GLIBCXX_CONSTEXPR float
  75:/opt/homebrew/Cellar/arm-none-eabi-gcc/10.3-2021.07/gcc/arm-none-eabi/include/c++/10.3.1/bits/std_abs.h ****   abs(float __x)
 6617              		.loc 19 75 3 view .LVU1482
 6618              	.LBB2499:
  76:/opt/homebrew/Cellar/arm-none-eabi-gcc/10.3-2021.07/gcc/arm-none-eabi/include/c++/10.3.1/bits/std_abs.h ****   { return __builtin_fabsf(__x); }
 6619              		.loc 19 76 5 view .LVU1483
 6620              	.LBE2499:
 6621              	.LBE2498:
 6622              		.loc 17 173 33 is_stmt 0 view .LVU1484
 6623 001e 6AEEA97A 		vmul.f32	s15, s21, s19
 6624              	.LVL338:
 6625              		.loc 17 173 14 view .LVU1485
 6626 0022 DFED36AA 		vldr.32	s21, .L60+20
 6627              	.LVL339:
 6628              	.LBB2501:
 6629              	.LBB2502:
ARM GAS  /var/folders/hl/qgbwny5j0fd895c2c41bk3tw0000gp/T//cckqgw4a.s 			page 165


 121:../../libDaisy//src/daisy_seed.h ****     }
 6630              		.loc 3 121 23 view .LVU1486
 6631 0026 3648     		ldr	r0, .L60+24
 6632              	.LBE2502:
 6633              	.LBE2501:
 6634              	.LBB2505:
 6635              	.LBB2500:
 6636              		.loc 19 76 31 view .LVU1487
 6637 0028 B0EEE77A 		vabs.f32	s14, s15
 6638              	.LVL340:
 6639              		.loc 19 76 31 view .LVU1488
 6640              	.LBE2500:
 6641              	.LBE2505:
 6642              		.loc 17 173 14 view .LVU1489
 6643 002c F4EEEA7A 		vcmpe.f32	s15, s21
 6644 0030 FDEEC77A 		vcvt.s32.f32	s15, s14
 6645              	.LVL341:
 6646              		.loc 19 76 5 is_stmt 1 view .LVU1490
 6647              		.loc 19 76 5 view .LVU1491
 6648              	.LBB2506:
 6649              	.LBI2501:
 119:../../libDaisy//src/daisy_seed.h ****     {
 6650              		.loc 3 119 17 view .LVU1492
 6651              	.LBE2506:
 6652              		.loc 17 173 14 is_stmt 0 view .LVU1493
 6653 0034 F1EE10FA 		vmrs	APSR_nzcv, FPSCR
 6654              		.loc 17 173 33 view .LVU1494
 6655 0038 F8EEE76A 		vcvt.f32.s32	s13, s15
 6656              	.LVL342:
 6657              	.LBB2507:
 6658              	.LBB2503:
 121:../../libDaisy//src/daisy_seed.h ****     }
 6659              		.loc 3 121 23 view .LVU1495
 6660 003c 17EE902A 		vmov	r2, s15	@ int
 6661 0040 4CBF     		ite	mi
 6662 0042 2D21     		movmi	r1, #45
 6663 0044 2021     		movpl	r1, #32
 6664              	.LBE2503:
 6665              	.LBE2507:
 6666              		.loc 17 173 33 view .LVU1496
 6667 0046 37EE667A 		vsub.f32	s14, s14, s13
 6668              	.LVL343:
 6669              		.loc 17 173 33 view .LVU1497
 6670 004a 9FED278B 		vldr.64	d8, .L60
 6671 004e B7EEC77A 		vcvt.f64.f32	d7, s14
 6672 0052 27EE087B 		vmul.f64	d7, d7, d8
 6673              	.LBB2508:
 6674              	.LBB2504:
 121:../../libDaisy//src/daisy_seed.h ****     }
 6675              		.loc 3 121 23 view .LVU1498
 6676 0056 FDEEC77B 		vcvt.s32.f64	s15, d7
 6677              	.LVL344:
 121:../../libDaisy//src/daisy_seed.h ****     }
 6678              		.loc 3 121 23 view .LVU1499
 6679 005a 17EE903A 		vmov	r3, s15	@ int
 6680 005e FFF7FEFF 		bl	_ZN5daisy6LoggerILNS_17LoggerDestinationE1EE9PrintLineEPKcz
 6681              	.LVL345:
ARM GAS  /var/folders/hl/qgbwny5j0fd895c2c41bk3tw0000gp/T//cckqgw4a.s 			page 166


 121:../../libDaisy//src/daisy_seed.h ****     }
 6682              		.loc 3 121 23 view .LVU1500
 6683              	.LBE2504:
 6684              	.LBE2508:
 174:OmniSeed.cpp  **** 	hw.PrintLine("Avg: " FLT_FMT3, FLT_VAR3(avgLoad * 100.0f));
 6685              		.loc 17 174 2 is_stmt 1 view .LVU1501
 6686              	.LBB2509:
 6687              	.LBI2509:
  75:/opt/homebrew/Cellar/arm-none-eabi-gcc/10.3-2021.07/gcc/arm-none-eabi/include/c++/10.3.1/bits/std_abs.h ****   { return __builtin_fabsf(__x); }
 6688              		.loc 19 75 3 view .LVU1502
 6689              	.LBB2510:
 6690              		.loc 19 76 5 view .LVU1503
 6691              	.LBE2510:
 6692              	.LBE2509:
 6693              		.loc 17 174 33 is_stmt 0 view .LVU1504
 6694 0062 6AEE297A 		vmul.f32	s15, s20, s19
 6695              	.LVL346:
 6696              	.LBB2512:
 6697              	.LBB2513:
 121:../../libDaisy//src/daisy_seed.h ****     }
 6698              		.loc 3 121 23 view .LVU1505
 6699 0066 2748     		ldr	r0, .L60+28
 6700              	.LBE2513:
 6701              	.LBE2512:
 6702              	.LBB2516:
 6703              	.LBB2511:
 6704              		.loc 19 76 31 view .LVU1506
 6705 0068 B0EEE77A 		vabs.f32	s14, s15
 6706              	.LVL347:
 6707              		.loc 19 76 31 view .LVU1507
 6708              	.LBE2511:
 6709              	.LBE2516:
 6710              		.loc 17 174 14 view .LVU1508
 6711 006c F4EEEA7A 		vcmpe.f32	s15, s21
 6712 0070 FDEEC77A 		vcvt.s32.f32	s15, s14
 6713              	.LVL348:
 6714              		.loc 19 76 5 is_stmt 1 view .LVU1509
 6715              		.loc 19 76 5 view .LVU1510
 6716              	.LBB2517:
 6717              	.LBI2512:
 119:../../libDaisy//src/daisy_seed.h ****     {
 6718              		.loc 3 119 17 view .LVU1511
 6719              	.LBE2517:
 6720              		.loc 17 174 14 is_stmt 0 view .LVU1512
 6721 0074 F1EE10FA 		vmrs	APSR_nzcv, FPSCR
 6722              		.loc 17 174 33 view .LVU1513
 6723 0078 F8EEE76A 		vcvt.f32.s32	s13, s15
 6724              	.LVL349:
 6725              	.LBB2518:
 6726              	.LBB2514:
 121:../../libDaisy//src/daisy_seed.h ****     }
 6727              		.loc 3 121 23 view .LVU1514
 6728 007c 17EE902A 		vmov	r2, s15	@ int
 6729 0080 4CBF     		ite	mi
 6730 0082 2D21     		movmi	r1, #45
 6731 0084 2021     		movpl	r1, #32
 6732              	.LBE2514:
ARM GAS  /var/folders/hl/qgbwny5j0fd895c2c41bk3tw0000gp/T//cckqgw4a.s 			page 167


 6733              	.LBE2518:
 6734              		.loc 17 174 33 view .LVU1515
 6735 0086 37EE667A 		vsub.f32	s14, s14, s13
 6736              	.LVL350:
 6737              		.loc 17 174 33 view .LVU1516
 6738 008a B7EEC77A 		vcvt.f64.f32	d7, s14
 6739 008e 27EE087B 		vmul.f64	d7, d7, d8
 6740              	.LBB2519:
 6741              	.LBB2515:
 121:../../libDaisy//src/daisy_seed.h ****     }
 6742              		.loc 3 121 23 view .LVU1517
 6743 0092 FDEEC77B 		vcvt.s32.f64	s15, d7
 6744              	.LVL351:
 121:../../libDaisy//src/daisy_seed.h ****     }
 6745              		.loc 3 121 23 view .LVU1518
 6746 0096 17EE903A 		vmov	r3, s15	@ int
 6747 009a FFF7FEFF 		bl	_ZN5daisy6LoggerILNS_17LoggerDestinationE1EE9PrintLineEPKcz
 6748              	.LVL352:
 121:../../libDaisy//src/daisy_seed.h ****     }
 6749              		.loc 3 121 23 view .LVU1519
 6750              	.LBE2515:
 6751              	.LBE2519:
 175:OmniSeed.cpp  **** 	hw.PrintLine("Min: " FLT_FMT3, FLT_VAR3(minLoad * 100.0f));
 6752              		.loc 17 175 2 is_stmt 1 view .LVU1520
 6753              	.LBB2520:
 6754              	.LBI2520:
  75:/opt/homebrew/Cellar/arm-none-eabi-gcc/10.3-2021.07/gcc/arm-none-eabi/include/c++/10.3.1/bits/std_abs.h ****   { return __builtin_fabsf(__x); }
 6755              		.loc 19 75 3 view .LVU1521
 6756              	.LBB2521:
 6757              		.loc 19 76 5 view .LVU1522
 6758              	.LBE2521:
 6759              	.LBE2520:
 6760              		.loc 17 175 33 is_stmt 0 view .LVU1523
 6761 009e 69EE297A 		vmul.f32	s15, s18, s19
 6762              	.LVL353:
 6763              	.LBB2523:
 6764              	.LBB2524:
 121:../../libDaisy//src/daisy_seed.h ****     }
 6765              		.loc 3 121 23 view .LVU1524
 6766 00a2 1948     		ldr	r0, .L60+32
 6767              	.LBE2524:
 6768              	.LBE2523:
 6769              	.LBB2528:
 6770              	.LBB2522:
 6771              		.loc 19 76 31 view .LVU1525
 6772 00a4 B0EEE77A 		vabs.f32	s14, s15
 6773              	.LVL354:
 6774              		.loc 19 76 31 view .LVU1526
 6775              	.LBE2522:
 6776              	.LBE2528:
 6777              		.loc 17 175 14 view .LVU1527
 6778 00a8 F4EEEA7A 		vcmpe.f32	s15, s21
 6779 00ac FDEEC77A 		vcvt.s32.f32	s15, s14
 6780              	.LVL355:
 6781              		.loc 19 76 5 is_stmt 1 view .LVU1528
 6782              		.loc 19 76 5 view .LVU1529
 6783              	.LBB2529:
ARM GAS  /var/folders/hl/qgbwny5j0fd895c2c41bk3tw0000gp/T//cckqgw4a.s 			page 168


 6784              	.LBI2523:
 119:../../libDaisy//src/daisy_seed.h ****     {
 6785              		.loc 3 119 17 view .LVU1530
 6786              	.LBE2529:
 6787              		.loc 17 175 14 is_stmt 0 view .LVU1531
 6788 00b0 F1EE10FA 		vmrs	APSR_nzcv, FPSCR
 6789              		.loc 17 175 33 view .LVU1532
 6790 00b4 F8EEE76A 		vcvt.f32.s32	s13, s15
 6791              	.LVL356:
 6792              	.LBB2530:
 6793              	.LBB2525:
 121:../../libDaisy//src/daisy_seed.h ****     }
 6794              		.loc 3 121 23 view .LVU1533
 6795 00b8 17EE902A 		vmov	r2, s15	@ int
 6796 00bc 4CBF     		ite	mi
 6797 00be 2D21     		movmi	r1, #45
 6798 00c0 2021     		movpl	r1, #32
 6799              	.LBE2525:
 6800              	.LBE2530:
 6801              		.loc 17 175 33 view .LVU1534
 6802 00c2 37EE667A 		vsub.f32	s14, s14, s13
 6803              	.LVL357:
 6804              		.loc 17 175 33 view .LVU1535
 6805 00c6 B7EEC77A 		vcvt.f64.f32	d7, s14
 6806 00ca 27EE087B 		vmul.f64	d7, d7, d8
 176:OmniSeed.cpp  **** }
 6807              		.loc 17 176 1 view .LVU1536
 6808 00ce BDEC068B 		vldm	sp!, {d8-d10}
 6809              		.cfi_restore 84
 6810              		.cfi_restore 85
 6811              		.cfi_restore 82
 6812              		.cfi_restore 83
 6813              		.cfi_restore 80
 6814              		.cfi_restore 81
 6815              		.cfi_def_cfa_offset 8
 6816              	.LVL358:
 6817              	.LBB2531:
 6818              	.LBB2526:
 121:../../libDaisy//src/daisy_seed.h ****     }
 6819              		.loc 3 121 23 view .LVU1537
 6820 00d2 FDEEC77B 		vcvt.s32.f64	s15, d7
 6821              	.LVL359:
 121:../../libDaisy//src/daisy_seed.h ****     }
 6822              		.loc 3 121 23 view .LVU1538
 6823              	.LBE2526:
 6824              	.LBE2531:
 6825              		.loc 17 176 1 view .LVU1539
 6826 00d6 BDE81040 		pop	{r4, lr}
 6827              		.cfi_restore 14
 6828              		.cfi_restore 4
 6829              		.cfi_def_cfa_offset 0
 6830              	.LBB2532:
 6831              	.LBB2527:
 121:../../libDaisy//src/daisy_seed.h ****     }
 6832              		.loc 3 121 23 view .LVU1540
 6833 00da 17EE903A 		vmov	r3, s15	@ int
 6834 00de FFF7FEBF 		b	_ZN5daisy6LoggerILNS_17LoggerDestinationE1EE9PrintLineEPKcz
ARM GAS  /var/folders/hl/qgbwny5j0fd895c2c41bk3tw0000gp/T//cckqgw4a.s 			page 169


 6835              	.LVL360:
 6836              	.L61:
 121:../../libDaisy//src/daisy_seed.h ****     }
 6837              		.loc 3 121 23 view .LVU1541
 6838 00e2 00BFAFF3 		.align	3
 6838      0080
 6839              	.L60:
 6840 00e8 00000000 		.word	0
 6841 00ec 00408F40 		.word	1083129856
 6842 00f0 00000000 		.word	.LANCHOR6
 6843 00f4 00000000 		.word	.LC5
 6844 00f8 0000C842 		.word	1120403456
 6845 00fc 00000000 		.word	0
 6846 0100 14000000 		.word	.LC6
 6847 0104 24000000 		.word	.LC7
 6848 0108 34000000 		.word	.LC8
 6849              	.LBE2527:
 6850              	.LBE2532:
 6851              		.cfi_endproc
 6852              	.LFE4822:
 6854              		.section	.text.startup.main,"ax",%progbits
 6855              		.align	1
 6856              		.p2align 2,,3
 6857              		.global	main
 6858              		.syntax unified
 6859              		.thumb
 6860              		.thumb_func
 6861              		.fpu fpv5-d16
 6863              	main:
 6864              	.LFB4815:
 101:OmniSeed.cpp  **** 	hw.Init(true);
 6865              		.loc 17 101 1 is_stmt 1 view -0
 6866              		.cfi_startproc
 6867              		@ args = 0, pretend = 0, frame = 168
 6868              		@ frame_needed = 0, uses_anonymous_args = 0
 102:OmniSeed.cpp  **** 	hw.SetAudioBlockSize(32); // number of samples handled per callback
 6869              		.loc 17 102 2 view .LVU1543
 101:OmniSeed.cpp  **** 	hw.Init(true);
 6870              		.loc 17 101 1 is_stmt 0 view .LVU1544
 6871 0000 2DE9F04F 		push	{r4, r5, r6, r7, r8, r9, r10, fp, lr}
 6872              		.cfi_def_cfa_offset 36
 6873              		.cfi_offset 4, -36
 6874              		.cfi_offset 5, -32
 6875              		.cfi_offset 6, -28
 6876              		.cfi_offset 7, -24
 6877              		.cfi_offset 8, -20
 6878              		.cfi_offset 9, -16
 6879              		.cfi_offset 10, -12
 6880              		.cfi_offset 11, -8
 6881              		.cfi_offset 14, -4
 102:OmniSeed.cpp  **** 	hw.SetAudioBlockSize(32); // number of samples handled per callback
 6882              		.loc 17 102 9 view .LVU1545
 6883 0004 0121     		movs	r1, #1
 6884 0006 BA48     		ldr	r0, .L81
 6885 0008 0024     		movs	r4, #0
 6886 000a 4FF00208 		mov	r8, #2
 6887 000e 0125     		movs	r5, #1
ARM GAS  /var/folders/hl/qgbwny5j0fd895c2c41bk3tw0000gp/T//cckqgw4a.s 			page 170


 6888 0010 0727     		movs	r7, #7
 6889 0012 0626     		movs	r6, #6
 101:OmniSeed.cpp  **** 	hw.Init(true);
 6890              		.loc 17 101 1 view .LVU1546
 6891 0014 2DED048B 		vpush.64	{d8, d9}
 6892              		.cfi_def_cfa_offset 52
 6893              		.cfi_offset 80, -52
 6894              		.cfi_offset 81, -48
 6895              		.cfi_offset 82, -44
 6896              		.cfi_offset 83, -40
 6897 0018 ABB0     		sub	sp, sp, #172
 6898              		.cfi_def_cfa_offset 224
 102:OmniSeed.cpp  **** 	hw.SetAudioBlockSize(32); // number of samples handled per callback
 6899              		.loc 17 102 9 view .LVU1547
 6900 001a FFF7FEFF 		bl	_ZN5daisy9DaisySeed4InitEb
 6901              	.LVL361:
 103:OmniSeed.cpp  **** 	hw.SetAudioSampleRate(SaiHandle::Config::SampleRate::SAI_48KHZ);
 6902              		.loc 17 103 2 is_stmt 1 view .LVU1548
 103:OmniSeed.cpp  **** 	hw.SetAudioSampleRate(SaiHandle::Config::SampleRate::SAI_48KHZ);
 6903              		.loc 17 103 22 is_stmt 0 view .LVU1549
 6904 001e 2021     		movs	r1, #32
 6905 0020 B348     		ldr	r0, .L81
 6906 0022 FFF7FEFF 		bl	_ZN5daisy9DaisySeed17SetAudioBlockSizeEj
 6907              	.LVL362:
 104:OmniSeed.cpp  **** 	float sample_rate = hw.AudioSampleRate();
 6908              		.loc 17 104 2 is_stmt 1 view .LVU1550
 104:OmniSeed.cpp  **** 	float sample_rate = hw.AudioSampleRate();
 6909              		.loc 17 104 23 is_stmt 0 view .LVU1551
 6910 0026 0321     		movs	r1, #3
 6911 0028 B148     		ldr	r0, .L81
 6912 002a FFF7FEFF 		bl	_ZN5daisy9DaisySeed18SetAudioSampleRateENS_9SaiHandle6Config10SampleRateE
 6913              	.LVL363:
 105:OmniSeed.cpp  **** 
 6914              		.loc 17 105 2 is_stmt 1 view .LVU1552
 105:OmniSeed.cpp  **** 
 6915              		.loc 17 105 40 is_stmt 0 view .LVU1553
 6916 002e B048     		ldr	r0, .L81
 6917 0030 FFF7FEFF 		bl	_ZN5daisy9DaisySeed15AudioSampleRateEv
 6918              	.LVL364:
 6919 0034 8DF80140 		strb	r4, [sp, #1]
 6920 0038 8DF80080 		strb	r8, [sp]
 108:OmniSeed.cpp  **** 	adc_config[pot2].InitSingle(A1);
 6921              		.loc 17 108 29 view .LVU1554
 6922 003c 0CA8     		add	r0, sp, #48
 6923 003e 0099     		ldr	r1, [sp]
 105:OmniSeed.cpp  **** 
 6924              		.loc 17 105 40 view .LVU1555
 6925 0040 B0EE408A 		vmov.f32	s16, s0
 6926              	.LVL365:
 107:OmniSeed.cpp  **** 	adc_config[pot1].InitSingle(A0);
 6927              		.loc 17 107 2 is_stmt 1 view .LVU1556
 108:OmniSeed.cpp  **** 	adc_config[pot2].InitSingle(A1);
 6928              		.loc 17 108 2 view .LVU1557
 6929              	.LBB2588:
 6930              	.LBI2588:
 294:../../libDaisy//src/daisy_core.h ****     {
 6931              		.loc 15 294 5 view .LVU1558
ARM GAS  /var/folders/hl/qgbwny5j0fd895c2c41bk3tw0000gp/T//cckqgw4a.s 			page 171


 6932              	.LBE2588:
 6933              		.loc 15 296 9 view .LVU1559
 6934              	.LBB2590:
 6935              	.LBB2589:
 6936              	.LBI2589:
 217:../../libDaisy//src/daisy_core.h **** {
 6937              		.loc 15 217 27 view .LVU1560
 6938              	.LBE2589:
 6939              	.LBE2590:
 219:../../libDaisy//src/daisy_core.h ****     p.port = port;
 6940              		.loc 15 219 5 view .LVU1561
 220:../../libDaisy//src/daisy_core.h ****     p.pin  = pin;
 6941              		.loc 15 220 5 view .LVU1562
 221:../../libDaisy//src/daisy_core.h ****     return p;
 6942              		.loc 15 221 5 view .LVU1563
 222:../../libDaisy//src/daisy_core.h **** }
 6943              		.loc 15 222 5 view .LVU1564
 108:OmniSeed.cpp  **** 	adc_config[pot2].InitSingle(A1);
 6944              		.loc 17 108 29 is_stmt 0 view .LVU1565
 6945 0044 FFF7FEFF 		bl	_ZN5daisy16AdcChannelConfig10InitSingleE12dsy_gpio_pin
 6946              	.LVL366:
 109:OmniSeed.cpp  **** 	adc_config[pot3].InitSingle(A2);
 6947              		.loc 17 109 2 is_stmt 1 view .LVU1566
 6948              	.LBB2591:
 6949              	.LBI2591:
 294:../../libDaisy//src/daisy_core.h ****     {
 6950              		.loc 15 294 5 view .LVU1567
 6951              	.LBE2591:
 6952              		.loc 15 296 9 view .LVU1568
 6953              	.LBB2593:
 6954              	.LBB2592:
 6955              	.LBI2592:
 217:../../libDaisy//src/daisy_core.h **** {
 6956              		.loc 15 217 27 view .LVU1569
 6957              	.LBE2592:
 6958              	.LBE2593:
 219:../../libDaisy//src/daisy_core.h ****     p.port = port;
 6959              		.loc 15 219 5 view .LVU1570
 220:../../libDaisy//src/daisy_core.h ****     p.pin  = pin;
 6960              		.loc 15 220 5 view .LVU1571
 221:../../libDaisy//src/daisy_core.h ****     return p;
 6961              		.loc 15 221 5 view .LVU1572
 222:../../libDaisy//src/daisy_core.h **** }
 6962              		.loc 15 222 5 view .LVU1573
 222:../../libDaisy//src/daisy_core.h **** }
 6963              		.loc 15 222 5 is_stmt 0 view .LVU1574
 6964 0048 0323     		movs	r3, #3
 6965 004a 8DF80440 		strb	r4, [sp, #4]
 109:OmniSeed.cpp  **** 	adc_config[pot3].InitSingle(A2);
 6966              		.loc 17 109 29 view .LVU1575
 6967 004e 0DF14100 		add	r0, sp, #65
 6968 0052 8DF80530 		strb	r3, [sp, #5]
 6969              	.LVL367:
 109:OmniSeed.cpp  **** 	adc_config[pot3].InitSingle(A2);
 6970              		.loc 17 109 29 view .LVU1576
 6971 0056 0199     		ldr	r1, [sp, #4]
 6972 0058 FFF7FEFF 		bl	_ZN5daisy16AdcChannelConfig10InitSingleE12dsy_gpio_pin
ARM GAS  /var/folders/hl/qgbwny5j0fd895c2c41bk3tw0000gp/T//cckqgw4a.s 			page 172


 6973              	.LVL368:
 110:OmniSeed.cpp  **** 	adc_config[pot4].InitSingle(A3);
 6974              		.loc 17 110 2 is_stmt 1 view .LVU1577
 6975              	.LBB2594:
 6976              	.LBI2594:
 294:../../libDaisy//src/daisy_core.h ****     {
 6977              		.loc 15 294 5 view .LVU1578
 6978              	.LBE2594:
 6979              		.loc 15 296 9 view .LVU1579
 6980              	.LBB2596:
 6981              	.LBB2595:
 6982              	.LBI2595:
 217:../../libDaisy//src/daisy_core.h **** {
 6983              		.loc 15 217 27 view .LVU1580
 6984              	.LBE2595:
 6985              	.LBE2596:
 219:../../libDaisy//src/daisy_core.h ****     p.port = port;
 6986              		.loc 15 219 5 view .LVU1581
 220:../../libDaisy//src/daisy_core.h ****     p.pin  = pin;
 6987              		.loc 15 220 5 view .LVU1582
 221:../../libDaisy//src/daisy_core.h ****     return p;
 6988              		.loc 15 221 5 view .LVU1583
 222:../../libDaisy//src/daisy_core.h **** }
 6989              		.loc 15 222 5 view .LVU1584
 222:../../libDaisy//src/daisy_core.h **** }
 6990              		.loc 15 222 5 is_stmt 0 view .LVU1585
 6991 005c 8DF80850 		strb	r5, [sp, #8]
 6992 0060 8DF80950 		strb	r5, [sp, #9]
 6993              	.LVL369:
 110:OmniSeed.cpp  **** 	adc_config[pot4].InitSingle(A3);
 6994              		.loc 17 110 29 view .LVU1586
 6995 0064 0DF15200 		add	r0, sp, #82
 6996 0068 0299     		ldr	r1, [sp, #8]
 6997 006a FFF7FEFF 		bl	_ZN5daisy16AdcChannelConfig10InitSingleE12dsy_gpio_pin
 6998              	.LVL370:
 111:OmniSeed.cpp  **** 	adc_config[pot5].InitSingle(A4);
 6999              		.loc 17 111 2 is_stmt 1 view .LVU1587
 7000              	.LBB2597:
 7001              	.LBI2597:
 294:../../libDaisy//src/daisy_core.h ****     {
 7002              		.loc 15 294 5 view .LVU1588
 7003              	.LBE2597:
 7004              		.loc 15 296 9 view .LVU1589
 7005              	.LBB2599:
 7006              	.LBB2598:
 7007              	.LBI2598:
 217:../../libDaisy//src/daisy_core.h **** {
 7008              		.loc 15 217 27 view .LVU1590
 7009              	.LBE2598:
 7010              	.LBE2599:
 219:../../libDaisy//src/daisy_core.h ****     p.port = port;
 7011              		.loc 15 219 5 view .LVU1591
 220:../../libDaisy//src/daisy_core.h ****     p.pin  = pin;
 7012              		.loc 15 220 5 view .LVU1592
 221:../../libDaisy//src/daisy_core.h ****     return p;
 7013              		.loc 15 221 5 view .LVU1593
 222:../../libDaisy//src/daisy_core.h **** }
ARM GAS  /var/folders/hl/qgbwny5j0fd895c2c41bk3tw0000gp/T//cckqgw4a.s 			page 173


 7014              		.loc 15 222 5 view .LVU1594
 222:../../libDaisy//src/daisy_core.h **** }
 7015              		.loc 15 222 5 is_stmt 0 view .LVU1595
 7016 006e 8DF80C40 		strb	r4, [sp, #12]
 7017 0072 8DF80D70 		strb	r7, [sp, #13]
 7018              	.LVL371:
 111:OmniSeed.cpp  **** 	adc_config[pot5].InitSingle(A4);
 7019              		.loc 17 111 29 view .LVU1596
 7020 0076 0DF16300 		add	r0, sp, #99
 7021 007a 0399     		ldr	r1, [sp, #12]
 7022 007c FFF7FEFF 		bl	_ZN5daisy16AdcChannelConfig10InitSingleE12dsy_gpio_pin
 7023              	.LVL372:
 112:OmniSeed.cpp  **** 	adc_config[pot6].InitSingle(A5);
 7024              		.loc 17 112 2 is_stmt 1 view .LVU1597
 7025              	.LBB2600:
 7026              	.LBI2600:
 294:../../libDaisy//src/daisy_core.h ****     {
 7027              		.loc 15 294 5 view .LVU1598
 7028              	.LBE2600:
 7029              		.loc 15 296 9 view .LVU1599
 7030              	.LBB2602:
 7031              	.LBB2601:
 7032              	.LBI2601:
 217:../../libDaisy//src/daisy_core.h **** {
 7033              		.loc 15 217 27 view .LVU1600
 7034              	.LBE2601:
 7035              	.LBE2602:
 219:../../libDaisy//src/daisy_core.h ****     p.port = port;
 7036              		.loc 15 219 5 view .LVU1601
 220:../../libDaisy//src/daisy_core.h ****     p.pin  = pin;
 7037              		.loc 15 220 5 view .LVU1602
 221:../../libDaisy//src/daisy_core.h ****     return p;
 7038              		.loc 15 221 5 view .LVU1603
 222:../../libDaisy//src/daisy_core.h **** }
 7039              		.loc 15 222 5 view .LVU1604
 222:../../libDaisy//src/daisy_core.h **** }
 7040              		.loc 15 222 5 is_stmt 0 view .LVU1605
 7041 0080 8DF81040 		strb	r4, [sp, #16]
 7042 0084 8DF81160 		strb	r6, [sp, #17]
 7043              	.LVL373:
 112:OmniSeed.cpp  **** 	adc_config[pot6].InitSingle(A5);
 7044              		.loc 17 112 29 view .LVU1606
 7045 0088 1DA8     		add	r0, sp, #116
 7046 008a 0499     		ldr	r1, [sp, #16]
 7047 008c FFF7FEFF 		bl	_ZN5daisy16AdcChannelConfig10InitSingleE12dsy_gpio_pin
 7048              	.LVL374:
 113:OmniSeed.cpp  **** 	adc_config[rot].InitSingle(A7);
 7049              		.loc 17 113 2 is_stmt 1 view .LVU1607
 7050              	.LBB2603:
 7051              	.LBI2603:
 294:../../libDaisy//src/daisy_core.h ****     {
 7052              		.loc 15 294 5 view .LVU1608
 7053              	.LBE2603:
 7054              		.loc 15 296 9 view .LVU1609
 7055              	.LBB2605:
 7056              	.LBB2604:
 7057              	.LBI2604:
ARM GAS  /var/folders/hl/qgbwny5j0fd895c2c41bk3tw0000gp/T//cckqgw4a.s 			page 174


 217:../../libDaisy//src/daisy_core.h **** {
 7058              		.loc 15 217 27 view .LVU1610
 7059              	.LBE2604:
 7060              	.LBE2605:
 219:../../libDaisy//src/daisy_core.h ****     p.port = port;
 7061              		.loc 15 219 5 view .LVU1611
 220:../../libDaisy//src/daisy_core.h ****     p.pin  = pin;
 7062              		.loc 15 220 5 view .LVU1612
 221:../../libDaisy//src/daisy_core.h ****     return p;
 7063              		.loc 15 221 5 view .LVU1613
 222:../../libDaisy//src/daisy_core.h **** }
 7064              		.loc 15 222 5 view .LVU1614
 222:../../libDaisy//src/daisy_core.h **** }
 7065              		.loc 15 222 5 is_stmt 0 view .LVU1615
 7066 0090 8DF81550 		strb	r5, [sp, #21]
 7067              	.LVL375:
 222:../../libDaisy//src/daisy_core.h **** }
 7068              		.loc 15 222 5 view .LVU1616
 7069 0094 8DF81480 		strb	r8, [sp, #20]
 113:OmniSeed.cpp  **** 	adc_config[rot].InitSingle(A7);
 7070              		.loc 17 113 29 view .LVU1617
 7071 0098 0DF18500 		add	r0, sp, #133
 7072 009c 0599     		ldr	r1, [sp, #20]
 7073 009e FFF7FEFF 		bl	_ZN5daisy16AdcChannelConfig10InitSingleE12dsy_gpio_pin
 7074              	.LVL376:
 114:OmniSeed.cpp  **** 	hw.adc.Init(adc_config,NUM_ADC_CHANNELS);
 7075              		.loc 17 114 2 is_stmt 1 view .LVU1618
 7076              	.LBB2606:
 7077              	.LBI2606:
 294:../../libDaisy//src/daisy_core.h ****     {
 7078              		.loc 15 294 5 view .LVU1619
 7079              	.LBE2606:
 7080              		.loc 15 296 9 view .LVU1620
 7081              	.LBB2608:
 7082              	.LBB2607:
 7083              	.LBI2607:
 217:../../libDaisy//src/daisy_core.h **** {
 7084              		.loc 15 217 27 view .LVU1621
 7085              	.LBE2607:
 7086              	.LBE2608:
 219:../../libDaisy//src/daisy_core.h ****     p.port = port;
 7087              		.loc 15 219 5 view .LVU1622
 220:../../libDaisy//src/daisy_core.h ****     p.pin  = pin;
 7088              		.loc 15 220 5 view .LVU1623
 221:../../libDaisy//src/daisy_core.h ****     return p;
 7089              		.loc 15 221 5 view .LVU1624
 222:../../libDaisy//src/daisy_core.h **** }
 7090              		.loc 15 222 5 view .LVU1625
 222:../../libDaisy//src/daisy_core.h **** }
 7091              		.loc 15 222 5 is_stmt 0 view .LVU1626
 7092 00a2 0523     		movs	r3, #5
 7093 00a4 8DF81840 		strb	r4, [sp, #24]
 114:OmniSeed.cpp  **** 	hw.adc.Init(adc_config,NUM_ADC_CHANNELS);
 7094              		.loc 17 114 28 view .LVU1627
 7095 00a8 0DF19600 		add	r0, sp, #150
 7096 00ac 8DF81930 		strb	r3, [sp, #25]
 7097              	.LVL377:
ARM GAS  /var/folders/hl/qgbwny5j0fd895c2c41bk3tw0000gp/T//cckqgw4a.s 			page 175


 114:OmniSeed.cpp  **** 	hw.adc.Init(adc_config,NUM_ADC_CHANNELS);
 7098              		.loc 17 114 28 view .LVU1628
 7099 00b0 0699     		ldr	r1, [sp, #24]
 7100 00b2 FFF7FEFF 		bl	_ZN5daisy16AdcChannelConfig10InitSingleE12dsy_gpio_pin
 7101              	.LVL378:
 115:OmniSeed.cpp  **** 	hw.adc.Start();
 7102              		.loc 17 115 2 is_stmt 1 view .LVU1629
 115:OmniSeed.cpp  **** 	hw.adc.Start();
 7103              		.loc 17 115 13 is_stmt 0 view .LVU1630
 7104 00b6 0CA9     		add	r1, sp, #48
 7105 00b8 3A46     		mov	r2, r7
 7106 00ba 0423     		movs	r3, #4
 7107 00bc 8D48     		ldr	r0, .L81+4
 7108 00be FFF7FEFF 		bl	_ZN5daisy9AdcHandle4InitEPNS_16AdcChannelConfigEjNS0_12OverSamplingE
 7109              	.LVL379:
 116:OmniSeed.cpp  **** 
 7110              		.loc 17 116 2 is_stmt 1 view .LVU1631
 116:OmniSeed.cpp  **** 
 7111              		.loc 17 116 14 is_stmt 0 view .LVU1632
 7112 00c2 8C48     		ldr	r0, .L81+4
 7113 00c4 FFF7FEFF 		bl	_ZN5daisy9AdcHandle5StartEv
 7114              	.LVL380:
 119:OmniSeed.cpp  **** 	logInit();
 7115              		.loc 17 119 2 is_stmt 1 view .LVU1633
 119:OmniSeed.cpp  **** 	logInit();
 7116              		.loc 17 119 16 is_stmt 0 view .LVU1634
 7117 00c8 8948     		ldr	r0, .L81
 7118 00ca FFF7FEFF 		bl	_ZN5daisy9DaisySeed15AudioSampleRateEv
 7119              	.LVL381:
 119:OmniSeed.cpp  **** 	logInit();
 7120              		.loc 17 119 56 view .LVU1635
 7121 00ce 8848     		ldr	r0, .L81
 119:OmniSeed.cpp  **** 	logInit();
 7122              		.loc 17 119 16 view .LVU1636
 7123 00d0 F0EE408A 		vmov.f32	s17, s0
 119:OmniSeed.cpp  **** 	logInit();
 7124              		.loc 17 119 56 view .LVU1637
 7125 00d4 FFF7FEFF 		bl	_ZN5daisy9DaisySeed14AudioBlockSizeEv
 7126              	.LVL382:
 7127              	.LBB2609:
 7128              	.LBI2609:
  29:../../libDaisy//src/util/CpuLoadMeter.h ****               int   blockSizeInSamples,
 7129              		.loc 18 29 10 is_stmt 1 view .LVU1638
 7130              	.LBB2610:
  33:../../libDaisy//src/util/CpuLoadMeter.h ****         const auto ticksPerS   = float(System::GetTickFreq());
 7131              		.loc 18 33 9 view .LVU1639
  33:../../libDaisy//src/util/CpuLoadMeter.h ****         const auto ticksPerS   = float(System::GetTickFreq());
 7132              		.loc 18 33 34 is_stmt 0 view .LVU1640
 7133 00d8 07EE900A 		vmov	s15, r0	@ int
 7134 00dc B8EEE79A 		vcvt.f32.s32	s18, s15
  34:../../libDaisy//src/util/CpuLoadMeter.h ****         ticksPerBlockInv_      = 1.0f / (ticksPerS * secPerBlock);
 7135              		.loc 18 34 59 view .LVU1641
 7136 00e0 FFF7FEFF 		bl	_ZN5daisy6System11GetTickFreqEv
 7137              	.LVL383:
  39:../../libDaisy//src/util/CpuLoadMeter.h ****             = smoothingFilterCutoffHz * 2.0f * 3.141592653f / blockRateInHz;
 7138              		.loc 18 39 20 view .LVU1642
 7139 00e4 9FED845A 		vldr.32	s10, .L81+8
ARM GAS  /var/folders/hl/qgbwny5j0fd895c2c41bk3tw0000gp/T//cckqgw4a.s 			page 176


  34:../../libDaisy//src/util/CpuLoadMeter.h ****         ticksPerBlockInv_      = 1.0f / (ticksPerS * secPerBlock);
 7140              		.loc 18 34 61 view .LVU1643
 7141 00e8 07EE900A 		vmov	s15, r0	@ int
  35:../../libDaisy//src/util/CpuLoadMeter.h **** 
 7142              		.loc 18 35 39 view .LVU1644
 7143 00ec B7EE007A 		vmov.f32	s14, #1.0e+0
 7144              	.LBB2611:
 7145              	.LBB2612:
  82:../../libDaisy//src/util/CpuLoadMeter.h **** 
  83:../../libDaisy//src/util/CpuLoadMeter.h ****     /** Resets the minimun, maximum and average load readings. */
  84:../../libDaisy//src/util/CpuLoadMeter.h ****     void Reset()
  85:../../libDaisy//src/util/CpuLoadMeter.h ****     {
  86:../../libDaisy//src/util/CpuLoadMeter.h ****         firstCycle_ = true;
  87:../../libDaisy//src/util/CpuLoadMeter.h ****         avg_ = max_ = min_ = NAN;
 7146              		.loc 18 87 28 view .LVU1645
 7147 00f0 824A     		ldr	r2, .L81+12
 7148              	.LBE2612:
 7149              	.LBE2611:
  38:../../libDaisy//src/util/CpuLoadMeter.h ****         const auto cutoffNormalized
 7150              		.loc 18 38 20 view .LVU1646
 7151 00f2 C8EE895A 		vdiv.f32	s11, s17, s18
  35:../../libDaisy//src/util/CpuLoadMeter.h **** 
 7152              		.loc 18 35 32 view .LVU1647
 7153 00f6 824B     		ldr	r3, .L81+16
 7154              	.LBB2616:
 7155              	.LBB2613:
 7156              		.loc 18 87 28 view .LVU1648
 7157 00f8 DA60     		str	r2, [r3, #12]	@ float
 7158              		.loc 18 87 21 view .LVU1649
 7159 00fa 1A61     		str	r2, [r3, #16]	@ float
 7160              		.loc 18 87 14 view .LVU1650
 7161 00fc 5A61     		str	r2, [r3, #20]	@ float
 7162              	.LBE2613:
 7163              	.LBE2616:
  33:../../libDaisy//src/util/CpuLoadMeter.h ****         const auto ticksPerS   = float(System::GetTickFreq());
 7164              		.loc 18 33 20 view .LVU1651
 7165 00fe 89EE286A 		vdiv.f32	s12, s18, s17
 7166              	.LVL384:
  34:../../libDaisy//src/util/CpuLoadMeter.h ****         ticksPerBlockInv_      = 1.0f / (ticksPerS * secPerBlock);
 7167              		.loc 18 34 9 is_stmt 1 view .LVU1652
  35:../../libDaisy//src/util/CpuLoadMeter.h **** 
 7168              		.loc 18 35 9 view .LVU1653
 7169              	.LBB2617:
 7170              	.LBB2614:
  86:../../libDaisy//src/util/CpuLoadMeter.h ****         avg_ = max_ = min_ = NAN;
 7171              		.loc 18 86 21 is_stmt 0 view .LVU1654
 7172 0102 1D70     		strb	r5, [r3]
 7173              	.LBE2614:
 7174              	.LBE2617:
  34:../../libDaisy//src/util/CpuLoadMeter.h ****         ticksPerBlockInv_      = 1.0f / (ticksPerS * secPerBlock);
 7175              		.loc 18 34 61 view .LVU1655
 7176 0104 F8EE677A 		vcvt.f32.u32	s15, s15
  39:../../libDaisy//src/util/CpuLoadMeter.h ****             = smoothingFilterCutoffHz * 2.0f * 3.141592653f / blockRateInHz;
 7177              		.loc 18 39 20 view .LVU1656
 7178 0108 C5EE256A 		vdiv.f32	s13, s10, s11
  35:../../libDaisy//src/util/CpuLoadMeter.h **** 
 7179              		.loc 18 35 52 view .LVU1657
ARM GAS  /var/folders/hl/qgbwny5j0fd895c2c41bk3tw0000gp/T//cckqgw4a.s 			page 177


 7180 010c 67EE867A 		vmul.f32	s15, s15, s12
  35:../../libDaisy//src/util/CpuLoadMeter.h **** 
 7181              		.loc 18 35 39 view .LVU1658
 7182 0110 87EE276A 		vdiv.f32	s12, s14, s15
 7183              	.LVL385:
  43:../../libDaisy//src/util/CpuLoadMeter.h **** 
 7184              		.loc 18 43 67 view .LVU1659
 7185 0114 36EE877A 		vadd.f32	s14, s13, s14
  43:../../libDaisy//src/util/CpuLoadMeter.h **** 
 7186              		.loc 18 43 47 view .LVU1660
 7187 0118 C6EE877A 		vdiv.f32	s15, s13, s14
  35:../../libDaisy//src/util/CpuLoadMeter.h **** 
 7188              		.loc 18 35 32 view .LVU1661
 7189 011c 83ED016A 		vstr.32	s12, [r3, #4]
  38:../../libDaisy//src/util/CpuLoadMeter.h ****         const auto cutoffNormalized
 7190              		.loc 18 38 9 is_stmt 1 view .LVU1662
 7191              	.LVL386:
  39:../../libDaisy//src/util/CpuLoadMeter.h ****             = smoothingFilterCutoffHz * 2.0f * 3.141592653f / blockRateInHz;
 7192              		.loc 18 39 9 view .LVU1663
  43:../../libDaisy//src/util/CpuLoadMeter.h **** 
 7193              		.loc 18 43 9 view .LVU1664
  43:../../libDaisy//src/util/CpuLoadMeter.h **** 
 7194              		.loc 18 43 28 is_stmt 0 view .LVU1665
 7195 0120 C3ED067A 		vstr.32	s15, [r3, #24]
  45:../../libDaisy//src/util/CpuLoadMeter.h ****     }
 7196              		.loc 18 45 9 is_stmt 1 view .LVU1666
 7197              	.LVL387:
 7198              	.LBB2618:
 7199              	.LBI2611:
  84:../../libDaisy//src/util/CpuLoadMeter.h ****     {
 7200              		.loc 18 84 10 view .LVU1667
 7201              	.LBB2615:
  86:../../libDaisy//src/util/CpuLoadMeter.h ****         avg_ = max_ = min_ = NAN;
 7202              		.loc 18 86 9 view .LVU1668
 7203              		.loc 18 87 9 view .LVU1669
 7204              		.loc 18 87 9 is_stmt 0 view .LVU1670
 7205              	.LBE2615:
 7206              	.LBE2618:
 7207              	.LBE2610:
 7208              	.LBE2609:
 120:OmniSeed.cpp  **** 
 7209              		.loc 17 120 2 is_stmt 1 view .LVU1671
 120:OmniSeed.cpp  **** 
 7210              		.loc 17 120 9 is_stmt 0 view .LVU1672
 7211 0124 FFF7FEFF 		bl	_Z7logInitv
 7212              	.LVL388:
 123:OmniSeed.cpp  **** 	kb.init();
 7213              		.loc 17 123 2 is_stmt 1 view .LVU1673
 123:OmniSeed.cpp  **** 	kb.init();
 7214              		.loc 17 123 9 is_stmt 0 view .LVU1674
 7215 0128 FFF7FEFF 		bl	_Z7Init121v
 7216              	.LVL389:
 124:OmniSeed.cpp  **** 	oct1.Init(seed::D30, sample_rate);
 7217              		.loc 17 124 2 is_stmt 1 view .LVU1675
 124:OmniSeed.cpp  **** 	oct1.Init(seed::D30, sample_rate);
 7218              		.loc 17 124 9 is_stmt 0 view .LVU1676
 7219 012c 7548     		ldr	r0, .L81+20
ARM GAS  /var/folders/hl/qgbwny5j0fd895c2c41bk3tw0000gp/T//cckqgw4a.s 			page 178


 7220 012e FFF7FEFF 		bl	_ZN14KeyboardMatrix4initEv
 7221              	.LVL390:
 125:OmniSeed.cpp  **** 	oct2.Init(seed::D29, sample_rate);
 7222              		.loc 17 125 2 is_stmt 1 view .LVU1677
 7223              	.LBB2619:
 7224              	.LBI2619:
 294:../../libDaisy//src/daisy_core.h ****     {
 7225              		.loc 15 294 5 view .LVU1678
 7226              	.LBE2619:
 7227              		.loc 15 296 9 view .LVU1679
 7228              	.LBB2621:
 7229              	.LBB2620:
 7230              	.LBI2620:
 217:../../libDaisy//src/daisy_core.h **** {
 7231              		.loc 15 217 27 view .LVU1680
 7232              	.LBE2620:
 7233              	.LBE2621:
 219:../../libDaisy//src/daisy_core.h ****     p.port = port;
 7234              		.loc 15 219 5 view .LVU1681
 220:../../libDaisy//src/daisy_core.h ****     p.pin  = pin;
 7235              		.loc 15 220 5 view .LVU1682
 221:../../libDaisy//src/daisy_core.h ****     return p;
 7236              		.loc 15 221 5 view .LVU1683
 222:../../libDaisy//src/daisy_core.h **** }
 7237              		.loc 15 222 5 view .LVU1684
 222:../../libDaisy//src/daisy_core.h **** }
 7238              		.loc 15 222 5 is_stmt 0 view .LVU1685
 7239 0132 0F23     		movs	r3, #15
 7240 0134 8DF81C50 		strb	r5, [sp, #28]
 125:OmniSeed.cpp  **** 	oct2.Init(seed::D29, sample_rate);
 7241              		.loc 17 125 11 view .LVU1686
 7242 0138 B0EE480A 		vmov.f32	s0, s16
 7243 013c 8DF81D30 		strb	r3, [sp, #29]
 7244              	.LVL391:
 125:OmniSeed.cpp  **** 	oct2.Init(seed::D29, sample_rate);
 7245              		.loc 17 125 11 view .LVU1687
 7246 0140 0799     		ldr	r1, [sp, #28]
 7247 0142 7148     		ldr	r0, .L81+24
 7248 0144 FFF7FEFF 		bl	_ZN5daisy6Switch4InitE12dsy_gpio_pinf
 7249              	.LVL392:
 126:OmniSeed.cpp  **** 	reset.Init(seed::D27, sample_rate);
 7250              		.loc 17 126 2 is_stmt 1 view .LVU1688
 7251              	.LBB2622:
 7252              	.LBI2622:
 294:../../libDaisy//src/daisy_core.h ****     {
 7253              		.loc 15 294 5 view .LVU1689
 7254              	.LBE2622:
 7255              		.loc 15 296 9 view .LVU1690
 7256              	.LBB2624:
 7257              	.LBB2623:
 7258              	.LBI2623:
 217:../../libDaisy//src/daisy_core.h **** {
 7259              		.loc 15 217 27 view .LVU1691
 7260              	.LBE2623:
 7261              	.LBE2624:
 219:../../libDaisy//src/daisy_core.h ****     p.port = port;
 7262              		.loc 15 219 5 view .LVU1692
ARM GAS  /var/folders/hl/qgbwny5j0fd895c2c41bk3tw0000gp/T//cckqgw4a.s 			page 179


 220:../../libDaisy//src/daisy_core.h ****     p.pin  = pin;
 7263              		.loc 15 220 5 view .LVU1693
 221:../../libDaisy//src/daisy_core.h ****     return p;
 7264              		.loc 15 221 5 view .LVU1694
 222:../../libDaisy//src/daisy_core.h **** }
 7265              		.loc 15 222 5 view .LVU1695
 222:../../libDaisy//src/daisy_core.h **** }
 7266              		.loc 15 222 5 is_stmt 0 view .LVU1696
 7267 0148 0E23     		movs	r3, #14
 7268 014a 8DF82050 		strb	r5, [sp, #32]
 126:OmniSeed.cpp  **** 	reset.Init(seed::D27, sample_rate);
 7269              		.loc 17 126 11 view .LVU1697
 7270 014e B0EE480A 		vmov.f32	s0, s16
 7271 0152 8DF82130 		strb	r3, [sp, #33]
 7272              	.LVL393:
 126:OmniSeed.cpp  **** 	reset.Init(seed::D27, sample_rate);
 7273              		.loc 17 126 11 view .LVU1698
 7274 0156 6D48     		ldr	r0, .L81+28
 7275 0158 0899     		ldr	r1, [sp, #32]
 7276 015a FFF7FEFF 		bl	_ZN5daisy6Switch4InitE12dsy_gpio_pinf
 7277              	.LVL394:
 127:OmniSeed.cpp  **** 
 7278              		.loc 17 127 2 is_stmt 1 view .LVU1699
 7279              	.LBB2625:
 7280              	.LBI2625:
 294:../../libDaisy//src/daisy_core.h ****     {
 7281              		.loc 15 294 5 view .LVU1700
 7282              	.LBE2625:
 7283              		.loc 15 296 9 view .LVU1701
 7284              	.LBB2627:
 7285              	.LBB2626:
 7286              	.LBI2626:
 217:../../libDaisy//src/daisy_core.h **** {
 7287              		.loc 15 217 27 view .LVU1702
 7288              	.LBE2626:
 7289              	.LBE2627:
 219:../../libDaisy//src/daisy_core.h ****     p.port = port;
 7290              		.loc 15 219 5 view .LVU1703
 220:../../libDaisy//src/daisy_core.h ****     p.pin  = pin;
 7291              		.loc 15 220 5 view .LVU1704
 221:../../libDaisy//src/daisy_core.h ****     return p;
 7292              		.loc 15 221 5 view .LVU1705
 222:../../libDaisy//src/daisy_core.h **** }
 7293              		.loc 15 222 5 view .LVU1706
 222:../../libDaisy//src/daisy_core.h **** }
 7294              		.loc 15 222 5 is_stmt 0 view .LVU1707
 7295 015e 0923     		movs	r3, #9
 7296 0160 8DF82460 		strb	r6, [sp, #36]
 127:OmniSeed.cpp  **** 
 7297              		.loc 17 127 12 view .LVU1708
 7298 0164 B0EE480A 		vmov.f32	s0, s16
 7299 0168 8DF82530 		strb	r3, [sp, #37]
 7300              	.LVL395:
 127:OmniSeed.cpp  **** 
 7301              		.loc 17 127 12 view .LVU1709
 7302 016c 0999     		ldr	r1, [sp, #36]
 7303 016e 6848     		ldr	r0, .L81+32
ARM GAS  /var/folders/hl/qgbwny5j0fd895c2c41bk3tw0000gp/T//cckqgw4a.s 			page 180


 7304 0170 FFF7FEFF 		bl	_ZN5daisy6Switch4InitE12dsy_gpio_pinf
 7305              	.LVL396:
 130:OmniSeed.cpp  **** 	res.Init(.025, 24, sample_rate);
 7306              		.loc 17 130 2 is_stmt 1 view .LVU1710
 7307              	.LBB2628:
 7308              	.LBI2628:
  30:PolyPluck_p.h **** {
  31:PolyPluck_p.h ****   public:
  32:PolyPluck_p.h ****     /** Initializes the PolyPluck instance.
  33:PolyPluck_p.h ****         \param sample_rate: rate in Hz that the Process() function will be called.
  34:PolyPluck_p.h ****     */
  35:PolyPluck_p.h ****     void Init(float sample_rate)
 7309              		.loc 9 35 10 view .LVU1711
 7310              	.LBB2629:
  36:PolyPluck_p.h ****     {
  37:PolyPluck_p.h ****         active_voice_ = 0;
 7311              		.loc 9 37 23 is_stmt 0 view .LVU1712
 7312 0174 674B     		ldr	r3, .L81+36
 7313 0176 684D     		ldr	r5, .L81+40
  38:PolyPluck_p.h ****         p_damp_       = 0.95f;
 7314              		.loc 9 38 23 view .LVU1713
 7315 0178 03F2EC42 		addw	r2, r3, #1260
 7316 017c 6749     		ldr	r1, .L81+44
  37:PolyPluck_p.h ****         p_damp_       = 0.95f;
 7317              		.loc 9 37 23 view .LVU1714
 7318 017e C3F8F444 		str	r4, [r3, #1268]
 7319 0182 2E46     		mov	r6, r5
 7320              		.loc 9 38 23 view .LVU1715
 7321 0184 1160     		str	r1, [r2]	@ float
 7322 0186 A5F59C64 		sub	r4, r5, #1248
  39:PolyPluck_p.h ****         p_decay_      = 0.75f;
 7323              		.loc 9 39 23 view .LVU1716
 7324 018a 03F59E62 		add	r2, r3, #1264
 7325 018e 4FF07D53 		mov	r3, #1061158912
 7326 0192 1360     		str	r3, [r2]	@ float
 7327              	.LVL397:
 7328              	.LBB2630:
  40:PolyPluck_p.h ****         for(size_t i = 0; i < num_voices; i++)
 7329              		.loc 9 40 29 is_stmt 1 view .LVU1717
 7330              	.L63:
  41:PolyPluck_p.h ****         {
  42:PolyPluck_p.h ****             plk_[i].Init(sample_rate, plkbuff_[i], 256, PLUCK_MODE_RECURSIVE);
 7331              		.loc 9 42 25 is_stmt 0 view .LVU1718
 7332 0194 2046     		mov	r0, r4
  40:PolyPluck_p.h ****         for(size_t i = 0; i < num_voices; i++)
 7333              		.loc 9 40 29 view .LVU1719
 7334 0196 3434     		adds	r4, r4, #52
 7335              		.loc 9 42 25 view .LVU1720
 7336 0198 2946     		mov	r1, r5
 7337 019a 0023     		movs	r3, #0
 7338 019c 4FF48072 		mov	r2, #256
 7339 01a0 B0EE480A 		vmov.f32	s0, s16
 7340 01a4 FFF7FEFF 		bl	_ZN7daisysp5Pluck4InitEfPfll
 7341              	.LVL398:
 7342              	.LBB2631:
 7343              	.LBI2631:
 7344              		.file 20 "../../DaisySP//Source/PhysicalModeling/pluck.h"
ARM GAS  /var/folders/hl/qgbwny5j0fd895c2c41bk3tw0000gp/T//cckqgw4a.s 			page 181


   1:../../DaisySP//Source/PhysicalModeling/pluck.h **** 
   2:../../DaisySP//Source/PhysicalModeling/pluck.h **** #pragma once
   3:../../DaisySP//Source/PhysicalModeling/pluck.h **** #ifndef DSY_PLUCK_H
   4:../../DaisySP//Source/PhysicalModeling/pluck.h **** #define DSY_PLUCK_H
   5:../../DaisySP//Source/PhysicalModeling/pluck.h **** 
   6:../../DaisySP//Source/PhysicalModeling/pluck.h **** #include <stdint.h>
   7:../../DaisySP//Source/PhysicalModeling/pluck.h **** #ifdef __cplusplus
   8:../../DaisySP//Source/PhysicalModeling/pluck.h **** 
   9:../../DaisySP//Source/PhysicalModeling/pluck.h **** namespace daisysp
  10:../../DaisySP//Source/PhysicalModeling/pluck.h **** {
  11:../../DaisySP//Source/PhysicalModeling/pluck.h **** /** The method of natural decay that the algorithm will use.
  12:../../DaisySP//Source/PhysicalModeling/pluck.h ****     - RECURSIVE: 1st order recursive filter, with coefs .5.
  13:../../DaisySP//Source/PhysicalModeling/pluck.h ****     - WEIGHTED_AVERAGE: weighted averaging. 
  14:../../DaisySP//Source/PhysicalModeling/pluck.h ****     */
  15:../../DaisySP//Source/PhysicalModeling/pluck.h **** enum
  16:../../DaisySP//Source/PhysicalModeling/pluck.h **** {
  17:../../DaisySP//Source/PhysicalModeling/pluck.h ****     PLUCK_MODE_RECURSIVE,
  18:../../DaisySP//Source/PhysicalModeling/pluck.h ****     PLUCK_MODE_WEIGHTED_AVERAGE,
  19:../../DaisySP//Source/PhysicalModeling/pluck.h ****     PLUCK_LAST,
  20:../../DaisySP//Source/PhysicalModeling/pluck.h **** };
  21:../../DaisySP//Source/PhysicalModeling/pluck.h **** 
  22:../../DaisySP//Source/PhysicalModeling/pluck.h **** /** Produces a naturally decaying plucked string or drum sound based on the Karplus-Strong algorith
  23:../../DaisySP//Source/PhysicalModeling/pluck.h **** 
  24:../../DaisySP//Source/PhysicalModeling/pluck.h ****     Ported from soundpipe to DaisySP
  25:../../DaisySP//Source/PhysicalModeling/pluck.h ****     
  26:../../DaisySP//Source/PhysicalModeling/pluck.h ****     This code was originally extracted from the Csound opcode "pluck"
  27:../../DaisySP//Source/PhysicalModeling/pluck.h **** 
  28:../../DaisySP//Source/PhysicalModeling/pluck.h ****     Original Author(s): Barry Vercoe, John ffitch
  29:../../DaisySP//Source/PhysicalModeling/pluck.h ****     Year: 1991
  30:../../DaisySP//Source/PhysicalModeling/pluck.h **** 
  31:../../DaisySP//Source/PhysicalModeling/pluck.h ****     Location: OOps/ugens4.c
  32:../../DaisySP//Source/PhysicalModeling/pluck.h ****     */
  33:../../DaisySP//Source/PhysicalModeling/pluck.h **** class Pluck
  34:../../DaisySP//Source/PhysicalModeling/pluck.h **** {
  35:../../DaisySP//Source/PhysicalModeling/pluck.h ****   public:
  36:../../DaisySP//Source/PhysicalModeling/pluck.h ****     Pluck() {}
  37:../../DaisySP//Source/PhysicalModeling/pluck.h ****     ~Pluck() {}
  38:../../DaisySP//Source/PhysicalModeling/pluck.h ****     /** Initializes the Pluck module.
  39:../../DaisySP//Source/PhysicalModeling/pluck.h **** 
  40:../../DaisySP//Source/PhysicalModeling/pluck.h ****             \param sample_rate: Sample rate of the audio engine being run.
  41:../../DaisySP//Source/PhysicalModeling/pluck.h ****             \param buf: buffer used as an impulse when triggering the Pluck algorithm
  42:../../DaisySP//Source/PhysicalModeling/pluck.h ****             \param npt: number of elementes in buf.
  43:../../DaisySP//Source/PhysicalModeling/pluck.h ****             \param mode: Sets the mode of the algorithm.
  44:../../DaisySP//Source/PhysicalModeling/pluck.h ****     */
  45:../../DaisySP//Source/PhysicalModeling/pluck.h ****     void Init(float sample_rate, float *buf, int32_t npt, int32_t mode);
  46:../../DaisySP//Source/PhysicalModeling/pluck.h **** 
  47:../../DaisySP//Source/PhysicalModeling/pluck.h **** 
  48:../../DaisySP//Source/PhysicalModeling/pluck.h ****     /** Processes the waveform to be generated, returning one sample. This should be called once pe
  49:../../DaisySP//Source/PhysicalModeling/pluck.h ****     */
  50:../../DaisySP//Source/PhysicalModeling/pluck.h ****     float Process(float &trig);
  51:../../DaisySP//Source/PhysicalModeling/pluck.h **** 
  52:../../DaisySP//Source/PhysicalModeling/pluck.h ****     /** 
  53:../../DaisySP//Source/PhysicalModeling/pluck.h ****         Sets the amplitude of the output signal.
  54:../../DaisySP//Source/PhysicalModeling/pluck.h ****         Input range: 0-1?
  55:../../DaisySP//Source/PhysicalModeling/pluck.h ****     */
  56:../../DaisySP//Source/PhysicalModeling/pluck.h ****     inline void SetAmp(float amp) { amp_ = amp; }
  57:../../DaisySP//Source/PhysicalModeling/pluck.h ****     /** Sets the frequency of the output signal in Hz.
ARM GAS  /var/folders/hl/qgbwny5j0fd895c2c41bk3tw0000gp/T//cckqgw4a.s 			page 182


  58:../../DaisySP//Source/PhysicalModeling/pluck.h ****         Input range: Any positive value
  59:../../DaisySP//Source/PhysicalModeling/pluck.h ****     */
  60:../../DaisySP//Source/PhysicalModeling/pluck.h ****     inline void SetFreq(float freq) { freq_ = freq; }
  61:../../DaisySP//Source/PhysicalModeling/pluck.h ****     /** Sets the time it takes for a triggered note to end in seconds.
  62:../../DaisySP//Source/PhysicalModeling/pluck.h ****         Input range: 0-1
  63:../../DaisySP//Source/PhysicalModeling/pluck.h ****     */
  64:../../DaisySP//Source/PhysicalModeling/pluck.h ****     inline void SetDecay(float decay) { decay_ = decay; }
  65:../../DaisySP//Source/PhysicalModeling/pluck.h ****     /** Sets the dampening factor applied by the filter (based on PLUCK_MODE)
  66:../../DaisySP//Source/PhysicalModeling/pluck.h ****         Input range: 0-1
  67:../../DaisySP//Source/PhysicalModeling/pluck.h ****     */
  68:../../DaisySP//Source/PhysicalModeling/pluck.h ****     inline void SetDamp(float damp) { damp_ = damp; }
 7345              		.loc 20 68 17 is_stmt 1 view .LVU1721
 7346              	.LBB2632:
 7347              		.loc 20 68 39 view .LVU1722
 7348              		.loc 20 68 45 is_stmt 0 view .LVU1723
 7349 01a8 5D4B     		ldr	r3, .L81+48
 7350              	.LBE2632:
 7351              	.LBE2631:
 7352              	.LBB2634:
 7353              	.LBB2635:
  56:../../DaisySP//Source/PhysicalModeling/pluck.h ****     /** Sets the frequency of the output signal in Hz.
 7354              		.loc 20 56 42 view .LVU1724
 7355 01aa 5E4A     		ldr	r2, .L81+52
 7356              	.LBE2635:
 7357              	.LBE2634:
  40:PolyPluck_p.h ****         {
 7358              		.loc 9 40 29 view .LVU1725
 7359 01ac B442     		cmp	r4, r6
 7360 01ae 05F58065 		add	r5, r5, #1024
 7361              	.LBB2638:
 7362              	.LBB2633:
 7363              		.loc 20 68 45 view .LVU1726
 7364 01b2 44F8283C 		str	r3, [r4, #-40]	@ float
 7365              	.LVL399:
 7366              		.loc 20 68 45 view .LVU1727
 7367              	.LBE2633:
 7368              	.LBE2638:
 7369              	.LBB2639:
 7370              	.LBI2634:
  56:../../DaisySP//Source/PhysicalModeling/pluck.h ****     /** Sets the frequency of the output signal in Hz.
 7371              		.loc 20 56 17 is_stmt 1 view .LVU1728
 7372              	.LBB2636:
  56:../../DaisySP//Source/PhysicalModeling/pluck.h ****     /** Sets the frequency of the output signal in Hz.
 7373              		.loc 20 56 37 view .LVU1729
 7374              	.LBE2636:
 7375              	.LBE2639:
 7376              	.LBB2640:
 7377              	.LBB2641:
  64:../../DaisySP//Source/PhysicalModeling/pluck.h ****     /** Sets the dampening factor applied by the filter (based on PLUCK_MODE)
 7378              		.loc 20 64 48 is_stmt 0 view .LVU1730
 7379 01b6 44F82C3C 		str	r3, [r4, #-44]	@ float
 7380              	.LBE2641:
 7381              	.LBE2640:
 7382              	.LBB2643:
 7383              	.LBB2637:
  56:../../DaisySP//Source/PhysicalModeling/pluck.h ****     /** Sets the frequency of the output signal in Hz.
 7384              		.loc 20 56 42 view .LVU1731
ARM GAS  /var/folders/hl/qgbwny5j0fd895c2c41bk3tw0000gp/T//cckqgw4a.s 			page 183


 7385 01ba 44F8342C 		str	r2, [r4, #-52]	@ float
 7386              	.LVL400:
  56:../../DaisySP//Source/PhysicalModeling/pluck.h ****     /** Sets the frequency of the output signal in Hz.
 7387              		.loc 20 56 42 view .LVU1732
 7388              	.LBE2637:
 7389              	.LBE2643:
 7390              	.LBB2644:
 7391              	.LBI2640:
  64:../../DaisySP//Source/PhysicalModeling/pluck.h ****     /** Sets the dampening factor applied by the filter (based on PLUCK_MODE)
 7392              		.loc 20 64 17 is_stmt 1 view .LVU1733
 7393              	.LBB2642:
  64:../../DaisySP//Source/PhysicalModeling/pluck.h ****     /** Sets the dampening factor applied by the filter (based on PLUCK_MODE)
 7394              		.loc 20 64 41 view .LVU1734
  64:../../DaisySP//Source/PhysicalModeling/pluck.h ****     /** Sets the dampening factor applied by the filter (based on PLUCK_MODE)
 7395              		.loc 20 64 41 is_stmt 0 view .LVU1735
 7396              	.LBE2642:
 7397              	.LBE2644:
  40:PolyPluck_p.h ****         {
 7398              		.loc 9 40 9 is_stmt 1 view .LVU1736
  40:PolyPluck_p.h ****         {
 7399              		.loc 9 40 29 view .LVU1737
 7400 01be E9D1     		bne	.L63
 7401              	.LBE2630:
  43:PolyPluck_p.h ****             plk_[i].SetDamp(0.85f);
  44:PolyPluck_p.h ****             plk_[i].SetAmp(0.18f);
  45:PolyPluck_p.h ****             plk_[i].SetDecay(0.85f);
  46:PolyPluck_p.h ****         }
  47:PolyPluck_p.h ****         blk_.Init(sample_rate);
 7402              		.loc 9 47 18 is_stmt 0 view .LVU1738
 7403 01c0 B0EE480A 		vmov.f32	s0, s16
 7404 01c4 5848     		ldr	r0, .L81+56
 7405 01c6 FFF7FEFF 		bl	_ZN7daisysp7DcBlock4InitEf
 7406              	.LVL401:
 7407              		.loc 9 47 18 view .LVU1739
 7408              	.LBE2629:
 7409              	.LBE2628:
 131:OmniSeed.cpp  **** 	posc.Init(sample_rate);
 7410              		.loc 17 131 2 is_stmt 1 view .LVU1740
 131:OmniSeed.cpp  **** 	posc.Init(sample_rate);
 7411              		.loc 17 131 10 is_stmt 0 view .LVU1741
 7412 01ca F0EE480A 		vmov.f32	s1, s16
 7413 01ce 1821     		movs	r1, #24
 7414 01d0 9FED560A 		vldr.32	s0, .L81+60
 7415 01d4 5648     		ldr	r0, .L81+64
 7416 01d6 FFF7FEFF 		bl	_ZN7daisysp9Resonator4InitEfif
 7417              	.LVL402:
 132:OmniSeed.cpp  **** 
 7418              		.loc 17 132 2 is_stmt 1 view .LVU1742
 7419              	.LBB2645:
 7420              	.LBI2645:
  14:PolyOsc.h     **** {
  15:PolyOsc.h     **** public:
  16:PolyOsc.h     ****     void Init(float sample_rate)
 7421              		.loc 11 16 10 view .LVU1743
 7422              	.LBB2646:
  17:PolyOsc.h     ****     {
  18:PolyOsc.h     ****         for(int i = 0; i < NUM_OSC; i++)
ARM GAS  /var/folders/hl/qgbwny5j0fd895c2c41bk3tw0000gp/T//cckqgw4a.s 			page 184


 7423              		.loc 11 18 26 view .LVU1744
 7424              	.LBB2647:
 7425              	.LBB2648:
 7426              		.file 21 "../../DaisySP//Source/Synthesis/oscillator.h"
   1:../../DaisySP//Source/Synthesis/oscillator.h **** #pragma once
   2:../../DaisySP//Source/Synthesis/oscillator.h **** #ifndef DSY_OSCILLATOR_H
   3:../../DaisySP//Source/Synthesis/oscillator.h **** #define DSY_OSCILLATOR_H
   4:../../DaisySP//Source/Synthesis/oscillator.h **** #include <stdint.h>
   5:../../DaisySP//Source/Synthesis/oscillator.h **** #include "Utility/dsp.h"
   6:../../DaisySP//Source/Synthesis/oscillator.h **** #ifdef __cplusplus
   7:../../DaisySP//Source/Synthesis/oscillator.h **** 
   8:../../DaisySP//Source/Synthesis/oscillator.h **** namespace daisysp
   9:../../DaisySP//Source/Synthesis/oscillator.h **** {
  10:../../DaisySP//Source/Synthesis/oscillator.h **** /** Synthesis of several waveforms, including polyBLEP bandlimited waveforms.
  11:../../DaisySP//Source/Synthesis/oscillator.h **** */
  12:../../DaisySP//Source/Synthesis/oscillator.h **** class Oscillator
  13:../../DaisySP//Source/Synthesis/oscillator.h **** {
  14:../../DaisySP//Source/Synthesis/oscillator.h ****   public:
  15:../../DaisySP//Source/Synthesis/oscillator.h ****     Oscillator() {}
  16:../../DaisySP//Source/Synthesis/oscillator.h ****     ~Oscillator() {}
  17:../../DaisySP//Source/Synthesis/oscillator.h ****     /** Choices for output waveforms, POLYBLEP are appropriately labeled. Others are naive forms.
  18:../../DaisySP//Source/Synthesis/oscillator.h ****     */
  19:../../DaisySP//Source/Synthesis/oscillator.h ****     enum
  20:../../DaisySP//Source/Synthesis/oscillator.h ****     {
  21:../../DaisySP//Source/Synthesis/oscillator.h ****         WAVE_SIN,
  22:../../DaisySP//Source/Synthesis/oscillator.h ****         WAVE_TRI,
  23:../../DaisySP//Source/Synthesis/oscillator.h ****         WAVE_SAW,
  24:../../DaisySP//Source/Synthesis/oscillator.h ****         WAVE_RAMP,
  25:../../DaisySP//Source/Synthesis/oscillator.h ****         WAVE_SQUARE,
  26:../../DaisySP//Source/Synthesis/oscillator.h ****         WAVE_POLYBLEP_TRI,
  27:../../DaisySP//Source/Synthesis/oscillator.h ****         WAVE_POLYBLEP_SAW,
  28:../../DaisySP//Source/Synthesis/oscillator.h ****         WAVE_POLYBLEP_SQUARE,
  29:../../DaisySP//Source/Synthesis/oscillator.h ****         WAVE_LAST,
  30:../../DaisySP//Source/Synthesis/oscillator.h ****     };
  31:../../DaisySP//Source/Synthesis/oscillator.h **** 
  32:../../DaisySP//Source/Synthesis/oscillator.h **** 
  33:../../DaisySP//Source/Synthesis/oscillator.h ****     /** Initializes the Oscillator
  34:../../DaisySP//Source/Synthesis/oscillator.h **** 
  35:../../DaisySP//Source/Synthesis/oscillator.h ****         \param sample_rate - sample rate of the audio engine being run, and the frequency that the 
  36:../../DaisySP//Source/Synthesis/oscillator.h **** 
  37:../../DaisySP//Source/Synthesis/oscillator.h ****         Defaults:
  38:../../DaisySP//Source/Synthesis/oscillator.h ****         - freq_ = 100 Hz
  39:../../DaisySP//Source/Synthesis/oscillator.h ****         - amp_ = 0.5
  40:../../DaisySP//Source/Synthesis/oscillator.h ****         - waveform_ = sine wave.
  41:../../DaisySP//Source/Synthesis/oscillator.h ****     */
  42:../../DaisySP//Source/Synthesis/oscillator.h ****     void Init(float sample_rate)
  43:../../DaisySP//Source/Synthesis/oscillator.h ****     {
  44:../../DaisySP//Source/Synthesis/oscillator.h ****         sr_        = sample_rate;
  45:../../DaisySP//Source/Synthesis/oscillator.h ****         sr_recip_  = 1.0f / sample_rate;
 7427              		.loc 21 45 27 is_stmt 0 view .LVU1745
 7428 01da F7EE007A 		vmov.f32	s15, #1.0e+0
 7429 01de 554C     		ldr	r4, .L81+68
 7430 01e0 DFF880B1 		ldr	fp, .L81+116
 7431 01e4 C7EE888A 		vdiv.f32	s17, s15, s16
 7432 01e8 04F51075 		add	r5, r4, #576
 7433 01ec 04F5C227 		add	r7, r4, #397312
 7434 01f0 04F59C69 		add	r9, r4, #1248
ARM GAS  /var/folders/hl/qgbwny5j0fd895c2c41bk3tw0000gp/T//cckqgw4a.s 			page 185


 7435 01f4 AA46     		mov	r10, r5
 7436 01f6 04F2E448 		addw	r8, r4, #1252
 7437              	.LVL403:
 7438              	.L64:
 7439              		.loc 21 45 27 view .LVU1746
 7440              	.LBE2648:
 7441              	.LBE2647:
  19:PolyOsc.h     ****         {
  20:PolyOsc.h     ****             sample_rate_ = sample_rate;
 7442              		.loc 11 20 13 is_stmt 1 view .LVU1747
 7443              	.LBB2654:
 7444              	.LBB2649:
  46:../../DaisySP//Source/Synthesis/oscillator.h ****         freq_      = 100.0f;
  47:../../DaisySP//Source/Synthesis/oscillator.h ****         amp_       = 0.5f;
 7445              		.loc 21 47 20 is_stmt 0 view .LVU1748
 7446 01fa 4FF07C53 		mov	r3, #1056964608
  48:../../DaisySP//Source/Synthesis/oscillator.h ****         pw_        = 0.5f;
  49:../../DaisySP//Source/Synthesis/oscillator.h ****         pw_rad_    = pw_ * TWOPI_F;
 7447              		.loc 21 49 20 view .LVU1749
 7448 01fe 4E49     		ldr	r1, .L81+72
  50:../../DaisySP//Source/Synthesis/oscillator.h ****         phase_     = 0.0f;
 7449              		.loc 21 50 20 view .LVU1750
 7450 0200 0022     		movs	r2, #0
  46:../../DaisySP//Source/Synthesis/oscillator.h ****         freq_      = 100.0f;
 7451              		.loc 21 46 20 view .LVU1751
 7452 0202 9FED4E0A 		vldr.32	s0, .L81+76
 7453              	.LBE2649:
 7454              	.LBE2654:
 7455              		.loc 11 20 26 view .LVU1752
 7456 0206 87ED0C8A 		vstr.32	s16, [r7, #48]
  21:PolyOsc.h     ****             osc_[i].Init(sample_rate_);
 7457              		.loc 11 21 13 is_stmt 1 view .LVU1753
 7458              	.LVL404:
 7459              	.LBB2655:
 7460              	.LBI2647:
  42:../../DaisySP//Source/Synthesis/oscillator.h ****     {
 7461              		.loc 21 42 10 view .LVU1754
 7462              	.LBB2650:
  44:../../DaisySP//Source/Synthesis/oscillator.h ****         sr_recip_  = 1.0f / sample_rate;
 7463              		.loc 21 44 9 view .LVU1755
  51:../../DaisySP//Source/Synthesis/oscillator.h ****         phase_inc_ = CalcPhaseInc(freq_);
 7464              		.loc 21 51 34 is_stmt 0 view .LVU1756
 7465 020a 2046     		mov	r0, r4
  49:../../DaisySP//Source/Synthesis/oscillator.h ****         phase_     = 0.0f;
 7466              		.loc 21 49 20 view .LVU1757
 7467 020c 2161     		str	r1, [r4, #16]	@ float
 7468              	.LVL405:
  52:../../DaisySP//Source/Synthesis/oscillator.h ****         waveform_  = WAVE_SIN;
 7469              		.loc 21 52 20 view .LVU1758
 7470 020e 0026     		movs	r6, #0
  50:../../DaisySP//Source/Synthesis/oscillator.h ****         phase_inc_ = CalcPhaseInc(freq_);
 7471              		.loc 21 50 20 view .LVU1759
 7472 0210 E261     		str	r2, [r4, #28]	@ float
 7473              	.LBE2650:
 7474              	.LBE2655:
  18:PolyOsc.h     ****         {
 7475              		.loc 11 18 26 view .LVU1760
ARM GAS  /var/folders/hl/qgbwny5j0fd895c2c41bk3tw0000gp/T//cckqgw4a.s 			page 186


 7476 0212 3034     		adds	r4, r4, #48
 7477              	.LVL406:
 7478              	.LBB2656:
 7479              	.LBB2651:
  47:../../DaisySP//Source/Synthesis/oscillator.h ****         pw_        = 0.5f;
 7480              		.loc 21 47 20 view .LVU1761
 7481 0214 44F82C3C 		str	r3, [r4, #-44]	@ float
  48:../../DaisySP//Source/Synthesis/oscillator.h ****         pw_rad_    = pw_ * TWOPI_F;
 7482              		.loc 21 48 20 view .LVU1762
 7483 0218 44F8243C 		str	r3, [r4, #-36]	@ float
  44:../../DaisySP//Source/Synthesis/oscillator.h ****         sr_recip_  = 1.0f / sample_rate;
 7484              		.loc 21 44 20 view .LVU1763
 7485 021c 04ED078A 		vstr.32	s16, [r4, #-28]
  45:../../DaisySP//Source/Synthesis/oscillator.h ****         freq_      = 100.0f;
 7486              		.loc 21 45 9 is_stmt 1 view .LVU1764
  45:../../DaisySP//Source/Synthesis/oscillator.h ****         freq_      = 100.0f;
 7487              		.loc 21 45 20 is_stmt 0 view .LVU1765
 7488 0220 44ED068A 		vstr.32	s17, [r4, #-24]
  46:../../DaisySP//Source/Synthesis/oscillator.h ****         amp_       = 0.5f;
 7489              		.loc 21 46 9 is_stmt 1 view .LVU1766
  46:../../DaisySP//Source/Synthesis/oscillator.h ****         amp_       = 0.5f;
 7490              		.loc 21 46 20 is_stmt 0 view .LVU1767
 7491 0224 04ED0A0A 		vstr.32	s0, [r4, #-40]
  47:../../DaisySP//Source/Synthesis/oscillator.h ****         pw_        = 0.5f;
 7492              		.loc 21 47 9 is_stmt 1 view .LVU1768
  48:../../DaisySP//Source/Synthesis/oscillator.h ****         pw_rad_    = pw_ * TWOPI_F;
 7493              		.loc 21 48 9 view .LVU1769
  49:../../DaisySP//Source/Synthesis/oscillator.h ****         phase_     = 0.0f;
 7494              		.loc 21 49 9 view .LVU1770
  50:../../DaisySP//Source/Synthesis/oscillator.h ****         phase_inc_ = CalcPhaseInc(freq_);
 7495              		.loc 21 50 9 view .LVU1771
  51:../../DaisySP//Source/Synthesis/oscillator.h ****         waveform_  = WAVE_SIN;
 7496              		.loc 21 51 9 view .LVU1772
  51:../../DaisySP//Source/Synthesis/oscillator.h ****         waveform_  = WAVE_SIN;
 7497              		.loc 21 51 34 is_stmt 0 view .LVU1773
 7498 0228 FFF7FEFF 		bl	_ZN7daisysp10Oscillator12CalcPhaseIncEf
 7499              	.LVL407:
  53:../../DaisySP//Source/Synthesis/oscillator.h ****         eoc_       = true;
 7500              		.loc 21 53 20 view .LVU1774
 7501 022c 0123     		movs	r3, #1
  52:../../DaisySP//Source/Synthesis/oscillator.h ****         eoc_       = true;
 7502              		.loc 21 52 20 view .LVU1775
 7503 022e 04F8306C 		strb	r6, [r4, #-48]
 7504              	.LBE2651:
 7505              	.LBE2656:
  22:PolyOsc.h     ****             osc_[i].SetWaveform(Oscillator::WAVE_SIN);
  23:PolyOsc.h     ****             env_[i].Init(sample_rate_);
 7506              		.loc 11 23 25 view .LVU1776
 7507 0232 2846     		mov	r0, r5
 7508              	.LBB2657:
 7509              	.LBB2652:
 7510              		.loc 21 53 20 view .LVU1777
 7511 0234 04F8033C 		strb	r3, [r4, #-3]
 7512              	.LBE2652:
 7513              	.LBE2657:
  18:PolyOsc.h     ****         {
 7514              		.loc 11 18 26 view .LVU1778
ARM GAS  /var/folders/hl/qgbwny5j0fd895c2c41bk3tw0000gp/T//cckqgw4a.s 			page 187


 7515 0238 3835     		adds	r5, r5, #56
 7516              	.LBB2658:
 7517              	.LBB2653:
  54:../../DaisySP//Source/Synthesis/oscillator.h ****         eor_       = true;
 7518              		.loc 21 54 20 view .LVU1779
 7519 023a 04F8043C 		strb	r3, [r4, #-4]
  51:../../DaisySP//Source/Synthesis/oscillator.h ****         waveform_  = WAVE_SIN;
 7520              		.loc 21 51 20 view .LVU1780
 7521 023e 04ED040A 		vstr.32	s0, [r4, #-16]
  52:../../DaisySP//Source/Synthesis/oscillator.h ****         eoc_       = true;
 7522              		.loc 21 52 9 is_stmt 1 view .LVU1781
  53:../../DaisySP//Source/Synthesis/oscillator.h ****         eor_       = true;
 7523              		.loc 21 53 9 view .LVU1782
 7524              		.loc 21 54 9 view .LVU1783
 7525              	.LVL408:
 7526              		.loc 21 54 9 is_stmt 0 view .LVU1784
 7527              	.LBE2653:
 7528              	.LBE2658:
  22:PolyOsc.h     ****             env_[i].Init(sample_rate_);
 7529              		.loc 11 22 13 is_stmt 1 view .LVU1785
  22:PolyOsc.h     ****             env_[i].Init(sample_rate_);
 7530              		.loc 11 22 13 is_stmt 0 view .LVU1786
 7531              	.LBE2646:
 7532              	.LBE2645:
  55:../../DaisySP//Source/Synthesis/oscillator.h ****     }
  56:../../DaisySP//Source/Synthesis/oscillator.h **** 
  57:../../DaisySP//Source/Synthesis/oscillator.h **** 
  58:../../DaisySP//Source/Synthesis/oscillator.h ****     /** Changes the frequency of the Oscillator, and recalculates phase increment.
  59:../../DaisySP//Source/Synthesis/oscillator.h ****     */
  60:../../DaisySP//Source/Synthesis/oscillator.h ****     inline void SetFreq(const float f)
  61:../../DaisySP//Source/Synthesis/oscillator.h ****     {
  62:../../DaisySP//Source/Synthesis/oscillator.h ****         freq_      = f;
  63:../../DaisySP//Source/Synthesis/oscillator.h ****         phase_inc_ = CalcPhaseInc(f);
  64:../../DaisySP//Source/Synthesis/oscillator.h ****     }
  65:../../DaisySP//Source/Synthesis/oscillator.h **** 
  66:../../DaisySP//Source/Synthesis/oscillator.h **** 
  67:../../DaisySP//Source/Synthesis/oscillator.h ****     /** Sets the amplitude of the waveform.
  68:../../DaisySP//Source/Synthesis/oscillator.h ****     */
  69:../../DaisySP//Source/Synthesis/oscillator.h ****     inline void SetAmp(const float a) { amp_ = a; }
  70:../../DaisySP//Source/Synthesis/oscillator.h ****     /** Sets the waveform to be synthesized by the Process() function.
  71:../../DaisySP//Source/Synthesis/oscillator.h ****     */
  72:../../DaisySP//Source/Synthesis/oscillator.h ****     inline void SetWaveform(const uint8_t wf)
  73:../../DaisySP//Source/Synthesis/oscillator.h ****     {
  74:../../DaisySP//Source/Synthesis/oscillator.h ****         waveform_ = wf < WAVE_LAST ? wf : WAVE_SIN;
 7533              		.loc 21 74 9 is_stmt 1 view .LVU1787
 7534              	.LBB2676:
 7535              	.LBB2675:
 7536              		.loc 11 23 13 view .LVU1788
 7537              		.loc 11 23 25 is_stmt 0 view .LVU1789
 7538 0242 97ED0C0A 		vldr.32	s0, [r7, #48]
 7539 0246 FFF7FEFF 		bl	_ZN7daisysp5AdEnv4InitEf
 7540              	.LVL409:
  24:PolyOsc.h     ****             env_[i].SetTime(ADSR_SEG_ATTACK, 0.01f);
 7541              		.loc 11 24 13 is_stmt 1 view .LVU1790
 7542              	.LBB2659:
 7543              	.LBI2659:
 7544              		.file 22 "../../DaisySP//Source/Control/adenv.h"
ARM GAS  /var/folders/hl/qgbwny5j0fd895c2c41bk3tw0000gp/T//cckqgw4a.s 			page 188


   1:../../DaisySP//Source/Control/adenv.h **** #pragma once
   2:../../DaisySP//Source/Control/adenv.h **** #ifndef ADENV_H
   3:../../DaisySP//Source/Control/adenv.h **** #define ADENV_H
   4:../../DaisySP//Source/Control/adenv.h **** #include <stdint.h>
   5:../../DaisySP//Source/Control/adenv.h **** #ifdef __cplusplus
   6:../../DaisySP//Source/Control/adenv.h **** 
   7:../../DaisySP//Source/Control/adenv.h **** namespace daisysp
   8:../../DaisySP//Source/Control/adenv.h **** {
   9:../../DaisySP//Source/Control/adenv.h **** /** Distinct stages that the phase of the envelope can be located in.
  10:../../DaisySP//Source/Control/adenv.h ****     @see AdEnv
  11:../../DaisySP//Source/Control/adenv.h **** */
  12:../../DaisySP//Source/Control/adenv.h **** enum AdEnvSegment
  13:../../DaisySP//Source/Control/adenv.h **** {
  14:../../DaisySP//Source/Control/adenv.h ****     /** located at phase location 0, and not currently running */
  15:../../DaisySP//Source/Control/adenv.h ****     ADENV_SEG_IDLE,
  16:../../DaisySP//Source/Control/adenv.h ****     /** First segment of envelope where phase moves from MIN value to MAX value */
  17:../../DaisySP//Source/Control/adenv.h ****     ADENV_SEG_ATTACK,
  18:../../DaisySP//Source/Control/adenv.h ****     /** Second segment of envelope where phase moves from MAX to MIN value */
  19:../../DaisySP//Source/Control/adenv.h ****     ADENV_SEG_DECAY,
  20:../../DaisySP//Source/Control/adenv.h ****     /** The final segment of the envelope (currently decay) */
  21:../../DaisySP//Source/Control/adenv.h ****     ADENV_SEG_LAST,
  22:../../DaisySP//Source/Control/adenv.h **** };
  23:../../DaisySP//Source/Control/adenv.h **** 
  24:../../DaisySP//Source/Control/adenv.h **** /** Trigger-able envelope with adjustable min/max, and independent per-segment time control.
  25:../../DaisySP//Source/Control/adenv.h **** 
  26:../../DaisySP//Source/Control/adenv.h ****     \author shensley
  27:../../DaisySP//Source/Control/adenv.h ****     \todo - Add Cycling
  28:../../DaisySP//Source/Control/adenv.h ****     \todo - Implement Curve (its only linear for now).
  29:../../DaisySP//Source/Control/adenv.h ****     \todo - Maybe make this an ADsr_ that has AD/AR/Asr_ modes.
  30:../../DaisySP//Source/Control/adenv.h ****  */
  31:../../DaisySP//Source/Control/adenv.h **** class AdEnv
  32:../../DaisySP//Source/Control/adenv.h **** {
  33:../../DaisySP//Source/Control/adenv.h ****   public:
  34:../../DaisySP//Source/Control/adenv.h ****     AdEnv() {}
  35:../../DaisySP//Source/Control/adenv.h ****     ~AdEnv() {}
  36:../../DaisySP//Source/Control/adenv.h ****     /** Initializes the ad envelope.
  37:../../DaisySP//Source/Control/adenv.h **** 
  38:../../DaisySP//Source/Control/adenv.h ****         Defaults:
  39:../../DaisySP//Source/Control/adenv.h ****             - current segment = idle
  40:../../DaisySP//Source/Control/adenv.h ****             - curve = linear
  41:../../DaisySP//Source/Control/adenv.h ****             - phase = 0
  42:../../DaisySP//Source/Control/adenv.h ****             - min = 0
  43:../../DaisySP//Source/Control/adenv.h ****             - max = 1
  44:../../DaisySP//Source/Control/adenv.h **** 
  45:../../DaisySP//Source/Control/adenv.h ****         \param sample_rate      sample rate of the audio engine being run
  46:../../DaisySP//Source/Control/adenv.h ****     */
  47:../../DaisySP//Source/Control/adenv.h ****     void Init(float sample_rate);
  48:../../DaisySP//Source/Control/adenv.h **** 
  49:../../DaisySP//Source/Control/adenv.h ****     /** Processes the current sample of the envelope. This should be called once
  50:../../DaisySP//Source/Control/adenv.h ****         per sample period.
  51:../../DaisySP//Source/Control/adenv.h ****         \return the current envelope value.
  52:../../DaisySP//Source/Control/adenv.h ****     */
  53:../../DaisySP//Source/Control/adenv.h ****     float Process();
  54:../../DaisySP//Source/Control/adenv.h **** 
  55:../../DaisySP//Source/Control/adenv.h ****     /** Starts or retriggers the envelope.*/
  56:../../DaisySP//Source/Control/adenv.h ****     inline void Trigger() { trigger_ = 1; }
  57:../../DaisySP//Source/Control/adenv.h ****     /** Sets the length of time (in seconds) for a specific segment. */
ARM GAS  /var/folders/hl/qgbwny5j0fd895c2c41bk3tw0000gp/T//cckqgw4a.s 			page 189


  58:../../DaisySP//Source/Control/adenv.h ****     inline void SetTime(uint8_t seg, float time) { segment_time_[seg] = time; }
 7545              		.loc 22 58 17 view .LVU1791
 7546              	.LBB2660:
 7547              		.loc 22 58 52 view .LVU1792
 7548              		.loc 22 58 71 is_stmt 0 view .LVU1793
 7549 024a 3D4A     		ldr	r2, .L81+80
 7550              	.LBE2660:
 7551              	.LBE2659:
 7552              	.LBB2662:
 7553              	.LBB2663:
 7554 024c 3D4B     		ldr	r3, .L81+84
 7555              	.LBE2663:
 7556              	.LBE2662:
  25:PolyOsc.h     ****             env_[i].SetTime(ADSR_SEG_DECAY, 0.1f);
  26:PolyOsc.h     ****             rev_.Init(sample_rate);
 7557              		.loc 11 26 22 view .LVU1794
 7558 024e B0EE480A 		vmov.f32	s0, s16
 7559              	.LBB2665:
 7560              	.LBB2661:
 7561              		.loc 22 58 71 view .LVU1795
 7562 0252 45F8302C 		str	r2, [r5, #-48]	@ float
 7563              	.LVL410:
 7564              		.loc 22 58 71 view .LVU1796
 7565              	.LBE2661:
 7566              	.LBE2665:
  25:PolyOsc.h     ****             env_[i].SetTime(ADSR_SEG_DECAY, 0.1f);
 7567              		.loc 11 25 13 is_stmt 1 view .LVU1797
 7568              	.LBB2666:
 7569              	.LBI2662:
 7570              		.loc 22 58 17 view .LVU1798
 7571              	.LBB2664:
 7572              		.loc 22 58 52 view .LVU1799
 7573              		.loc 22 58 71 is_stmt 0 view .LVU1800
 7574 0256 45F82C3C 		str	r3, [r5, #-44]	@ float
 7575              	.LVL411:
 7576              		.loc 22 58 71 view .LVU1801
 7577              	.LBE2664:
 7578              	.LBE2666:
 7579              		.loc 11 26 13 is_stmt 1 view .LVU1802
 7580              		.loc 11 26 22 is_stmt 0 view .LVU1803
 7581 025a 3B48     		ldr	r0, .L81+88
 7582 025c FFF7FEFF 		bl	_ZN7daisysp8ReverbSc4InitEf
 7583              	.LVL412:
  27:PolyOsc.h     ****             rev_.SetFeedback(0.9f);
 7584              		.loc 11 27 13 is_stmt 1 view .LVU1804
 7585              	.LBB2667:
 7586              	.LBI2667:
  42:../../DaisySP//Source/Effects/reverbsc.h ****     /** Initializes the reverb module, and sets the sample_rate at which the Process function will 
  43:../../DaisySP//Source/Effects/reverbsc.h ****         Returns 0 if all good, or 1 if it runs out of delay times exceed maximum allowed.
  44:../../DaisySP//Source/Effects/reverbsc.h ****     */
  45:../../DaisySP//Source/Effects/reverbsc.h ****     int Init(float sample_rate);
  46:../../DaisySP//Source/Effects/reverbsc.h **** 
  47:../../DaisySP//Source/Effects/reverbsc.h ****     /** Process the input through the reverb, and updates values of out1, and out2 with the new pro
  48:../../DaisySP//Source/Effects/reverbsc.h ****     */
  49:../../DaisySP//Source/Effects/reverbsc.h ****     int Process(const float &in1, const float &in2, float *out1, float *out2);
  50:../../DaisySP//Source/Effects/reverbsc.h **** 
  51:../../DaisySP//Source/Effects/reverbsc.h ****     /** controls the reverb time. reverb tail becomes infinite when set to 1.0
ARM GAS  /var/folders/hl/qgbwny5j0fd895c2c41bk3tw0000gp/T//cckqgw4a.s 			page 190


  52:../../DaisySP//Source/Effects/reverbsc.h ****         \param fb - sets reverb time. range: 0.0 to 1.0
  53:../../DaisySP//Source/Effects/reverbsc.h ****     */
  54:../../DaisySP//Source/Effects/reverbsc.h ****     inline void SetFeedback(const float &fb) { feedback_ = fb; }
 7587              		.loc 12 54 17 view .LVU1805
 7588              	.LBB2668:
 7589              		.loc 12 54 48 view .LVU1806
 7590              		.loc 12 54 58 is_stmt 0 view .LVU1807
 7591 0260 3A4A     		ldr	r2, .L81+92
 7592              	.LBE2668:
 7593              	.LBE2667:
 7594              	.LBB2670:
 7595              	.LBB2671:
  55:../../DaisySP//Source/Effects/reverbsc.h ****     /** controls the internal dampening filter's cutoff frequency.
  56:../../DaisySP//Source/Effects/reverbsc.h ****         \param freq - low pass frequency. range: 0.0 to sample_rate / 2
  57:../../DaisySP//Source/Effects/reverbsc.h ****     */
  58:../../DaisySP//Source/Effects/reverbsc.h ****     inline void SetLpFreq(const float &freq) { lpfreq_ = freq; }
 7596              		.loc 12 58 56 view .LVU1808
 7597 0262 3B4B     		ldr	r3, .L81+96
 7598              	.LBE2671:
 7599              	.LBE2670:
  18:PolyOsc.h     ****         {
 7600              		.loc 11 18 26 view .LVU1809
 7601 0264 5445     		cmp	r4, r10
 7602              	.LBB2673:
 7603              	.LBB2669:
  54:../../DaisySP//Source/Effects/reverbsc.h ****     /** controls the internal dampening filter's cutoff frequency.
 7604              		.loc 12 54 58 view .LVU1810
 7605 0266 C9F80020 		str	r2, [r9]	@ float
 7606              	.LVL413:
  54:../../DaisySP//Source/Effects/reverbsc.h ****     /** controls the internal dampening filter's cutoff frequency.
 7607              		.loc 12 54 58 view .LVU1811
 7608              	.LBE2669:
 7609              	.LBE2673:
  28:PolyOsc.h     ****             rev_.SetLpFreq(18000.0f);
 7610              		.loc 11 28 13 is_stmt 1 view .LVU1812
 7611              	.LBB2674:
 7612              	.LBI2670:
 7613              		.loc 12 58 17 view .LVU1813
 7614              	.LBB2672:
 7615              		.loc 12 58 48 view .LVU1814
 7616              		.loc 12 58 56 is_stmt 0 view .LVU1815
 7617 026a C8F80030 		str	r3, [r8]	@ float
 7618              	.LVL414:
 7619              		.loc 12 58 56 view .LVU1816
 7620              	.LBE2672:
 7621              	.LBE2674:
  29:PolyOsc.h     ****             trig_[i] = false; // set trigger to false initially
 7622              		.loc 11 29 13 is_stmt 1 view .LVU1817
 7623              		.loc 11 29 22 is_stmt 0 view .LVU1818
 7624 026e 0BF8016F 		strb	r6, [fp, #1]!
 7625              	.LVL415:
  18:PolyOsc.h     ****         {
 7626              		.loc 11 18 9 is_stmt 1 view .LVU1819
  18:PolyOsc.h     ****         {
 7627              		.loc 11 18 26 view .LVU1820
 7628 0272 C2D1     		bne	.L64
 7629              	.LVL416:
ARM GAS  /var/folders/hl/qgbwny5j0fd895c2c41bk3tw0000gp/T//cckqgw4a.s 			page 191


  18:PolyOsc.h     ****         {
 7630              		.loc 11 18 26 is_stmt 0 view .LVU1821
 7631              	.LBE2675:
 7632              	.LBE2676:
 134:OmniSeed.cpp  **** 	while(1) {		
 7633              		.loc 17 134 2 is_stmt 1 view .LVU1822
 134:OmniSeed.cpp  **** 	while(1) {		
 7634              		.loc 17 134 15 is_stmt 0 view .LVU1823
 7635 0274 3749     		ldr	r1, .L81+100
 7636 0276 1E48     		ldr	r0, .L81
 7637 0278 254E     		ldr	r6, .L81+32
 7638 027a DFF8EC90 		ldr	r9, .L81+120
 7639 027e DFF8EC80 		ldr	r8, .L81+124
 7640 0282 354D     		ldr	r5, .L81+104
 7641 0284 354F     		ldr	r7, .L81+108
 7642 0286 DFF8E8B0 		ldr	fp, .L81+128
 7643 028a DFF8E8A0 		ldr	r10, .L81+132
 7644 028e 344C     		ldr	r4, .L81+112
 7645 0290 FFF7FEFF 		bl	_ZN5daisy9DaisySeed10StartAudioEPFvPKPKfPPfjE
 7646              	.LVL417:
 7647 0294 0FE0     		b	.L69
 7648              	.LVL418:
 7649              	.L80:
 7650              	.LBB2677:
 148:OmniSeed.cpp  **** 			trig = 1.0f;
 7651              		.loc 17 148 4 is_stmt 1 discriminator 1 view .LVU1824
 7652              	.LBE2677:
  50:touchEvent.h  **** }
 7653              		.loc 14 50 5 discriminator 1 view .LVU1825
 7654              	.LBB2688:
 147:OmniSeed.cpp  **** 			touchedPad = TouchedNote();
 7655              		.loc 17 147 26 is_stmt 0 discriminator 1 view .LVU1826
 7656 0296 3878     		ldrb	r0, [r7]	@ zero_extendqisi2
 149:OmniSeed.cpp  **** 			hasTriggered = true; // set the trigger flag to prevent repeated triggers
 7657              		.loc 17 149 9 discriminator 1 view .LVU1827
 7658 0298 4FF07E5C 		mov	ip, #1065353216
 150:OmniSeed.cpp  **** 			test = true;
 7659              		.loc 17 150 17 discriminator 1 view .LVU1828
 7660 029c 0121     		movs	r1, #1
 147:OmniSeed.cpp  **** 			touchedPad = TouchedNote();
 7661              		.loc 17 147 26 discriminator 1 view .LVU1829
 7662 029e 10BB     		cbnz	r0, .L67
 148:OmniSeed.cpp  **** 			trig = 1.0f;
 7663              		.loc 17 148 15 view .LVU1830
 7664 02a0 CBF80030 		str	r3, [fp]
 149:OmniSeed.cpp  **** 			hasTriggered = true; // set the trigger flag to prevent repeated triggers
 7665              		.loc 17 149 4 is_stmt 1 view .LVU1831
 149:OmniSeed.cpp  **** 			hasTriggered = true; // set the trigger flag to prevent repeated triggers
 7666              		.loc 17 149 9 is_stmt 0 view .LVU1832
 7667 02a4 CAF800C0 		str	ip, [r10]	@ float
 150:OmniSeed.cpp  **** 			test = true;
 7668              		.loc 17 150 4 is_stmt 1 view .LVU1833
 150:OmniSeed.cpp  **** 			test = true;
 7669              		.loc 17 150 17 is_stmt 0 view .LVU1834
 7670 02a8 3970     		strb	r1, [r7]
 151:OmniSeed.cpp  **** 			//hw.PrintLine("Pad: %d", touchedPad);
 7671              		.loc 17 151 4 is_stmt 1 view .LVU1835
ARM GAS  /var/folders/hl/qgbwny5j0fd895c2c41bk3tw0000gp/T//cckqgw4a.s 			page 192


 151:OmniSeed.cpp  **** 			//hw.PrintLine("Pad: %d", touchedPad);
 7672              		.loc 17 151 9 is_stmt 0 view .LVU1836
 7673 02aa 2170     		strb	r1, [r4]
 7674              	.L68:
 155:OmniSeed.cpp  **** 	System::Delay(10);
 7675              		.loc 17 155 2 is_stmt 1 view .LVU1837
 155:OmniSeed.cpp  **** 	System::Delay(10);
 7676              		.loc 17 155 8 is_stmt 0 view .LVU1838
 7677 02ac FFF7FEFF 		bl	_Z6syslogv
 7678              	.LVL419:
 156:OmniSeed.cpp  **** 	}
 7679              		.loc 17 156 2 is_stmt 1 view .LVU1839
 156:OmniSeed.cpp  **** 	}
 7680              		.loc 17 156 15 is_stmt 0 view .LVU1840
 7681 02b0 0A20     		movs	r0, #10
 7682 02b2 FFF7FEFF 		bl	_ZN5daisy6System5DelayEm
 7683              	.LVL420:
 156:OmniSeed.cpp  **** 	}
 7684              		.loc 17 156 15 view .LVU1841
 7685              	.LBE2688:
 135:OmniSeed.cpp  **** 		systemReset();
 7686              		.loc 17 135 2 is_stmt 1 view .LVU1842
 7687              	.L69:
 135:OmniSeed.cpp  **** 		systemReset();
 7688              		.loc 17 135 2 view .LVU1843
 7689              	.LBB2689:
 136:OmniSeed.cpp  **** 		std::pair<int, int> key = kb.iReadKey();
 7690              		.loc 17 136 3 view .LVU1844
 7691              	.LBB2678:
 7692              	.LBI2678:
 177:OmniSeed.cpp  **** 
 178:OmniSeed.cpp  **** float voiceSelect(float rootFreq, float augFreq){
 179:OmniSeed.cpp  **** 	voice = hw.adc.Get(rot);
 180:OmniSeed.cpp  **** 	float sig;
 181:OmniSeed.cpp  **** 	float oct = buttonHandler();
 182:OmniSeed.cpp  **** 	float finalNote = (rootFreq + augFreq + oct);
 183:OmniSeed.cpp  **** 	float fnFreq = mtof(finalNote);
 184:OmniSeed.cpp  **** 	float t_sig = touchedPad;
 185:OmniSeed.cpp  **** 	switch (voice)
 186:OmniSeed.cpp  **** 	{
 187:OmniSeed.cpp  **** 	case 0 ... 1000:
 188:OmniSeed.cpp  **** 		//plucker
 189:OmniSeed.cpp  **** 		sig = pluck.Process(trig, finalNote);
 190:OmniSeed.cpp  **** 		break;
 191:OmniSeed.cpp  **** 
 192:OmniSeed.cpp  **** 	case 14000 ... 25000:
 193:OmniSeed.cpp  **** 		// resonator 
 194:OmniSeed.cpp  **** 		res.SetFreq(fnFreq); 
 195:OmniSeed.cpp  **** 		sig = res.Process(t_sig);
 196:OmniSeed.cpp  **** 		break;
 197:OmniSeed.cpp  **** 
 198:OmniSeed.cpp  **** 	case 26000 ... 36000:
 199:OmniSeed.cpp  **** 		// poly oscillator
 200:OmniSeed.cpp  **** 		posc.SetFrequency(touchedPad, fnFreq);
 201:OmniSeed.cpp  **** 		posc.SetTrigger(touchedPad, test);
 202:OmniSeed.cpp  **** 		sig = posc.Process();
 203:OmniSeed.cpp  **** 		break;
ARM GAS  /var/folders/hl/qgbwny5j0fd895c2c41bk3tw0000gp/T//cckqgw4a.s 			page 193


 204:OmniSeed.cpp  **** 
 205:OmniSeed.cpp  **** 	case 45000 ... 55000:
 206:OmniSeed.cpp  **** 		break;
 207:OmniSeed.cpp  **** 
 208:OmniSeed.cpp  **** 	case 58000 ... 70000:
 209:OmniSeed.cpp  **** 		break;
 210:OmniSeed.cpp  **** 
 211:OmniSeed.cpp  **** 
 212:OmniSeed.cpp  **** 	default:
 213:OmniSeed.cpp  **** 		voice = 0;
 214:OmniSeed.cpp  **** 		break;
 215:OmniSeed.cpp  **** 	}
 216:OmniSeed.cpp  **** 		
 217:OmniSeed.cpp  **** 	
 218:OmniSeed.cpp  **** 	return sig;
 219:OmniSeed.cpp  **** }
 220:OmniSeed.cpp  **** 
 221:OmniSeed.cpp  **** float buttonHandler(){
 222:OmniSeed.cpp  **** 	float octave;
 223:OmniSeed.cpp  **** 	if(oct1.Pressed()){
 224:OmniSeed.cpp  **** 		octave = 12;
 225:OmniSeed.cpp  **** 	} else if(oct2.Pressed()){
 226:OmniSeed.cpp  **** 		octave = -12;
 227:OmniSeed.cpp  **** 	} else { octave = 0; }
 228:OmniSeed.cpp  **** 
 229:OmniSeed.cpp  **** 	return octave;
 230:OmniSeed.cpp  **** }
 231:OmniSeed.cpp  **** 
 232:OmniSeed.cpp  **** void systemReset(){
 7693              		.loc 17 232 6 view .LVU1845
 7694              	.LBB2679:
 233:OmniSeed.cpp  **** 	reset.Debounce();
 7695              		.loc 17 233 2 view .LVU1846
 7696              		.loc 17 233 16 is_stmt 0 view .LVU1847
 7697 02b6 1648     		ldr	r0, .L81+32
 7698 02b8 FFF7FEFF 		bl	_ZN5daisy6Switch8DebounceEv
 7699              	.LVL421:
 234:OmniSeed.cpp  **** 	if(reset.Pressed()){
 7700              		.loc 17 234 2 is_stmt 1 view .LVU1848
 7701              	.LBB2680:
 7702              	.LBI2680:
  43:../../libDaisy//src/hid/switch.h **** 
  44:../../libDaisy//src/hid/switch.h ****     /** 
  45:../../libDaisy//src/hid/switch.h ****     Initializes the switch object with a given port/pin combo.
  46:../../libDaisy//src/hid/switch.h ****     \param pin port/pin object to tell the switch which hardware pin to use.
  47:../../libDaisy//src/hid/switch.h ****     \param update_rate Does nothing. Backwards compatibility until next breaking update.
  48:../../libDaisy//src/hid/switch.h ****     \param t switch type -- Default: TYPE_MOMENTARY
  49:../../libDaisy//src/hid/switch.h ****     \param pol switch polarity -- Default: POLARITY_INVERTED
  50:../../libDaisy//src/hid/switch.h ****     \param pu switch pull up/down -- Default: PULL_UP
  51:../../libDaisy//src/hid/switch.h ****     */
  52:../../libDaisy//src/hid/switch.h ****     void
  53:../../libDaisy//src/hid/switch.h ****     Init(dsy_gpio_pin pin, float update_rate, Type t, Polarity pol, Pull pu);
  54:../../libDaisy//src/hid/switch.h **** 
  55:../../libDaisy//src/hid/switch.h ****     /**
  56:../../libDaisy//src/hid/switch.h ****        Simplified Init.
  57:../../libDaisy//src/hid/switch.h ****        \param pin port/pin object to tell the switch which hardware pin to use.
  58:../../libDaisy//src/hid/switch.h ****        \param update_rate Left for backwards compatibility until next breaking change.
ARM GAS  /var/folders/hl/qgbwny5j0fd895c2c41bk3tw0000gp/T//cckqgw4a.s 			page 194


  59:../../libDaisy//src/hid/switch.h ****     */
  60:../../libDaisy//src/hid/switch.h ****     void Init(dsy_gpio_pin pin, float update_rate = 0.f);
  61:../../libDaisy//src/hid/switch.h **** 
  62:../../libDaisy//src/hid/switch.h ****     /** 
  63:../../libDaisy//src/hid/switch.h ****     Called at update_rate to debounce and handle timing for the switch.
  64:../../libDaisy//src/hid/switch.h ****     In order for events not to be missed, its important that the Edge/Pressed checks
  65:../../libDaisy//src/hid/switch.h ****     be made at the same rate as the debounce function is being called.
  66:../../libDaisy//src/hid/switch.h ****     */
  67:../../libDaisy//src/hid/switch.h ****     void Debounce();
  68:../../libDaisy//src/hid/switch.h **** 
  69:../../libDaisy//src/hid/switch.h ****     /** \return true if a button was just pressed. */
  70:../../libDaisy//src/hid/switch.h ****     inline bool RisingEdge() const { return updated_ ? state_ == 0x7f : false; }
  71:../../libDaisy//src/hid/switch.h **** 
  72:../../libDaisy//src/hid/switch.h ****     /** \return true if the button was just released */
  73:../../libDaisy//src/hid/switch.h ****     inline bool FallingEdge() const
  74:../../libDaisy//src/hid/switch.h ****     {
  75:../../libDaisy//src/hid/switch.h ****         return updated_ ? state_ == 0x80 : false;
  76:../../libDaisy//src/hid/switch.h ****     }
  77:../../libDaisy//src/hid/switch.h **** 
  78:../../libDaisy//src/hid/switch.h ****     /** \return true if the button is held down (or if the toggle is on) */
  79:../../libDaisy//src/hid/switch.h ****     inline bool Pressed() const { return state_ == 0xff; }
 7703              		.loc 1 79 17 view .LVU1849
 7704              	.LBB2681:
 7705              		.loc 1 79 35 view .LVU1850
 7706              		.loc 1 79 35 is_stmt 0 view .LVU1851
 7707              	.LBE2681:
 7708              	.LBE2680:
 7709              		.loc 17 234 2 view .LVU1852
 7710 02bc B37A     		ldrb	r3, [r6, #10]	@ zero_extendqisi2
 7711 02be FF2B     		cmp	r3, #255
 7712 02c0 13D0     		beq	.L79
 7713              	.L65:
 7714              	.LBE2679:
 7715              	.LBE2678:
 137:OmniSeed.cpp  **** 		
 7716              		.loc 17 137 3 is_stmt 1 view .LVU1853
 137:OmniSeed.cpp  **** 		
 7717              		.loc 17 137 41 is_stmt 0 view .LVU1854
 7718 02c2 1049     		ldr	r1, .L81+20
 7719 02c4 0AA8     		add	r0, sp, #40
 7720 02c6 FFF7FEFF 		bl	_ZN14KeyboardMatrix8iReadKeyEv
 7721              	.LVL422:
 140:OmniSeed.cpp  **** 			metaScale = key.second;
 7722              		.loc 17 140 4 is_stmt 1 view .LVU1855
 146:OmniSeed.cpp  **** 		if(TouchedNote() != 99 && !hasTriggered){
 7723              		.loc 17 146 3 view .LVU1856
 137:OmniSeed.cpp  **** 		
 7724              		.loc 17 137 41 is_stmt 0 view .LVU1857
 7725 02ca 0A9B     		ldr	r3, [sp, #40]
 7726              	.LVL423:
 139:OmniSeed.cpp  **** 			metaKey = key.first;
 7727              		.loc 17 139 3 is_stmt 1 view .LVU1858
 7728 02cc 632B     		cmp	r3, #99
 7729 02ce 04D0     		beq	.L66
 141:OmniSeed.cpp  **** 			//hw.Print("Key of: %d", metaKey);
 7730              		.loc 17 141 14 is_stmt 0 view .LVU1859
 7731 02d0 0B9A     		ldr	r2, [sp, #44]
ARM GAS  /var/folders/hl/qgbwny5j0fd895c2c41bk3tw0000gp/T//cckqgw4a.s 			page 195


 140:OmniSeed.cpp  **** 			metaScale = key.second;
 7732              		.loc 17 140 12 view .LVU1860
 7733 02d2 C9F80030 		str	r3, [r9]
 141:OmniSeed.cpp  **** 			//hw.Print("Key of: %d", metaKey);
 7734              		.loc 17 141 4 is_stmt 1 view .LVU1861
 141:OmniSeed.cpp  **** 			//hw.Print("Key of: %d", metaKey);
 7735              		.loc 17 141 14 is_stmt 0 view .LVU1862
 7736 02d6 C8F80020 		str	r2, [r8]
 7737              	.L66:
 146:OmniSeed.cpp  **** 		if(TouchedNote() != 99 && !hasTriggered){
 7738              		.loc 17 146 13 view .LVU1863
 7739 02da FFF7FEFF 		bl	_Z10touchEventv
 7740              	.LVL424:
 147:OmniSeed.cpp  **** 			touchedPad = TouchedNote();
 7741              		.loc 17 147 3 is_stmt 1 view .LVU1864
 7742              	.LBB2683:
 7743              	.LBI2683:
  49:touchEvent.h  ****     return pad;
 7744              		.loc 14 49 5 view .LVU1865
 7745              	.LBB2684:
  50:touchEvent.h  **** }
 7746              		.loc 14 50 5 view .LVU1866
 7747              	.LBE2684:
 7748              	.LBE2683:
 153:OmniSeed.cpp  **** 
 7749              		.loc 17 153 12 view .LVU1867
 7750              	.LBB2686:
 7751              	.LBB2685:
  50:touchEvent.h  **** }
 7752              		.loc 14 50 12 is_stmt 0 view .LVU1868
 7753 02de 2B68     		ldr	r3, [r5]
 7754              	.LBE2685:
 7755              	.LBE2686:
 153:OmniSeed.cpp  **** 
 7756              		.loc 17 153 17 view .LVU1869
 7757 02e0 0022     		movs	r2, #0
 147:OmniSeed.cpp  **** 			touchedPad = TouchedNote();
 7758              		.loc 17 147 26 view .LVU1870
 7759 02e2 632B     		cmp	r3, #99
 7760 02e4 D7D1     		bne	.L80
 7761              	.L67:
 153:OmniSeed.cpp  **** 
 7762              		.loc 17 153 17 view .LVU1871
 7763 02e6 2270     		strb	r2, [r4]
 7764 02e8 E0E7     		b	.L68
 7765              	.LVL425:
 7766              	.L79:
 7767              	.LBB2687:
 7768              	.LBB2682:
 235:OmniSeed.cpp  **** 		System::ResetToBootloader();
 7769              		.loc 17 235 3 is_stmt 1 view .LVU1872
 7770              		.loc 17 235 28 is_stmt 0 view .LVU1873
 7771 02ea FFF7FEFF 		bl	_ZN5daisy6System17ResetToBootloaderEv
 7772              	.LVL426:
 7773 02ee E8E7     		b	.L65
 7774              	.L82:
 7775              		.align	2
ARM GAS  /var/folders/hl/qgbwny5j0fd895c2c41bk3tw0000gp/T//cckqgw4a.s 			page 196


 7776              	.L81:
 7777 02f0 00000000 		.word	.LANCHOR3
 7778 02f4 18000000 		.word	.LANCHOR3+24
 7779 02f8 DB0FC940 		.word	1086918619
 7780 02fc 0000C07F 		.word	2143289344
 7781 0300 00000000 		.word	.LANCHOR6
 7782 0304 00000000 		.word	.LANCHOR7
 7783 0308 00000000 		.word	.LANCHOR8
 7784 030c 00000000 		.word	.LANCHOR9
 7785 0310 00000000 		.word	.LANCHOR10
 7786 0314 00600000 		.word	pluck+24576
 7787 0318 EC040000 		.word	pluck+1260
 7788 031c 3333733F 		.word	1064514355
 7789 0320 9A99593F 		.word	1062836634
 7790 0324 EC51383E 		.word	1043878380
 7791 0328 00000000 		.word	pluck
 7792 032c CDCCCC3C 		.word	1020054733
 7793 0330 00000000 		.word	.LANCHOR11
 7794 0334 00000000 		.word	posc
 7795 0338 DB0F4940 		.word	1078530011
 7796 033c 0000C842 		.word	1120403456
 7797 0340 0AD7233C 		.word	1008981770
 7798 0344 CDCCCC3D 		.word	1036831949
 7799 0348 E0040000 		.word	posc+1248
 7800 034c 6666663F 		.word	1063675494
 7801 0350 00A08C46 		.word	1183621120
 7802 0354 00000000 		.word	_Z13AudioCallbackPKPKfPPfj
 7803 0358 00000000 		.word	.LANCHOR4
 7804 035c 00000000 		.word	.LANCHOR5
 7805 0360 00000000 		.word	.LANCHOR16
 7806 0364 23100600 		.word	posc+397347
 7807 0368 00000000 		.word	.LANCHOR12
 7808 036c 00000000 		.word	.LANCHOR13
 7809 0370 00000000 		.word	.LANCHOR14
 7810 0374 00000000 		.word	.LANCHOR15
 7811              	.LBE2682:
 7812              	.LBE2687:
 7813              	.LBE2689:
 7814              		.cfi_endproc
 7815              	.LFE4815:
 7817              		.section	.text._Z11voiceSelectff,"ax",%progbits
 7818              		.align	1
 7819              		.p2align 2,,3
 7820              		.global	_Z11voiceSelectff
 7821              		.syntax unified
 7822              		.thumb
 7823              		.thumb_func
 7824              		.fpu fpv5-d16
 7826              	_Z11voiceSelectff:
 7827              	.LVL427:
 7828              	.LFB4824:
 178:OmniSeed.cpp  **** 	voice = hw.adc.Get(rot);
 7829              		.loc 17 178 49 is_stmt 1 view -0
 7830              		.cfi_startproc
 7831              		@ args = 0, pretend = 0, frame = 16
 7832              		@ frame_needed = 0, uses_anonymous_args = 0
 179:OmniSeed.cpp  **** 	float sig;
ARM GAS  /var/folders/hl/qgbwny5j0fd895c2c41bk3tw0000gp/T//cckqgw4a.s 			page 197


 7833              		.loc 17 179 2 view .LVU1875
 178:OmniSeed.cpp  **** 	voice = hw.adc.Get(rot);
 7834              		.loc 17 178 49 is_stmt 0 view .LVU1876
 7835 0000 2DE9F041 		push	{r4, r5, r6, r7, r8, lr}
 7836              		.cfi_def_cfa_offset 24
 7837              		.cfi_offset 4, -24
 7838              		.cfi_offset 5, -20
 7839              		.cfi_offset 6, -16
 7840              		.cfi_offset 7, -12
 7841              		.cfi_offset 8, -8
 7842              		.cfi_offset 14, -4
 179:OmniSeed.cpp  **** 	float sig;
 7843              		.loc 17 179 20 view .LVU1877
 7844 0004 0621     		movs	r1, #6
 7845 0006 9B48     		ldr	r0, .L123
 179:OmniSeed.cpp  **** 	float sig;
 7846              		.loc 17 179 8 view .LVU1878
 7847 0008 9B4C     		ldr	r4, .L123+4
 178:OmniSeed.cpp  **** 	voice = hw.adc.Get(rot);
 7848              		.loc 17 178 49 view .LVU1879
 7849 000a 2DED048B 		vpush.64	{d8, d9}
 7850              		.cfi_def_cfa_offset 40
 7851              		.cfi_offset 80, -40
 7852              		.cfi_offset 81, -36
 7853              		.cfi_offset 82, -32
 7854              		.cfi_offset 83, -28
 7855 000e 86B0     		sub	sp, sp, #24
 7856              		.cfi_def_cfa_offset 64
 178:OmniSeed.cpp  **** 	voice = hw.adc.Get(rot);
 7857              		.loc 17 178 49 view .LVU1880
 7858 0010 B0EE408A 		vmov.f32	s16, s0
 7859 0014 F0EE608A 		vmov.f32	s17, s1
 179:OmniSeed.cpp  **** 	float sig;
 7860              		.loc 17 179 20 view .LVU1881
 7861 0018 FFF7FEFF 		bl	_ZNK5daisy9AdcHandle3GetEh
 7862              	.LVL428:
 7863              	.LBB2727:
 7864              	.LBB2728:
 7865              	.LBB2729:
 7866              	.LBB2730:
 7867              		.loc 1 79 42 view .LVU1882
 7868 001c 974B     		ldr	r3, .L123+8
 7869              	.LBE2730:
 7870              	.LBE2729:
 7871              	.LBE2728:
 7872              	.LBE2727:
 179:OmniSeed.cpp  **** 	float sig;
 7873              		.loc 17 179 20 view .LVU1883
 7874 001e 2060     		str	r0, [r4]
 180:OmniSeed.cpp  **** 	float oct = buttonHandler();
 7875              		.loc 17 180 2 is_stmt 1 view .LVU1884
 181:OmniSeed.cpp  **** 	float finalNote = (rootFreq + augFreq + oct);
 7876              		.loc 17 181 2 view .LVU1885
 7877              	.LBB2739:
 7878              	.LBI2727:
 221:OmniSeed.cpp  **** 	float octave;
 7879              		.loc 17 221 7 view .LVU1886
ARM GAS  /var/folders/hl/qgbwny5j0fd895c2c41bk3tw0000gp/T//cckqgw4a.s 			page 198


 7880              	.LBB2737:
 222:OmniSeed.cpp  **** 	if(oct1.Pressed()){
 7881              		.loc 17 222 2 view .LVU1887
 223:OmniSeed.cpp  **** 		octave = 12;
 7882              		.loc 17 223 2 view .LVU1888
 7883              	.LVL429:
 7884              	.LBB2732:
 7885              	.LBI2729:
 7886              		.loc 1 79 17 view .LVU1889
 7887              	.LBB2731:
 7888              		.loc 1 79 35 view .LVU1890
 7889              		.loc 1 79 35 is_stmt 0 view .LVU1891
 7890              	.LBE2731:
 7891              	.LBE2732:
 223:OmniSeed.cpp  **** 		octave = 12;
 7892              		.loc 17 223 2 view .LVU1892
 7893 0020 9B7A     		ldrb	r3, [r3, #10]	@ zero_extendqisi2
 7894 0022 FF2B     		cmp	r3, #255
 7895 0024 00F0DB80 		beq	.L104
 7896              	.LBB2733:
 7897              	.LBI2733:
 221:OmniSeed.cpp  **** 	float octave;
 7898              		.loc 17 221 7 is_stmt 1 view .LVU1893
 7899              	.LBB2734:
 225:OmniSeed.cpp  **** 		octave = -12;
 7900              		.loc 17 225 9 view .LVU1894
 7901              	.LVL430:
 7902              	.LBB2735:
 7903              	.LBI2735:
 7904              		.loc 1 79 17 view .LVU1895
 7905              	.LBB2736:
 7906              		.loc 1 79 35 view .LVU1896
 7907              		.loc 1 79 42 is_stmt 0 view .LVU1897
 7908 0028 954B     		ldr	r3, .L123+12
 7909              	.LBE2736:
 7910              	.LBE2735:
 227:OmniSeed.cpp  **** 
 7911              		.loc 17 227 18 view .LVU1898
 7912 002a FAEE087A 		vmov.f32	s15, #-1.2e+1
 7913 002e 9FED957A 		vldr.32	s14, .L123+16
 225:OmniSeed.cpp  **** 		octave = -12;
 7914              		.loc 17 225 9 view .LVU1899
 7915 0032 9B7A     		ldrb	r3, [r3, #10]	@ zero_extendqisi2
 227:OmniSeed.cpp  **** 
 7916              		.loc 17 227 18 view .LVU1900
 7917 0034 FF2B     		cmp	r3, #255
 7918 0036 07FE877A 		vseleq.f32	s14, s15, s14
 7919              	.L84:
 7920              	.LVL431:
 227:OmniSeed.cpp  **** 
 7921              		.loc 17 227 18 view .LVU1901
 7922              	.LBE2734:
 7923              	.LBE2733:
 229:OmniSeed.cpp  **** }
 7924              		.loc 17 229 2 is_stmt 1 view .LVU1902
 229:OmniSeed.cpp  **** }
 7925              		.loc 17 229 2 is_stmt 0 view .LVU1903
ARM GAS  /var/folders/hl/qgbwny5j0fd895c2c41bk3tw0000gp/T//cckqgw4a.s 			page 199


 7926              	.LBE2737:
 7927              	.LBE2739:
 182:OmniSeed.cpp  **** 	float fnFreq = mtof(finalNote);
 7928              		.loc 17 182 2 is_stmt 1 view .LVU1904
 183:OmniSeed.cpp  **** 	float t_sig = touchedPad;
 7929              		.loc 17 183 2 view .LVU1905
 7930              	.LBB2740:
 7931              	.LBI2740:
 7932              		.file 23 "../../DaisySP//Source/Utility/dsp.h"
   1:../../DaisySP//Source/Utility/dsp.h **** /** Helpful defines, functions, and other utilities for use in/with daisysp modules.
   2:../../DaisySP//Source/Utility/dsp.h **** */
   3:../../DaisySP//Source/Utility/dsp.h **** #pragma once
   4:../../DaisySP//Source/Utility/dsp.h **** #ifndef DSY_CORE_DSP
   5:../../DaisySP//Source/Utility/dsp.h **** #define DSY_CORE_DSP
   6:../../DaisySP//Source/Utility/dsp.h **** #include <cassert>
   7:../../DaisySP//Source/Utility/dsp.h **** #include <cstdint>
   8:../../DaisySP//Source/Utility/dsp.h **** #include <random>
   9:../../DaisySP//Source/Utility/dsp.h **** #include <cmath>
  10:../../DaisySP//Source/Utility/dsp.h **** 
  11:../../DaisySP//Source/Utility/dsp.h **** /** PIs
  12:../../DaisySP//Source/Utility/dsp.h **** */
  13:../../DaisySP//Source/Utility/dsp.h **** #define PI_F 3.1415927410125732421875f
  14:../../DaisySP//Source/Utility/dsp.h **** #define TWOPI_F (2.0f * PI_F)
  15:../../DaisySP//Source/Utility/dsp.h **** #define HALFPI_F (PI_F * 0.5f)
  16:../../DaisySP//Source/Utility/dsp.h **** #define DSY_MIN(in, mn) (in < mn ? in : mn)
  17:../../DaisySP//Source/Utility/dsp.h **** #define DSY_MAX(in, mx) (in > mx ? in : mx)
  18:../../DaisySP//Source/Utility/dsp.h **** #define DSY_CLAMP(in, mn, mx) (DSY_MIN(DSY_MAX(in, mn), mx))
  19:../../DaisySP//Source/Utility/dsp.h **** #define DSY_COUNTOF(_arr) (sizeof(_arr) / sizeof(_arr[0]))
  20:../../DaisySP//Source/Utility/dsp.h **** 
  21:../../DaisySP//Source/Utility/dsp.h **** namespace daisysp
  22:../../DaisySP//Source/Utility/dsp.h **** {
  23:../../DaisySP//Source/Utility/dsp.h **** //Avoids division for random floats. e.g. rand() * kRandFrac
  24:../../DaisySP//Source/Utility/dsp.h **** static constexpr float kRandFrac = 1.f / (float)RAND_MAX;
  25:../../DaisySP//Source/Utility/dsp.h **** 
  26:../../DaisySP//Source/Utility/dsp.h **** //Convert from semitones to other units. e.g. 2 ^ (kOneTwelfth * x)
  27:../../DaisySP//Source/Utility/dsp.h **** static constexpr float kOneTwelfth = 1.f / 12.f;
  28:../../DaisySP//Source/Utility/dsp.h **** 
  29:../../DaisySP//Source/Utility/dsp.h **** /** efficient floating point min/max
  30:../../DaisySP//Source/Utility/dsp.h **** c/o stephen mccaul
  31:../../DaisySP//Source/Utility/dsp.h **** */
  32:../../DaisySP//Source/Utility/dsp.h **** inline float fmax(float a, float b)
  33:../../DaisySP//Source/Utility/dsp.h **** {
  34:../../DaisySP//Source/Utility/dsp.h ****     float r;
  35:../../DaisySP//Source/Utility/dsp.h **** #ifdef __arm__
  36:../../DaisySP//Source/Utility/dsp.h ****     asm("vmaxnm.f32 %[d], %[n], %[m]" : [d] "=t"(r) : [n] "t"(a), [m] "t"(b) :);
  37:../../DaisySP//Source/Utility/dsp.h **** #else
  38:../../DaisySP//Source/Utility/dsp.h ****     r = (a > b) ? a : b;
  39:../../DaisySP//Source/Utility/dsp.h **** #endif // __arm__
  40:../../DaisySP//Source/Utility/dsp.h ****     return r;
  41:../../DaisySP//Source/Utility/dsp.h **** }
  42:../../DaisySP//Source/Utility/dsp.h **** 
  43:../../DaisySP//Source/Utility/dsp.h **** inline float fmin(float a, float b)
  44:../../DaisySP//Source/Utility/dsp.h **** {
  45:../../DaisySP//Source/Utility/dsp.h ****     float r;
  46:../../DaisySP//Source/Utility/dsp.h **** #ifdef __arm__
  47:../../DaisySP//Source/Utility/dsp.h ****     asm("vminnm.f32 %[d], %[n], %[m]" : [d] "=t"(r) : [n] "t"(a), [m] "t"(b) :);
  48:../../DaisySP//Source/Utility/dsp.h **** #else
ARM GAS  /var/folders/hl/qgbwny5j0fd895c2c41bk3tw0000gp/T//cckqgw4a.s 			page 200


  49:../../DaisySP//Source/Utility/dsp.h ****     r = (a < b) ? a : b;
  50:../../DaisySP//Source/Utility/dsp.h **** #endif // __arm__
  51:../../DaisySP//Source/Utility/dsp.h ****     return r;
  52:../../DaisySP//Source/Utility/dsp.h **** }
  53:../../DaisySP//Source/Utility/dsp.h **** 
  54:../../DaisySP//Source/Utility/dsp.h **** /** quick fp clamp
  55:../../DaisySP//Source/Utility/dsp.h **** */
  56:../../DaisySP//Source/Utility/dsp.h **** inline float fclamp(float in, float min, float max)
  57:../../DaisySP//Source/Utility/dsp.h **** {
  58:../../DaisySP//Source/Utility/dsp.h ****     return fmin(fmax(in, min), max);
  59:../../DaisySP//Source/Utility/dsp.h **** }
  60:../../DaisySP//Source/Utility/dsp.h **** 
  61:../../DaisySP//Source/Utility/dsp.h **** /** From Musicdsp.org "Fast power and root estimates for 32bit floats)
  62:../../DaisySP//Source/Utility/dsp.h **** Original code by Stefan Stenzel
  63:../../DaisySP//Source/Utility/dsp.h **** These are approximations
  64:../../DaisySP//Source/Utility/dsp.h **** */
  65:../../DaisySP//Source/Utility/dsp.h **** inline float fastpower(float f, int n)
  66:../../DaisySP//Source/Utility/dsp.h **** {
  67:../../DaisySP//Source/Utility/dsp.h ****     long *lp, l;
  68:../../DaisySP//Source/Utility/dsp.h ****     lp = (long *)(&f);
  69:../../DaisySP//Source/Utility/dsp.h ****     l  = *lp;
  70:../../DaisySP//Source/Utility/dsp.h ****     l -= 0x3F800000;
  71:../../DaisySP//Source/Utility/dsp.h ****     l <<= (n - 1);
  72:../../DaisySP//Source/Utility/dsp.h ****     l += 0x3F800000;
  73:../../DaisySP//Source/Utility/dsp.h ****     *lp = l;
  74:../../DaisySP//Source/Utility/dsp.h ****     return f;
  75:../../DaisySP//Source/Utility/dsp.h **** }
  76:../../DaisySP//Source/Utility/dsp.h **** 
  77:../../DaisySP//Source/Utility/dsp.h **** inline float fastroot(float f, int n)
  78:../../DaisySP//Source/Utility/dsp.h **** {
  79:../../DaisySP//Source/Utility/dsp.h ****     long *lp, l;
  80:../../DaisySP//Source/Utility/dsp.h ****     lp = (long *)(&f);
  81:../../DaisySP//Source/Utility/dsp.h ****     l  = *lp;
  82:../../DaisySP//Source/Utility/dsp.h ****     l -= 0x3F800000;
  83:../../DaisySP//Source/Utility/dsp.h ****     l >>= (n = 1);
  84:../../DaisySP//Source/Utility/dsp.h ****     l += 0x3F800000;
  85:../../DaisySP//Source/Utility/dsp.h ****     *lp = l;
  86:../../DaisySP//Source/Utility/dsp.h ****     return f;
  87:../../DaisySP//Source/Utility/dsp.h **** }
  88:../../DaisySP//Source/Utility/dsp.h **** 
  89:../../DaisySP//Source/Utility/dsp.h **** /** From http://openaudio.blogspot.com/2017/02/faster-log10-and-pow.html
  90:../../DaisySP//Source/Utility/dsp.h **** No approximation, pow10f(x) gives a 90% speed increase over powf(10.f, x)
  91:../../DaisySP//Source/Utility/dsp.h **** */
  92:../../DaisySP//Source/Utility/dsp.h **** inline float pow10f(float f)
  93:../../DaisySP//Source/Utility/dsp.h **** {
  94:../../DaisySP//Source/Utility/dsp.h ****     return expf(2.302585092994046f * f);
  95:../../DaisySP//Source/Utility/dsp.h **** }
  96:../../DaisySP//Source/Utility/dsp.h **** 
  97:../../DaisySP//Source/Utility/dsp.h **** /* Original code for fastlog2f by Dr. Paul Beckmann from the ARM community forum, adapted from the 
  98:../../DaisySP//Source/Utility/dsp.h **** About 25% performance increase over std::log10f
  99:../../DaisySP//Source/Utility/dsp.h **** */
 100:../../DaisySP//Source/Utility/dsp.h **** inline float fastlog2f(float f)
 101:../../DaisySP//Source/Utility/dsp.h **** {
 102:../../DaisySP//Source/Utility/dsp.h ****     float frac;
 103:../../DaisySP//Source/Utility/dsp.h ****     int   exp;
 104:../../DaisySP//Source/Utility/dsp.h ****     frac = frexpf(fabsf(f), &exp);
 105:../../DaisySP//Source/Utility/dsp.h ****     f    = 1.23149591368684f;
ARM GAS  /var/folders/hl/qgbwny5j0fd895c2c41bk3tw0000gp/T//cckqgw4a.s 			page 201


 106:../../DaisySP//Source/Utility/dsp.h ****     f *= frac;
 107:../../DaisySP//Source/Utility/dsp.h ****     f += -4.11852516267426f;
 108:../../DaisySP//Source/Utility/dsp.h ****     f *= frac;
 109:../../DaisySP//Source/Utility/dsp.h ****     f += 6.02197014179219f;
 110:../../DaisySP//Source/Utility/dsp.h ****     f *= frac;
 111:../../DaisySP//Source/Utility/dsp.h ****     f += -3.13396450166353f;
 112:../../DaisySP//Source/Utility/dsp.h ****     f += exp;
 113:../../DaisySP//Source/Utility/dsp.h ****     return (f);
 114:../../DaisySP//Source/Utility/dsp.h **** }
 115:../../DaisySP//Source/Utility/dsp.h **** 
 116:../../DaisySP//Source/Utility/dsp.h **** inline float fastlog10f(float f)
 117:../../DaisySP//Source/Utility/dsp.h **** {
 118:../../DaisySP//Source/Utility/dsp.h ****     return fastlog2f(f) * 0.3010299956639812f;
 119:../../DaisySP//Source/Utility/dsp.h **** }
 120:../../DaisySP//Source/Utility/dsp.h **** 
 121:../../DaisySP//Source/Utility/dsp.h **** /** Midi to frequency helper
 122:../../DaisySP//Source/Utility/dsp.h **** */
 123:../../DaisySP//Source/Utility/dsp.h **** inline float mtof(float m)
 7933              		.loc 23 123 14 view .LVU1906
 7934              	.LBB2741:
 124:../../DaisySP//Source/Utility/dsp.h **** {
 125:../../DaisySP//Source/Utility/dsp.h ****     return powf(2, (m - 69.0f) / 12.0f) * 440.0f;
 7935              		.loc 23 125 5 view .LVU1907
 7936              	.LBE2741:
 7937              	.LBE2740:
 182:OmniSeed.cpp  **** 	float fnFreq = mtof(finalNote);
 7938              		.loc 17 182 30 is_stmt 0 view .LVU1908
 7939 003a 78EE287A 		vadd.f32	s15, s16, s17
 7940              	.LBB2747:
 7941              	.LBB2742:
 7942              		.loc 23 125 23 view .LVU1909
 7943 003e 9FED926A 		vldr.32	s12, .L123+20
 7944              		.loc 23 125 16 view .LVU1910
 7945 0042 F2EE086A 		vmov.f32	s13, #1.2e+1
 7946              	.LBE2742:
 7947              	.LBE2747:
 184:OmniSeed.cpp  **** 	switch (voice)
 7948              		.loc 17 184 8 view .LVU1911
 7949 0046 914E     		ldr	r6, .L123+24
 7950              	.LBB2748:
 7951              	.LBB2743:
 7952              		.loc 23 125 16 view .LVU1912
 7953 0048 B0EE000A 		vmov.f32	s0, #2.0e+0
 7954              	.LBE2743:
 7955              	.LBE2748:
 182:OmniSeed.cpp  **** 	float fnFreq = mtof(finalNote);
 7956              		.loc 17 182 8 view .LVU1913
 7957 004c 77EE877A 		vadd.f32	s15, s15, s14
 7958              	.LVL432:
 7959              	.LBB2749:
 7960              	.LBB2744:
 7961              		.loc 23 125 23 view .LVU1914
 7962 0050 77EEC67A 		vsub.f32	s15, s15, s12
 7963              	.LVL433:
 7964              		.loc 23 125 16 view .LVU1915
 7965 0054 C7EEA60A 		vdiv.f32	s1, s15, s13
 7966 0058 CDED030A 		vstr.32	s1, [sp, #12]	@ int
ARM GAS  /var/folders/hl/qgbwny5j0fd895c2c41bk3tw0000gp/T//cckqgw4a.s 			page 202


 7967 005c FFF7FEFF 		bl	powf
 7968              	.LVL434:
 7969              		.loc 23 125 16 view .LVU1916
 7970              	.LBE2744:
 7971              	.LBE2749:
 185:OmniSeed.cpp  **** 	{
 7972              		.loc 17 185 2 view .LVU1917
 7973 0060 2368     		ldr	r3, [r4]
 7974 0062 48F6A042 		movw	r2, #36000
 7975              	.LBB2750:
 7976              	.LBB2745:
 7977              		.loc 23 125 43 view .LVU1918
 7978 0066 DFED8A7A 		vldr.32	s15, .L123+28
 7979              	.LBE2745:
 7980              	.LBE2750:
 185:OmniSeed.cpp  **** 	{
 7981              		.loc 17 185 2 view .LVU1919
 7982 006a 9342     		cmp	r3, r2
 184:OmniSeed.cpp  **** 	switch (voice)
 7983              		.loc 17 184 8 view .LVU1920
 7984 006c 3568     		ldr	r5, [r6]
 7985              	.LBB2751:
 7986              	.LBB2746:
 7987              		.loc 23 125 43 view .LVU1921
 7988 006e 20EE270A 		vmul.f32	s0, s0, s15
 7989              	.LVL435:
 7990              		.loc 23 125 43 view .LVU1922
 7991              	.LBE2746:
 7992              	.LBE2751:
 184:OmniSeed.cpp  **** 	switch (voice)
 7993              		.loc 17 184 2 is_stmt 1 view .LVU1923
 185:OmniSeed.cpp  **** 	{
 7994              		.loc 17 185 2 view .LVU1924
 7995 0072 1CDC     		bgt	.L85
 7996 0074 46F28F52 		movw	r2, #25999
 7997 0078 9342     		cmp	r3, r2
 7998 007a 00F3B380 		bgt	.L86
 7999 007e B3F57A7F 		cmp	r3, #1000
 8000 0082 25DD     		ble	.L119
 8001 0084 834A     		ldr	r2, .L123+32
 8002 0086 42F6F821 		movw	r1, #11000
 8003 008a 1A44     		add	r2, r2, r3
 8004 008c 8A42     		cmp	r2, r1
 8005 008e 21D8     		bhi	.L89
 192:OmniSeed.cpp  **** 		// resonator 
 8006              		.loc 17 192 2 view .LVU1925
 194:OmniSeed.cpp  **** 		sig = res.Process(t_sig);
 8007              		.loc 17 194 3 view .LVU1926
 194:OmniSeed.cpp  **** 		sig = res.Process(t_sig);
 8008              		.loc 17 194 14 is_stmt 0 view .LVU1927
 8009 0090 8148     		ldr	r0, .L123+36
 8010 0092 FFF7FEFF 		bl	_ZN7daisysp9Resonator7SetFreqEf
 8011              	.LVL436:
 195:OmniSeed.cpp  **** 		break;
 8012              		.loc 17 195 3 is_stmt 1 view .LVU1928
 195:OmniSeed.cpp  **** 		break;
 8013              		.loc 17 195 20 is_stmt 0 view .LVU1929
ARM GAS  /var/folders/hl/qgbwny5j0fd895c2c41bk3tw0000gp/T//cckqgw4a.s 			page 203


 8014 0096 07EE905A 		vmov	s15, r5	@ int
 8015 009a 7F48     		ldr	r0, .L123+36
 8016 009c B8EEE70A 		vcvt.f32.s32	s0, s15
 8017              	.LVL437:
 219:OmniSeed.cpp  **** 
 8018              		.loc 17 219 1 view .LVU1930
 8019 00a0 06B0     		add	sp, sp, #24
 8020              		.cfi_remember_state
 8021              		.cfi_def_cfa_offset 40
 8022              		@ sp needed
 8023 00a2 BDEC048B 		vldm	sp!, {d8-d9}
 8024              		.cfi_restore 82
 8025              		.cfi_restore 83
 8026              		.cfi_restore 80
 8027              		.cfi_restore 81
 8028              		.cfi_def_cfa_offset 24
 8029              	.LVL438:
 219:OmniSeed.cpp  **** 
 8030              		.loc 17 219 1 view .LVU1931
 8031 00a6 BDE8F041 		pop	{r4, r5, r6, r7, r8, lr}
 8032              		.cfi_restore 14
 8033              		.cfi_restore 8
 8034              		.cfi_restore 7
 8035              		.cfi_restore 6
 8036              		.cfi_restore 5
 8037              		.cfi_restore 4
 8038              		.cfi_def_cfa_offset 0
 195:OmniSeed.cpp  **** 		break;
 8039              		.loc 17 195 20 view .LVU1932
 8040 00aa FFF7FEBF 		b	_ZN7daisysp9Resonator7ProcessEf
 8041              	.LVL439:
 8042              	.L85:
 8043              		.cfi_restore_state
 185:OmniSeed.cpp  **** 	{
 8044              		.loc 17 185 2 view .LVU1933
 8045 00ae 4DF2D862 		movw	r2, #55000
 8046 00b2 9342     		cmp	r3, r2
 8047 00b4 17DD     		ble	.L120
 8048 00b6 794A     		ldr	r2, .L123+40
 8049 00b8 42F6E061 		movw	r1, #12000
 8050 00bc 1A44     		add	r2, r2, r3
 8051 00be 8A42     		cmp	r2, r1
 8052 00c0 08D8     		bhi	.L89
 8053              	.LVL440:
 8054              	.L83:
 219:OmniSeed.cpp  **** 
 8055              		.loc 17 219 1 view .LVU1934
 8056 00c2 B0EE490A 		vmov.f32	s0, s18
 8057 00c6 06B0     		add	sp, sp, #24
 8058              		.cfi_remember_state
 8059              		.cfi_def_cfa_offset 40
 8060              		@ sp needed
 8061 00c8 BDEC048B 		vldm	sp!, {d8-d9}
 8062              		.cfi_restore 82
 8063              		.cfi_restore 83
 8064              		.cfi_restore 80
 8065              		.cfi_restore 81
ARM GAS  /var/folders/hl/qgbwny5j0fd895c2c41bk3tw0000gp/T//cckqgw4a.s 			page 204


 8066              		.cfi_def_cfa_offset 24
 8067 00cc BDE8F081 		pop	{r4, r5, r6, r7, r8, pc}
 8068              	.LVL441:
 8069              	.L119:
 8070              		.cfi_restore_state
 185:OmniSeed.cpp  **** 	{
 8071              		.loc 17 185 2 view .LVU1935
 8072 00d0 002B     		cmp	r3, #0
 8073 00d2 13DA     		bge	.L121
 8074              	.L89:
 212:OmniSeed.cpp  **** 		voice = 0;
 8075              		.loc 17 212 2 is_stmt 1 view .LVU1936
 213:OmniSeed.cpp  **** 		break;
 8076              		.loc 17 213 3 view .LVU1937
 219:OmniSeed.cpp  **** 
 8077              		.loc 17 219 1 is_stmt 0 view .LVU1938
 8078 00d4 B0EE490A 		vmov.f32	s0, s18
 8079              	.LVL442:
 213:OmniSeed.cpp  **** 		break;
 8080              		.loc 17 213 9 view .LVU1939
 8081 00d8 0023     		movs	r3, #0
 8082 00da 2360     		str	r3, [r4]
 214:OmniSeed.cpp  **** 	}
 8083              		.loc 17 214 3 is_stmt 1 view .LVU1940
 218:OmniSeed.cpp  **** }
 8084              		.loc 17 218 2 view .LVU1941
 219:OmniSeed.cpp  **** 
 8085              		.loc 17 219 1 is_stmt 0 view .LVU1942
 8086 00dc 06B0     		add	sp, sp, #24
 8087              		.cfi_remember_state
 8088              		.cfi_def_cfa_offset 40
 8089              		@ sp needed
 8090 00de BDEC048B 		vldm	sp!, {d8-d9}
 8091              		.cfi_restore 82
 8092              		.cfi_restore 83
 8093              		.cfi_restore 80
 8094              		.cfi_restore 81
 8095              		.cfi_def_cfa_offset 24
 8096              	.LVL443:
 219:OmniSeed.cpp  **** 
 8097              		.loc 17 219 1 view .LVU1943
 8098 00e2 BDE8F081 		pop	{r4, r5, r6, r7, r8, pc}
 8099              	.LVL444:
 8100              	.L120:
 8101              		.cfi_restore_state
 185:OmniSeed.cpp  **** 	{
 8102              		.loc 17 185 2 view .LVU1944
 8103 00e6 4AF6C772 		movw	r2, #44999
 8104 00ea 9342     		cmp	r3, r2
 8105 00ec F2DD     		ble	.L89
 219:OmniSeed.cpp  **** 
 8106              		.loc 17 219 1 view .LVU1945
 8107 00ee B0EE490A 		vmov.f32	s0, s18
 8108              	.LVL445:
 219:OmniSeed.cpp  **** 
 8109              		.loc 17 219 1 view .LVU1946
 8110 00f2 06B0     		add	sp, sp, #24
ARM GAS  /var/folders/hl/qgbwny5j0fd895c2c41bk3tw0000gp/T//cckqgw4a.s 			page 205


 8111              		.cfi_remember_state
 8112              		.cfi_def_cfa_offset 40
 8113              		@ sp needed
 8114 00f4 BDEC048B 		vldm	sp!, {d8-d9}
 8115              		.cfi_restore 82
 8116              		.cfi_restore 83
 8117              		.cfi_restore 80
 8118              		.cfi_restore 81
 8119              		.cfi_def_cfa_offset 24
 8120              	.LVL446:
 219:OmniSeed.cpp  **** 
 8121              		.loc 17 219 1 view .LVU1947
 8122 00f8 BDE8F081 		pop	{r4, r5, r6, r7, r8, pc}
 8123              	.LVL447:
 8124              	.L121:
 8125              		.cfi_restore_state
 8126              	.LBB2752:
 8127              	.LBB2753:
  48:PolyPluck_p.h ****     }
  49:PolyPluck_p.h **** 
  50:PolyPluck_p.h ****     /** Process function, synthesizes and sums the output of all voices,
  51:PolyPluck_p.h ****         triggering a new voice with frequency of MIDI note number when trig > 0.
  52:PolyPluck_p.h **** 
  53:PolyPluck_p.h ****         \param trig: value by reference of trig. When trig > 0 a the next voice will be triggered, 
  54:PolyPluck_p.h ****         \param note: MIDI note number for the active_voice.
  55:PolyPluck_p.h ****     */
  56:PolyPluck_p.h ****     float Process(float &trig, float note)
  57:PolyPluck_p.h ****     {
  58:PolyPluck_p.h ****         float sig, tval;
  59:PolyPluck_p.h ****         sig = 0.0f;
  60:PolyPluck_p.h ****         if(trig > 0.0f)
 8128              		.loc 9 60 17 view .LVU1948
 8129 00fc 684E     		ldr	r6, .L123+44
 8130 00fe DDED030A 		vldr.32	s1, [sp, #12]	@ int
 8131              	.LBE2753:
 8132              	.LBE2752:
 187:OmniSeed.cpp  **** 		//plucker
 8133              		.loc 17 187 2 is_stmt 1 view .LVU1949
 189:OmniSeed.cpp  **** 		break;
 8134              		.loc 17 189 3 view .LVU1950
 8135              	.LVL448:
 8136              	.LBB2786:
 8137              	.LBI2752:
  56:PolyPluck_p.h ****     {
 8138              		.loc 9 56 11 view .LVU1951
 8139              	.LBB2784:
 8140              		.loc 9 60 9 is_stmt 0 view .LVU1952
 8141 0102 D6ED007A 		vldr.32	s15, [r6]
 8142 0106 F5EEC07A 		vcmpe.f32	s15, #0
 8143 010a F1EE10FA 		vmrs	APSR_nzcv, FPSCR
 8144 010e 40F3AB80 		ble	.L122
  61:PolyPluck_p.h ****         {
  62:PolyPluck_p.h ****             // increment active voice
  63:PolyPluck_p.h ****             active_voice_ = (active_voice_ + 1) % num_voices;
 8145              		.loc 9 63 30 view .LVU1953
 8146 0112 DFF89881 		ldr	r8, .L123+56
 8147              		.loc 9 63 49 view .LVU1954
ARM GAS  /var/folders/hl/qgbwny5j0fd895c2c41bk3tw0000gp/T//cckqgw4a.s 			page 206


 8148 0116 6349     		ldr	r1, .L123+48
 8149              		.loc 9 63 30 view .LVU1955
 8150 0118 08F5C047 		add	r7, r8, #24576
 8151              		.loc 9 63 44 view .LVU1956
 8152 011c D7F8F424 		ldr	r2, [r7, #1268]
 8153 0120 0132     		adds	r2, r2, #1
 8154              		.loc 9 63 49 view .LVU1957
 8155 0122 A1FB0231 		umull	r3, r1, r1, r2
  64:PolyPluck_p.h ****             // set new voice to new note
  65:PolyPluck_p.h ****             plk_[active_voice_].SetDamp(p_damp_);
 8156              		.loc 9 65 40 view .LVU1958
 8157 0126 07F2EC43 		addw	r3, r7, #1260
  63:PolyPluck_p.h ****             // set new voice to new note
 8158              		.loc 9 63 49 view .LVU1959
 8159 012a 0C09     		lsrs	r4, r1, #4
 8160              	.LBB2754:
 8161              	.LBB2755:
 8162              		.loc 20 68 45 view .LVU1960
 8163 012c 1B68     		ldr	r3, [r3]	@ float
 8164              	.LBE2755:
 8165              	.LBE2754:
  63:PolyPluck_p.h ****             // set new voice to new note
 8166              		.loc 9 63 49 view .LVU1961
 8167 012e 04EB4404 		add	r4, r4, r4, lsl #1
 8168 0132 A2EBC404 		sub	r4, r2, r4, lsl #3
 8169              	.LBB2758:
 8170              	.LBB2756:
 8171              		.loc 20 68 45 view .LVU1962
 8172 0136 3422     		movs	r2, #52
 8173 0138 02FB0482 		mla	r2, r2, r4, r8
 8174              	.LBE2756:
 8175              	.LBE2758:
  63:PolyPluck_p.h ****             // set new voice to new note
 8176              		.loc 9 63 27 view .LVU1963
 8177 013c C7F8F444 		str	r4, [r7, #1268]
 8178              	.LVL449:
 8179              	.LBB2759:
 8180              	.LBI2754:
 8181              		.loc 20 68 17 is_stmt 1 view .LVU1964
 8182              	.LBB2757:
 8183              		.loc 20 68 39 view .LVU1965
 8184              		.loc 20 68 45 is_stmt 0 view .LVU1966
 8185 0140 9361     		str	r3, [r2, #24]	@ float
 8186              	.LVL450:
 8187              		.loc 20 68 45 view .LVU1967
 8188              	.LBE2757:
 8189              	.LBE2759:
 8190              	.LBB2760:
 8191              	.LBI2760:
  64:../../DaisySP//Source/PhysicalModeling/pluck.h ****     /** Sets the dampening factor applied by the filter (based on PLUCK_MODE)
 8192              		.loc 20 64 17 is_stmt 1 view .LVU1968
 8193              	.LBB2761:
  64:../../DaisySP//Source/PhysicalModeling/pluck.h ****     /** Sets the dampening factor applied by the filter (based on PLUCK_MODE)
 8194              		.loc 20 64 41 view .LVU1969
 8195              	.LBE2761:
 8196              	.LBE2760:
  66:PolyPluck_p.h ****             plk_[active_voice_].SetDecay(p_decay_);
ARM GAS  /var/folders/hl/qgbwny5j0fd895c2c41bk3tw0000gp/T//cckqgw4a.s 			page 207


 8197              		.loc 9 66 41 is_stmt 0 view .LVU1970
 8198 0142 07F59E63 		add	r3, r7, #1264
 8199              	.LBB2763:
 8200              	.LBB2762:
  64:../../DaisySP//Source/PhysicalModeling/pluck.h ****     /** Sets the dampening factor applied by the filter (based on PLUCK_MODE)
 8201              		.loc 20 64 48 view .LVU1971
 8202 0146 1B68     		ldr	r3, [r3]	@ float
 8203 0148 5361     		str	r3, [r2, #20]	@ float
 8204              	.LVL451:
  64:../../DaisySP//Source/PhysicalModeling/pluck.h ****     /** Sets the dampening factor applied by the filter (based on PLUCK_MODE)
 8205              		.loc 20 64 48 view .LVU1972
 8206              	.LBE2762:
 8207              	.LBE2763:
 8208              	.LBB2764:
 8209              	.LBI2764:
  56:../../DaisySP//Source/PhysicalModeling/pluck.h ****     /** Sets the frequency of the output signal in Hz.
 8210              		.loc 20 56 17 is_stmt 1 view .LVU1973
 8211              	.LBB2765:
  56:../../DaisySP//Source/PhysicalModeling/pluck.h ****     /** Sets the frequency of the output signal in Hz.
 8212              		.loc 20 56 37 view .LVU1974
  56:../../DaisySP//Source/PhysicalModeling/pluck.h ****     /** Sets the frequency of the output signal in Hz.
 8213              		.loc 20 56 42 is_stmt 0 view .LVU1975
 8214 014a 4FF07A53 		mov	r3, #1048576000
 8215 014e D360     		str	r3, [r2, #12]	@ float
 8216              	.LVL452:
 8217              	.L94:
  56:../../DaisySP//Source/PhysicalModeling/pluck.h ****     /** Sets the frequency of the output signal in Hz.
 8218              		.loc 20 56 42 view .LVU1976
 8219              	.LBE2765:
 8220              	.LBE2764:
 8221              	.LBB2766:
 8222              	.LBI2766:
 123:../../DaisySP//Source/Utility/dsp.h **** {
 8223              		.loc 23 123 14 is_stmt 1 view .LVU1977
 8224              	.LBB2767:
 8225              		.loc 23 125 5 view .LVU1978
 8226              		.loc 23 125 16 is_stmt 0 view .LVU1979
 8227 0150 B0EE000A 		vmov.f32	s0, #2.0e+0
 8228              	.LVL453:
 8229              		.loc 23 125 16 view .LVU1980
 8230              	.LBE2767:
 8231              	.LBE2766:
  59:PolyPluck_p.h ****         if(trig > 0.0f)
 8232              		.loc 9 59 13 view .LVU1981
 8233 0154 9FED4B8A 		vldr.32	s16, .L123+16
 8234              	.LVL454:
 8235              	.LBB2771:
 8236              	.LBB2768:
 8237              		.loc 23 125 16 view .LVU1982
 8238 0158 FFF7FEFF 		bl	powf
 8239              	.LVL455:
 8240              		.loc 23 125 16 view .LVU1983
 8241              	.LBE2768:
 8242              	.LBE2771:
 8243              	.LBB2772:
 8244              	.LBI2772:
  60:../../DaisySP//Source/PhysicalModeling/pluck.h ****     /** Sets the time it takes for a triggered note to end in seconds.
ARM GAS  /var/folders/hl/qgbwny5j0fd895c2c41bk3tw0000gp/T//cckqgw4a.s 			page 208


 8245              		.loc 20 60 17 is_stmt 1 view .LVU1984
 8246              	.LBB2773:
  60:../../DaisySP//Source/PhysicalModeling/pluck.h ****     /** Sets the time it takes for a triggered note to end in seconds.
 8247              		.loc 20 60 39 view .LVU1985
 8248              	.LBE2773:
 8249              	.LBE2772:
 8250              	.LBB2777:
 8251              	.LBB2769:
 8252              		.loc 23 125 43 is_stmt 0 view .LVU1986
 8253 015c DFED4C7A 		vldr.32	s15, .L123+28
 8254              	.LBE2769:
 8255              	.LBE2777:
 8256              	.LBB2778:
 8257              	.LBB2774:
  60:../../DaisySP//Source/PhysicalModeling/pluck.h ****     /** Sets the time it takes for a triggered note to end in seconds.
 8258              		.loc 20 60 45 view .LVU1987
 8259 0160 3423     		movs	r3, #52
 8260 0162 514D     		ldr	r5, .L123+52
 8261              	.LVL456:
  60:../../DaisySP//Source/PhysicalModeling/pluck.h ****     /** Sets the time it takes for a triggered note to end in seconds.
 8262              		.loc 20 60 45 view .LVU1988
 8263              	.LBE2774:
 8264              	.LBE2778:
 8265              	.LBB2779:
 8266              	.LBB2770:
 8267              		.loc 23 125 43 view .LVU1989
 8268 0164 20EE270A 		vmul.f32	s0, s0, s15
 8269              	.LVL457:
 8270              		.loc 23 125 43 view .LVU1990
 8271              	.LBE2770:
 8272              	.LBE2779:
 8273              	.LBB2780:
 8274              	.LBB2775:
  60:../../DaisySP//Source/PhysicalModeling/pluck.h ****     /** Sets the time it takes for a triggered note to end in seconds.
 8275              		.loc 20 60 45 view .LVU1991
 8276 0168 03FB0483 		mla	r3, r3, r4, r8
 8277              	.LBE2775:
 8278              	.LBE2780:
 8279              	.LBB2781:
  67:PolyPluck_p.h ****             plk_[active_voice_].SetAmp(0.25f);
  68:PolyPluck_p.h ****         }
  69:PolyPluck_p.h ****         plk_[active_voice_].SetFreq(mtof(note));
  70:PolyPluck_p.h **** 
  71:PolyPluck_p.h ****         for(size_t i = 0; i < num_voices; i++)
 8280              		.loc 9 71 20 view .LVU1992
 8281 016c 0024     		movs	r4, #0
 8282              	.LBE2781:
 8283              	.LBB2782:
 8284              	.LBB2776:
  60:../../DaisySP//Source/PhysicalModeling/pluck.h ****     /** Sets the time it takes for a triggered note to end in seconds.
 8285              		.loc 20 60 45 view .LVU1993
 8286 016e 83ED040A 		vstr.32	s0, [r3, #16]
 8287              	.LVL458:
  60:../../DaisySP//Source/PhysicalModeling/pluck.h ****     /** Sets the time it takes for a triggered note to end in seconds.
 8288              		.loc 20 60 45 view .LVU1994
 8289              	.LBE2776:
 8290              	.LBE2782:
ARM GAS  /var/folders/hl/qgbwny5j0fd895c2c41bk3tw0000gp/T//cckqgw4a.s 			page 209


 8291              	.LBB2783:
 8292              		.loc 9 71 29 is_stmt 1 view .LVU1995
 8293              	.L97:
  72:PolyPluck_p.h ****         {
  73:PolyPluck_p.h ****             tval = (trig > 0.0f && i == active_voice_) ? 1.0f : 0.0f;
 8294              		.loc 9 73 56 is_stmt 0 view .LVU1996
 8295 0172 DFED446A 		vldr.32	s13, .L123+16
 8296 0176 B7EE006A 		vmov.f32	s12, #1.0e+0
 8297 017a 96ED007A 		vldr.32	s14, [r6]
 8298 017e F0EE667A 		vmov.f32	s15, s13
 8299 0182 B4EEE67A 		vcmpe.f32	s14, s13
 8300 0186 F1EE10FA 		vmrs	APSR_nzcv, FPSCR
 8301 018a 04DD     		ble	.L95
 8302              		.loc 9 73 33 view .LVU1997
 8303 018c D7F8F434 		ldr	r3, [r7, #1268]
 8304              		.loc 9 73 56 view .LVU1998
 8305 0190 9C42     		cmp	r4, r3
 8306 0192 46FE267A 		vseleq.f32	s15, s12, s13
 8307              	.L95:
  71:PolyPluck_p.h ****         {
 8308              		.loc 9 71 9 view .LVU1999
 8309 0196 0134     		adds	r4, r4, #1
 8310              	.LVL459:
  74:PolyPluck_p.h ****             sig += plk_[i].Process(tval);
 8311              		.loc 9 74 35 view .LVU2000
 8312 0198 2846     		mov	r0, r5
 8313 019a 05A9     		add	r1, sp, #20
  73:PolyPluck_p.h ****             sig += plk_[i].Process(tval);
 8314              		.loc 9 73 18 view .LVU2001
 8315 019c CDED057A 		vstr.32	s15, [sp, #20]
 8316              		.loc 9 74 35 view .LVU2002
 8317 01a0 FFF7FEFF 		bl	_ZN7daisysp5Pluck7ProcessERf
 8318              	.LVL460:
  71:PolyPluck_p.h ****         {
 8319              		.loc 9 71 29 view .LVU2003
 8320 01a4 182C     		cmp	r4, #24
 8321              		.loc 9 74 17 view .LVU2004
 8322 01a6 38EE008A 		vadd.f32	s16, s16, s0
 8323              	.LVL461:
  71:PolyPluck_p.h ****         {
 8324              		.loc 9 71 9 is_stmt 1 view .LVU2005
  71:PolyPluck_p.h ****         {
 8325              		.loc 9 71 29 view .LVU2006
 8326 01aa 05F13405 		add	r5, r5, #52
 8327 01ae E0D1     		bne	.L97
 8328              	.LBE2783:
  75:PolyPluck_p.h ****         }
  76:PolyPluck_p.h ****         if(trig > 0.0f)
 8329              		.loc 9 76 9 is_stmt 0 view .LVU2007
 8330 01b0 D6ED007A 		vldr.32	s15, [r6]
 8331 01b4 0023     		movs	r3, #0
  77:PolyPluck_p.h ****             trig = 0.0f;
  78:PolyPluck_p.h ****         return blk_.Process(sig);
 8332              		.loc 9 78 28 view .LVU2008
 8333 01b6 B0EE480A 		vmov.f32	s0, s16
 8334 01ba 3C48     		ldr	r0, .L123+56
  76:PolyPluck_p.h ****             trig = 0.0f;
ARM GAS  /var/folders/hl/qgbwny5j0fd895c2c41bk3tw0000gp/T//cckqgw4a.s 			page 210


 8335              		.loc 9 76 9 view .LVU2009
 8336 01bc F5EEC07A 		vcmpe.f32	s15, #0
 8337 01c0 F1EE10FA 		vmrs	APSR_nzcv, FPSCR
  77:PolyPluck_p.h ****             trig = 0.0f;
 8338              		.loc 9 77 18 view .LVU2010
 8339 01c4 C8BF     		it	gt
 8340 01c6 3360     		strgt	r3, [r6]	@ float
 8341              		.loc 9 78 28 view .LVU2011
 8342 01c8 FFF7FEFF 		bl	_ZN7daisysp7DcBlock7ProcessEf
 8343              	.LVL462:
 8344 01cc B0EE409A 		vmov.f32	s18, s0
 8345              	.LVL463:
 8346              		.loc 9 78 28 view .LVU2012
 8347              	.LBE2784:
 8348              	.LBE2786:
 190:OmniSeed.cpp  **** 
 8349              		.loc 17 190 3 is_stmt 1 view .LVU2013
 219:OmniSeed.cpp  **** 
 8350              		.loc 17 219 1 is_stmt 0 view .LVU2014
 8351 01d0 B0EE490A 		vmov.f32	s0, s18
 219:OmniSeed.cpp  **** 
 8352              		.loc 17 219 1 view .LVU2015
 8353 01d4 06B0     		add	sp, sp, #24
 8354              		.cfi_remember_state
 8355              		.cfi_def_cfa_offset 40
 8356              		@ sp needed
 8357 01d6 BDEC048B 		vldm	sp!, {d8-d9}
 8358              		.cfi_restore 82
 8359              		.cfi_restore 83
 8360              		.cfi_restore 80
 8361              		.cfi_restore 81
 8362              		.cfi_def_cfa_offset 24
 8363 01da BDE8F081 		pop	{r4, r5, r6, r7, r8, pc}
 8364              	.LVL464:
 8365              	.L104:
 8366              		.cfi_restore_state
 8367              	.LBB2787:
 8368              	.LBB2738:
 224:OmniSeed.cpp  **** 	} else if(oct2.Pressed()){
 8369              		.loc 17 224 10 view .LVU2016
 8370 01de B2EE087A 		vmov.f32	s14, #1.2e+1
 8371 01e2 2AE7     		b	.L84
 8372              	.LVL465:
 8373              	.L86:
 224:OmniSeed.cpp  **** 	} else if(oct2.Pressed()){
 8374              		.loc 17 224 10 view .LVU2017
 8375              	.LBE2738:
 8376              	.LBE2787:
 198:OmniSeed.cpp  **** 		// poly oscillator
 8377              		.loc 17 198 2 is_stmt 1 view .LVU2018
 200:OmniSeed.cpp  **** 		posc.SetTrigger(touchedPad, test);
 8378              		.loc 17 200 3 view .LVU2019
 8379              	.LBB2788:
 8380              	.LBI2788:
  30:PolyOsc.h     ****         }
  31:PolyOsc.h     ****     }
  32:PolyOsc.h     **** 
ARM GAS  /var/folders/hl/qgbwny5j0fd895c2c41bk3tw0000gp/T//cckqgw4a.s 			page 211


  33:PolyOsc.h     ****     void SetFrequency(int voice, float freq)
 8381              		.loc 11 33 10 view .LVU2020
 8382              	.LBB2789:
  34:PolyOsc.h     ****     {
  35:PolyOsc.h     ****         //for(int i = 0; i < NUM_OSC; i++)
  36:PolyOsc.h     ****         //{
  37:PolyOsc.h     ****         //    osc_[i].SetFreq(freq);
  38:PolyOsc.h     ****         //}
  39:PolyOsc.h     ****         osc_[voice].SetFreq(freq);
 8383              		.loc 11 39 9 view .LVU2021
 8384              	.LBB2790:
 8385              	.LBI2790:
  60:../../DaisySP//Source/Synthesis/oscillator.h ****     {
 8386              		.loc 21 60 17 view .LVU2022
 8387              	.LBB2791:
  62:../../DaisySP//Source/Synthesis/oscillator.h ****         phase_inc_ = CalcPhaseInc(f);
 8388              		.loc 21 62 9 view .LVU2023
  62:../../DaisySP//Source/Synthesis/oscillator.h ****         phase_inc_ = CalcPhaseInc(f);
 8389              		.loc 21 62 20 is_stmt 0 view .LVU2024
 8390 01e4 324C     		ldr	r4, .L123+60
 8391 01e6 05EB4505 		add	r5, r5, r5, lsl #1
 8392              	.LVL466:
  62:../../DaisySP//Source/Synthesis/oscillator.h ****         phase_inc_ = CalcPhaseInc(f);
 8393              		.loc 21 62 20 view .LVU2025
 8394 01ea 04EB0515 		add	r5, r4, r5, lsl #4
  63:../../DaisySP//Source/Synthesis/oscillator.h ****     }
 8395              		.loc 21 63 34 view .LVU2026
 8396 01ee 2846     		mov	r0, r5
  62:../../DaisySP//Source/Synthesis/oscillator.h ****         phase_inc_ = CalcPhaseInc(f);
 8397              		.loc 21 62 20 view .LVU2027
 8398 01f0 85ED020A 		vstr.32	s0, [r5, #8]
  63:../../DaisySP//Source/Synthesis/oscillator.h ****     }
 8399              		.loc 21 63 9 is_stmt 1 view .LVU2028
  63:../../DaisySP//Source/Synthesis/oscillator.h ****     }
 8400              		.loc 21 63 34 is_stmt 0 view .LVU2029
 8401 01f4 FFF7FEFF 		bl	_ZN7daisysp10Oscillator12CalcPhaseIncEf
 8402              	.LVL467:
  63:../../DaisySP//Source/Synthesis/oscillator.h ****     }
 8403              		.loc 21 63 34 view .LVU2030
 8404              	.LBE2791:
 8405              	.LBE2790:
 8406              	.LBE2789:
 8407              	.LBE2788:
 201:OmniSeed.cpp  **** 		sig = posc.Process();
 8408              		.loc 17 201 18 view .LVU2031
 8409 01f8 3368     		ldr	r3, [r6]
 8410              	.LBB2795:
 8411              	.LBB2794:
 8412              	.LBB2793:
 8413              	.LBB2792:
  63:../../DaisySP//Source/Synthesis/oscillator.h ****     }
 8414              		.loc 21 63 20 view .LVU2032
 8415 01fa 85ED080A 		vstr.32	s0, [r5, #32]
 8416              	.LVL468:
  63:../../DaisySP//Source/Synthesis/oscillator.h ****     }
 8417              		.loc 21 63 20 view .LVU2033
 8418              	.LBE2792:
ARM GAS  /var/folders/hl/qgbwny5j0fd895c2c41bk3tw0000gp/T//cckqgw4a.s 			page 212


 8419              	.LBE2793:
 8420              	.LBE2794:
 8421              	.LBE2795:
 201:OmniSeed.cpp  **** 		sig = posc.Process();
 8422              		.loc 17 201 3 is_stmt 1 view .LVU2034
 8423              	.LBB2796:
 8424              	.LBI2796:
  40:PolyOsc.h     ****     }
  41:PolyOsc.h     **** 
  42:PolyOsc.h     ****     void SetTrigger(int voice, bool trig)
 8425              		.loc 11 42 10 view .LVU2035
 8426              	.LBB2797:
  43:PolyOsc.h     ****     {
  44:PolyOsc.h     ****         if(voice >= 0 && voice < NUM_OSC)
 8427              		.loc 11 44 9 view .LVU2036
 8428 01fe 0B2B     		cmp	r3, #11
 8429 0200 0CD8     		bhi	.L101
 8430              	.LBE2797:
 8431              	.LBE2796:
 201:OmniSeed.cpp  **** 		sig = posc.Process();
 8432              		.loc 17 201 18 is_stmt 0 view .LVU2037
 8433 0202 2C49     		ldr	r1, .L123+64
 8434              	.LBB2802:
 8435              	.LBB2800:
  45:PolyOsc.h     ****         {
  46:PolyOsc.h     ****             trig_[voice] = trig;
 8436              		.loc 11 46 26 view .LVU2038
 8437 0204 E218     		adds	r2, r4, r3
 8438 0206 2C48     		ldr	r0, .L123+68
 8439              	.LBE2800:
 8440              	.LBE2802:
 201:OmniSeed.cpp  **** 		sig = posc.Process();
 8441              		.loc 17 201 18 view .LVU2039
 8442 0208 0978     		ldrb	r1, [r1]	@ zero_extendqisi2
 8443              	.LBB2803:
 8444              	.LBB2801:
 8445              		.loc 11 46 13 is_stmt 1 view .LVU2040
 8446              		.loc 11 46 26 is_stmt 0 view .LVU2041
 8447 020a 1154     		strb	r1, [r2, r0]
  47:PolyOsc.h     ****             if(trig)
 8448              		.loc 11 47 13 is_stmt 1 view .LVU2042
 8449 020c 31B1     		cbz	r1, .L101
  48:PolyOsc.h     ****             {
  49:PolyOsc.h     ****                 env_[voice].Trigger(); // trigger envelope if trigger is on
 8450              		.loc 11 49 17 view .LVU2043
 8451              	.LVL469:
 8452              	.LBB2798:
 8453              	.LBI2798:
  56:../../DaisySP//Source/Control/adenv.h ****     /** Sets the length of time (in seconds) for a specific segment. */
 8454              		.loc 22 56 17 view .LVU2044
 8455              	.LBB2799:
  56:../../DaisySP//Source/Control/adenv.h ****     /** Sets the length of time (in seconds) for a specific segment. */
 8456              		.loc 22 56 29 view .LVU2045
  56:../../DaisySP//Source/Control/adenv.h ****     /** Sets the length of time (in seconds) for a specific segment. */
 8457              		.loc 22 56 38 is_stmt 0 view .LVU2046
 8458 020e C3EBC303 		rsb	r3, r3, r3, lsl #3
 8459              	.LVL470:
ARM GAS  /var/folders/hl/qgbwny5j0fd895c2c41bk3tw0000gp/T//cckqgw4a.s 			page 213


  56:../../DaisySP//Source/Control/adenv.h ****     /** Sets the length of time (in seconds) for a specific segment. */
 8460              		.loc 22 56 38 view .LVU2047
 8461 0212 0122     		movs	r2, #1
 8462 0214 04EBC303 		add	r3, r4, r3, lsl #3
 8463 0218 83F87422 		strb	r2, [r3, #628]
 8464              	.LVL471:
 8465              	.L101:
  56:../../DaisySP//Source/Control/adenv.h ****     /** Sets the length of time (in seconds) for a specific segment. */
 8466              		.loc 22 56 38 view .LVU2048
 8467              	.LBE2799:
 8468              	.LBE2798:
 8469              	.LBE2801:
 8470              	.LBE2803:
 202:OmniSeed.cpp  **** 		break;
 8471              		.loc 17 202 3 is_stmt 1 view .LVU2049
 8472              	.LBB2804:
 8473              	.LBI2804:
  50:PolyOsc.h     ****             }
  51:PolyOsc.h     ****         }
  52:PolyOsc.h     ****     }
  53:PolyOsc.h     **** 
  54:PolyOsc.h     ****     void SetAttack(float attack)
  55:PolyOsc.h     ****     {
  56:PolyOsc.h     ****         for(int i = 0; i < NUM_OSC; i++)
  57:PolyOsc.h     ****         {
  58:PolyOsc.h     ****             env_[i].SetTime(ADENV_SEG_ATTACK, attack);
  59:PolyOsc.h     ****         }
  60:PolyOsc.h     ****     }
  61:PolyOsc.h     **** 
  62:PolyOsc.h     ****     void SetDecay(float decay)
  63:PolyOsc.h     ****     {
  64:PolyOsc.h     ****         for(int i = 0; i < NUM_OSC; i++)
  65:PolyOsc.h     ****         {
  66:PolyOsc.h     ****             env_[i].SetTime(ADENV_SEG_DECAY, decay);
  67:PolyOsc.h     ****         }
  68:PolyOsc.h     ****     }
  69:PolyOsc.h     **** 
  70:PolyOsc.h     ****     void SetCuttoff(float cutoff)
  71:PolyOsc.h     ****     {
  72:PolyOsc.h     ****         rev_.SetLpFreq(cutoff);
  73:PolyOsc.h     ****     }
  74:PolyOsc.h     **** 
  75:PolyOsc.h     ****     void SetFeedback(float feedback)
  76:PolyOsc.h     ****     {
  77:PolyOsc.h     ****         rev_.SetFeedback(feedback);
  78:PolyOsc.h     ****     }
  79:PolyOsc.h     **** 
  80:PolyOsc.h     ****     float Process()
 8474              		.loc 11 80 11 view .LVU2050
 8475              	.LBB2805:
  81:PolyOsc.h     ****     {
  82:PolyOsc.h     ****         float pout = 0;
 8476              		.loc 11 82 9 view .LVU2051
 8477 021c 274D     		ldr	r5, .L123+72
 8478              		.loc 11 82 15 is_stmt 0 view .LVU2052
 8479 021e 0023     		movs	r3, #0
 8480 0220 A5F51074 		sub	r4, r5, #576
ARM GAS  /var/folders/hl/qgbwny5j0fd895c2c41bk3tw0000gp/T//cckqgw4a.s 			page 214


 8481 0224 2E46     		mov	r6, r5
 8482 0226 0493     		str	r3, [sp, #16]	@ float
  83:PolyOsc.h     ****         float out;
 8483              		.loc 11 83 9 is_stmt 1 view .LVU2053
  84:PolyOsc.h     ****         for(int i = 0; i < NUM_OSC; i++)
 8484              		.loc 11 84 9 view .LVU2054
 8485              	.LVL472:
 8486              	.LBB2806:
 8487              		.loc 11 84 26 view .LVU2055
 8488              	.L103:
 8489              	.LBB2807:
  85:PolyOsc.h     ****         {
  86:PolyOsc.h     ****             float env_val = env_[i].Process();
 8490              		.loc 11 86 13 view .LVU2056
 8491              		.loc 11 86 44 is_stmt 0 view .LVU2057
 8492 0228 2846     		mov	r0, r5
 8493              	.LBE2807:
  84:PolyOsc.h     ****         for(int i = 0; i < NUM_OSC; i++)
 8494              		.loc 11 84 26 view .LVU2058
 8495 022a 3835     		adds	r5, r5, #56
 8496              	.LBB2808:
 8497              		.loc 11 86 44 view .LVU2059
 8498 022c FFF7FEFF 		bl	_ZN7daisysp5AdEnv7ProcessEv
 8499              	.LVL473:
  87:PolyOsc.h     ****             pout += osc_[i].Process() * env_val;
 8500              		.loc 11 87 36 view .LVU2060
 8501 0230 2046     		mov	r0, r4
  86:PolyOsc.h     ****             pout += osc_[i].Process() * env_val;
 8502              		.loc 11 86 44 view .LVU2061
 8503 0232 B0EE408A 		vmov.f32	s16, s0
 8504              	.LVL474:
 8505              		.loc 11 87 13 is_stmt 1 view .LVU2062
 8506              		.loc 11 87 36 is_stmt 0 view .LVU2063
 8507 0236 FFF7FEFF 		bl	_ZN7daisysp10Oscillator7ProcessEv
 8508              	.LVL475:
 8509              		.loc 11 87 18 view .LVU2064
 8510 023a DDED047A 		vldr.32	s15, [sp, #16]
 8511              	.LBE2808:
  84:PolyOsc.h     ****         {
 8512              		.loc 11 84 26 view .LVU2065
 8513 023e 3034     		adds	r4, r4, #48
 8514              	.LBB2809:
 8515              		.loc 11 87 18 view .LVU2066
 8516 0240 E8EE007A 		vfma.f32	s15, s16, s0
 8517              	.LBE2809:
  84:PolyOsc.h     ****         {
 8518              		.loc 11 84 26 view .LVU2067
 8519 0244 A642     		cmp	r6, r4
 8520              	.LBB2810:
 8521              		.loc 11 87 18 view .LVU2068
 8522 0246 CDED047A 		vstr.32	s15, [sp, #16]
 8523              	.LBE2810:
  84:PolyOsc.h     ****         {
 8524              		.loc 11 84 9 is_stmt 1 view .LVU2069
  84:PolyOsc.h     ****         {
 8525              		.loc 11 84 26 view .LVU2070
 8526 024a EDD1     		bne	.L103
ARM GAS  /var/folders/hl/qgbwny5j0fd895c2c41bk3tw0000gp/T//cckqgw4a.s 			page 215


 8527              	.LBE2806:
  88:PolyOsc.h     ****         }
  89:PolyOsc.h     ****         rev_.Process(pout, pout, &out, &out);
 8528              		.loc 11 89 9 view .LVU2071
 8529              		.loc 11 89 21 is_stmt 0 view .LVU2072
 8530 024c 05AB     		add	r3, sp, #20
 8531 024e 04AA     		add	r2, sp, #16
 8532 0250 1B48     		ldr	r0, .L123+76
 8533 0252 1146     		mov	r1, r2
 8534 0254 0093     		str	r3, [sp]
 8535 0256 FFF7FEFF 		bl	_ZN7daisysp8ReverbSc7ProcessERKfS2_PfS3_
 8536              	.LVL476:
  90:PolyOsc.h     ****         return out * 0.25f; // normalize by the number of voices
 8537              		.loc 11 90 9 is_stmt 1 view .LVU2073
 8538              		.loc 11 90 22 is_stmt 0 view .LVU2074
 8539 025a F5EE007A 		vmov.f32	s15, #2.5e-1
 8540 025e 9DED059A 		vldr.32	s18, [sp, #20]
 8541 0262 29EE279A 		vmul.f32	s18, s18, s15
 8542              	.LVL477:
 8543              		.loc 11 90 22 view .LVU2075
 8544              	.LBE2805:
 8545              	.LBE2804:
 203:OmniSeed.cpp  **** 
 8546              		.loc 17 203 3 is_stmt 1 view .LVU2076
 8547 0266 2CE7     		b	.L83
 8548              	.LVL478:
 8549              	.L122:
 8550              	.LBB2811:
 8551              	.LBB2785:
  69:PolyPluck_p.h **** 
 8552              		.loc 9 69 14 is_stmt 0 view .LVU2077
 8553 0268 164F     		ldr	r7, .L123+80
 8554 026a D7F8F444 		ldr	r4, [r7, #1268]
 8555 026e A7F5C048 		sub	r8, r7, #24576
 8556 0272 6DE7     		b	.L94
 8557              	.L124:
 8558              		.align	2
 8559              	.L123:
 8560 0274 18000000 		.word	.LANCHOR3+24
 8561 0278 00000000 		.word	.LANCHOR17
 8562 027c 00000000 		.word	.LANCHOR8
 8563 0280 00000000 		.word	.LANCHOR9
 8564 0284 00000000 		.word	0
 8565 0288 00008A42 		.word	1116340224
 8566 028c 00000000 		.word	.LANCHOR14
 8567 0290 0000DC43 		.word	1138491392
 8568 0294 50C9FFFF 		.word	-14000
 8569 0298 00000000 		.word	.LANCHOR11
 8570 029c 701DFFFF 		.word	-58000
 8571 02a0 00000000 		.word	.LANCHOR15
 8572 02a4 ABAAAAAA 		.word	-1431655765
 8573 02a8 0C000000 		.word	pluck+12
 8574 02ac 00000000 		.word	pluck
 8575 02b0 00000000 		.word	posc
 8576 02b4 00000000 		.word	.LANCHOR16
 8577 02b8 24100600 		.word	397348
 8578 02bc 40020000 		.word	posc+576
ARM GAS  /var/folders/hl/qgbwny5j0fd895c2c41bk3tw0000gp/T//cckqgw4a.s 			page 216


 8579 02c0 E0040000 		.word	posc+1248
 8580 02c4 00600000 		.word	pluck+24576
 8581              	.LBE2785:
 8582              	.LBE2811:
 8583              		.cfi_endproc
 8584              	.LFE4824:
 8586              		.section	.text._Z13AudioCallbackPKPKfPPfj,"ax",%progbits
 8587              		.align	1
 8588              		.p2align 2,,3
 8589              		.global	_Z13AudioCallbackPKPKfPPfj
 8590              		.syntax unified
 8591              		.thumb
 8592              		.thumb_func
 8593              		.fpu fpv5-d16
 8595              	_Z13AudioCallbackPKPKfPPfj:
 8596              	.LVL479:
 8597              	.LFB4814:
  58:OmniSeed.cpp  **** 	// testing cpuloads
 8598              		.loc 17 58 1 is_stmt 1 view -0
 8599              		.cfi_startproc
 8600              		@ args = 0, pretend = 0, frame = 0
 8601              		@ frame_needed = 0, uses_anonymous_args = 0
  60:OmniSeed.cpp  **** 	float rootFreq, augFreq, pludec, bright, structr, damp, attack, decay, feedback, cutoff;
 8602              		.loc 17 60 2 view .LVU2079
 8603              	.LBB2905:
 8604              	.LBI2905:
  49:../../libDaisy//src/util/CpuLoadMeter.h **** 
 8605              		.loc 18 49 10 view .LVU2080
 8606              	.LBB2906:
  49:../../libDaisy//src/util/CpuLoadMeter.h **** 
 8607              		.loc 18 49 27 view .LVU2081
 8608              	.LBE2906:
 8609              	.LBE2905:
  58:OmniSeed.cpp  **** 	// testing cpuloads
 8610              		.loc 17 58 1 is_stmt 0 view .LVU2082
 8611 0000 F8B5     		push	{r3, r4, r5, r6, r7, lr}
 8612              		.cfi_def_cfa_offset 24
 8613              		.cfi_offset 3, -24
 8614              		.cfi_offset 4, -20
 8615              		.cfi_offset 5, -16
 8616              		.cfi_offset 6, -12
 8617              		.cfi_offset 7, -8
 8618              		.cfi_offset 14, -4
 8619 0002 2DED0A8B 		vpush.64	{d8, d9, d10, d11, d12}
 8620              		.cfi_def_cfa_offset 64
 8621              		.cfi_offset 80, -64
 8622              		.cfi_offset 81, -60
 8623              		.cfi_offset 82, -56
 8624              		.cfi_offset 83, -52
 8625              		.cfi_offset 84, -48
 8626              		.cfi_offset 85, -44
 8627              		.cfi_offset 86, -40
 8628              		.cfi_offset 87, -36
 8629              		.cfi_offset 88, -32
 8630              		.cfi_offset 89, -28
  58:OmniSeed.cpp  **** 	// testing cpuloads
 8631              		.loc 17 58 1 view .LVU2083
ARM GAS  /var/folders/hl/qgbwny5j0fd895c2c41bk3tw0000gp/T//cckqgw4a.s 			page 217


 8632 0006 0F46     		mov	r7, r1
 8633 0008 1546     		mov	r5, r2
 8634              	.LBB2910:
 8635              	.LBB2907:
  49:../../libDaisy//src/util/CpuLoadMeter.h **** 
 8636              		.loc 18 49 68 view .LVU2084
 8637 000a FFF7FEFF 		bl	_ZN5daisy6System7GetTickEv
 8638              	.LVL480:
  49:../../libDaisy//src/util/CpuLoadMeter.h **** 
 8639              		.loc 18 49 68 view .LVU2085
 8640              	.LBE2907:
 8641              	.LBE2910:
  62:OmniSeed.cpp  **** 	augFreq = chordNote[metaScale][touchedPad];
 8642              		.loc 17 62 30 view .LVU2086
 8643 000e 884A     		ldr	r2, .L145
 8644 0010 884B     		ldr	r3, .L145+4
 8645              	.LBB2911:
 8646              	.LBB2912:
 8647              	.LBB2913:
 8648              	.LBB2914:
 8649              	.LBB2915:
  47:../../DaisySP//Source/Utility/dsp.h **** #else
 8650              		.loc 23 47 5 view .LVU2087
 8651 0012 B7EE008A 		vmov.f32	s16, #1.0e+0
 8652              	.LBE2915:
 8653              	.LBE2914:
 8654              	.LBE2913:
 8655              	.LBE2912:
 8656              	.LBE2911:
  62:OmniSeed.cpp  **** 	augFreq = chordNote[metaScale][touchedPad];
 8657              		.loc 17 62 30 view .LVU2088
 8658 0016 1268     		ldr	r2, [r2]
  63:OmniSeed.cpp  **** 	oct1.Debounce();
 8659              		.loc 17 63 43 view .LVU2089
 8660 0018 8749     		ldr	r1, .L145+8
  62:OmniSeed.cpp  **** 	augFreq = chordNote[metaScale][touchedPad];
 8661              		.loc 17 62 11 view .LVU2090
 8662 001a 03EB8203 		add	r3, r3, r2, lsl #2
  63:OmniSeed.cpp  **** 	oct1.Debounce();
 8663              		.loc 17 63 43 view .LVU2091
 8664 001e 874A     		ldr	r2, .L145+12
 8665              	.LBB2936:
 8666              	.LBB2908:
  49:../../libDaisy//src/util/CpuLoadMeter.h **** 
 8667              		.loc 18 49 51 view .LVU2092
 8668 0020 874E     		ldr	r6, .L145+16
 8669              	.LBE2908:
 8670              	.LBE2936:
  62:OmniSeed.cpp  **** 	augFreq = chordNote[metaScale][touchedPad];
 8671              		.loc 17 62 11 view .LVU2093
 8672 0022 93ED009A 		vldr.32	s18, [r3]	@ int
  63:OmniSeed.cpp  **** 	oct1.Debounce();
 8673              		.loc 17 63 43 view .LVU2094
 8674 0026 874B     		ldr	r3, .L145+20
 8675 0028 1268     		ldr	r2, [r2]
  62:OmniSeed.cpp  **** 	augFreq = chordNote[metaScale][touchedPad];
 8676              		.loc 17 62 11 view .LVU2095
ARM GAS  /var/folders/hl/qgbwny5j0fd895c2c41bk3tw0000gp/T//cckqgw4a.s 			page 218


 8677 002a B8EEC99A 		vcvt.f32.s32	s18, s18
  63:OmniSeed.cpp  **** 	oct1.Debounce();
 8678              		.loc 17 63 43 view .LVU2096
 8679 002e 1B68     		ldr	r3, [r3]
 8680              	.LBB2937:
 8681              	.LBB2928:
 126:../../DaisySP//Source/Utility/dsp.h **** }
 127:../../DaisySP//Source/Utility/dsp.h **** 
 128:../../DaisySP//Source/Utility/dsp.h **** 
 129:../../DaisySP//Source/Utility/dsp.h **** /** one pole lpf
 130:../../DaisySP//Source/Utility/dsp.h **** out is passed by reference, and must be retained between
 131:../../DaisySP//Source/Utility/dsp.h **** calls to properly filter the signal
 132:../../DaisySP//Source/Utility/dsp.h **** coeff can be calculated:
 133:../../DaisySP//Source/Utility/dsp.h **** coeff = 1.0 / (time * sample_rate) ; where time is in seconds
 134:../../DaisySP//Source/Utility/dsp.h **** */
 135:../../DaisySP//Source/Utility/dsp.h **** inline void fonepole(float &out, float in, float coeff)
 136:../../DaisySP//Source/Utility/dsp.h **** {
 137:../../DaisySP//Source/Utility/dsp.h ****     out += coeff * (in - out);
 138:../../DaisySP//Source/Utility/dsp.h **** }
 139:../../DaisySP//Source/Utility/dsp.h **** 
 140:../../DaisySP//Source/Utility/dsp.h **** /** Curves to use with the fmap function */
 141:../../DaisySP//Source/Utility/dsp.h **** enum class Mapping
 142:../../DaisySP//Source/Utility/dsp.h **** {
 143:../../DaisySP//Source/Utility/dsp.h ****     LINEAR,
 144:../../DaisySP//Source/Utility/dsp.h ****     EXP,
 145:../../DaisySP//Source/Utility/dsp.h ****     LOG,
 146:../../DaisySP//Source/Utility/dsp.h **** };
 147:../../DaisySP//Source/Utility/dsp.h **** 
 148:../../DaisySP//Source/Utility/dsp.h **** /** Maps a float between a specified range, using a specified curve. 
 149:../../DaisySP//Source/Utility/dsp.h ****  * 
 150:../../DaisySP//Source/Utility/dsp.h ****  *  \param in a value between 0 to 1 that will be mapped to the new range.
 151:../../DaisySP//Source/Utility/dsp.h ****  *  \param min the new minimum value
 152:../../DaisySP//Source/Utility/dsp.h ****  *  \param max the new maxmimum value
 153:../../DaisySP//Source/Utility/dsp.h ****  *  \param curve a Mapping Value to adjust the response curve of the transformation
 154:../../DaisySP//Source/Utility/dsp.h ****  *               defaults to Linear. @see Mapping
 155:../../DaisySP//Source/Utility/dsp.h ****  * 
 156:../../DaisySP//Source/Utility/dsp.h ****  *  When using the log curve min and max, must be greater than zero.
 157:../../DaisySP//Source/Utility/dsp.h ****  * 
 158:../../DaisySP//Source/Utility/dsp.h ****  *  \retval returns the transformed float within the new range.
 159:../../DaisySP//Source/Utility/dsp.h **** */
 160:../../DaisySP//Source/Utility/dsp.h **** inline float
 161:../../DaisySP//Source/Utility/dsp.h **** fmap(float in, float min, float max, Mapping curve = Mapping::LINEAR)
 162:../../DaisySP//Source/Utility/dsp.h **** {
 163:../../DaisySP//Source/Utility/dsp.h ****     switch(curve)
 164:../../DaisySP//Source/Utility/dsp.h ****     {
 165:../../DaisySP//Source/Utility/dsp.h ****         case Mapping::EXP:
 166:../../DaisySP//Source/Utility/dsp.h ****             return fclamp(min + (in * in) * (max - min), min, max);
 167:../../DaisySP//Source/Utility/dsp.h ****         case Mapping::LOG:
 168:../../DaisySP//Source/Utility/dsp.h ****         {
 169:../../DaisySP//Source/Utility/dsp.h ****             const float a = 1.f / log10f(max / min);
 170:../../DaisySP//Source/Utility/dsp.h ****             return fclamp(min * powf(10, in / a), min, max);
 171:../../DaisySP//Source/Utility/dsp.h ****         }
 172:../../DaisySP//Source/Utility/dsp.h ****         case Mapping::LINEAR:
 173:../../DaisySP//Source/Utility/dsp.h ****         default: return fclamp(min + in * (max - min), min, max);
 8682              		.loc 23 173 31 view .LVU2097
 8683 0030 9FED85BA 		vldr.32	s22, .L145+24
 8684              	.LBE2928:
ARM GAS  /var/folders/hl/qgbwny5j0fd895c2c41bk3tw0000gp/T//cckqgw4a.s 			page 219


 8685              	.LBE2937:
  63:OmniSeed.cpp  **** 	oct1.Debounce();
 8686              		.loc 17 63 43 view .LVU2098
 8687 0034 03EB4303 		add	r3, r3, r3, lsl #1
 8688              	.LBB2938:
 8689              	.LBB2909:
  49:../../libDaisy//src/util/CpuLoadMeter.h **** 
 8690              		.loc 18 49 51 view .LVU2099
 8691 0038 B060     		str	r0, [r6, #8]
 8692              	.LVL481:
  49:../../libDaisy//src/util/CpuLoadMeter.h **** 
 8693              		.loc 18 49 51 view .LVU2100
 8694              	.LBE2909:
 8695              	.LBE2938:
  61:OmniSeed.cpp  **** 	rootFreq = noteArray[metaKey];
 8696              		.loc 17 61 2 is_stmt 1 view .LVU2101
  62:OmniSeed.cpp  **** 	augFreq = chordNote[metaScale][touchedPad];
 8697              		.loc 17 62 2 view .LVU2102
  63:OmniSeed.cpp  **** 	oct1.Debounce();
 8698              		.loc 17 63 2 view .LVU2103
  64:OmniSeed.cpp  **** 	oct2.Debounce();
 8699              		.loc 17 64 15 is_stmt 0 view .LVU2104
 8700 003a 8448     		ldr	r0, .L145+28
 8701              	.LBB2939:
 8702              	.LBB2929:
 8703              		.loc 23 173 31 view .LVU2105
 8704 003c F0EE4BCA 		vmov.f32	s25, s22
 8705              	.LBE2929:
 8706              	.LBE2939:
  63:OmniSeed.cpp  **** 	oct1.Debounce();
 8707              		.loc 17 63 43 view .LVU2106
 8708 0040 02EB8303 		add	r3, r2, r3, lsl #2
 8709              	.LBB2940:
 8710              	.LBB2930:
 8711              		.loc 23 173 31 view .LVU2107
 8712 0044 9FED82AA 		vldr.32	s20, .L145+32
 8713              	.LBE2930:
 8714              	.LBE2940:
 8715              	.LBB2941:
 8716              	.LBB2942:
 8717 0048 DFED828A 		vldr.32	s17, .L145+36
 8718              	.LBE2942:
 8719              	.LBE2941:
  63:OmniSeed.cpp  **** 	oct1.Debounce();
 8720              		.loc 17 63 10 view .LVU2108
 8721 004c 01EB8303 		add	r3, r1, r3, lsl #2
 8722 0050 D3ED009A 		vldr.32	s19, [r3]	@ int
  64:OmniSeed.cpp  **** 	oct2.Debounce();
 8723              		.loc 17 64 15 view .LVU2109
 8724 0054 FFF7FEFF 		bl	_ZN5daisy6Switch8DebounceEv
 8725              	.LVL482:
  65:OmniSeed.cpp  **** 
 8726              		.loc 17 65 15 view .LVU2110
 8727 0058 7F48     		ldr	r0, .L145+40
 8728 005a FFF7FEFF 		bl	_ZN5daisy6Switch8DebounceEv
 8729              	.LVL483:
  67:OmniSeed.cpp  **** 	bright = fmap(hw.adc.GetFloat(pot1), 0.0f, 1.0f);
ARM GAS  /var/folders/hl/qgbwny5j0fd895c2c41bk3tw0000gp/T//cckqgw4a.s 			page 220


 8730              		.loc 17 67 15 view .LVU2111
 8731 005e 0021     		movs	r1, #0
 8732 0060 7E48     		ldr	r0, .L145+44
  63:OmniSeed.cpp  **** 	oct1.Debounce();
 8733              		.loc 17 63 10 view .LVU2112
 8734 0062 F8EEE99A 		vcvt.f32.s32	s19, s19
 8735              	.LVL484:
  64:OmniSeed.cpp  **** 	oct2.Debounce();
 8736              		.loc 17 64 2 is_stmt 1 view .LVU2113
  65:OmniSeed.cpp  **** 
 8737              		.loc 17 65 2 view .LVU2114
  67:OmniSeed.cpp  **** 	bright = fmap(hw.adc.GetFloat(pot1), 0.0f, 1.0f);
 8738              		.loc 17 67 2 view .LVU2115
  67:OmniSeed.cpp  **** 	bright = fmap(hw.adc.GetFloat(pot1), 0.0f, 1.0f);
 8739              		.loc 17 67 15 is_stmt 0 view .LVU2116
 8740 0066 FFF7FEFF 		bl	_ZNK5daisy9AdcHandle8GetFloatEh
 8741              	.LVL485:
 8742              	.LBB2956:
 8743              	.LBI2911:
 161:../../DaisySP//Source/Utility/dsp.h **** {
 8744              		.loc 23 161 1 is_stmt 1 view .LVU2117
 8745              	.LBE2956:
 163:../../DaisySP//Source/Utility/dsp.h ****     {
 8746              		.loc 23 163 5 view .LVU2118
 8747              	.LBB2957:
 8748              	.LBB2931:
 172:../../DaisySP//Source/Utility/dsp.h ****         default: return fclamp(min + in * (max - min), min, max);
 8749              		.loc 23 172 9 view .LVU2119
 8750              		.loc 23 173 9 view .LVU2120
 8751              		.loc 23 173 18 view .LVU2121
 8752              	.LBE2931:
 8753              	.LBE2957:
  68:OmniSeed.cpp  **** 	damp = fmap(hw.adc.GetFloat(pot2), 0.0f, 1.0f);
 8754              		.loc 17 68 15 is_stmt 0 view .LVU2122
 8755 006a 0021     		movs	r1, #0
 8756 006c 7B48     		ldr	r0, .L145+44
 8757              	.LBB2958:
 8758              	.LBB2932:
 8759              		.loc 23 173 31 view .LVU2123
 8760 006e E0EE0ACA 		vfma.f32	s25, s0, s20
 8761              	.LVL486:
 8762              	.LBB2924:
 8763              	.LBI2913:
  56:../../DaisySP//Source/Utility/dsp.h **** {
 8764              		.loc 23 56 14 is_stmt 1 view .LVU2124
 8765              	.LBE2924:
 8766              	.LBE2932:
 8767              	.LBE2958:
  58:../../DaisySP//Source/Utility/dsp.h **** }
 8768              		.loc 23 58 5 view .LVU2125
 8769              	.LBB2959:
 8770              	.LBB2933:
 8771              	.LBB2925:
 8772              	.LBB2918:
 8773              	.LBI2918:
  32:../../DaisySP//Source/Utility/dsp.h **** {
 8774              		.loc 23 32 14 view .LVU2126
ARM GAS  /var/folders/hl/qgbwny5j0fd895c2c41bk3tw0000gp/T//cckqgw4a.s 			page 221


 8775              	.LBB2919:
  34:../../DaisySP//Source/Utility/dsp.h **** #ifdef __arm__
 8776              		.loc 23 34 5 view .LVU2127
  36:../../DaisySP//Source/Utility/dsp.h **** #else
 8777              		.loc 23 36 5 view .LVU2128
 8778              	.LBE2919:
 8779              	.LBE2918:
 8780              	.LBE2925:
 8781              	.LBE2933:
 8782              	.LBE2959:
  68:OmniSeed.cpp  **** 	damp = fmap(hw.adc.GetFloat(pot2), 0.0f, 1.0f);
 8783              		.loc 17 68 15 is_stmt 0 view .LVU2129
 8784 0072 FFF7FEFF 		bl	_ZNK5daisy9AdcHandle8GetFloatEh
 8785              	.LVL487:
  69:OmniSeed.cpp  **** 	structr = fmap(hw.adc.GetFloat(pot3), 0.0f, 1.0f);
 8786              		.loc 17 69 13 view .LVU2130
 8787 0076 0121     		movs	r1, #1
 8788 0078 7848     		ldr	r0, .L145+44
 8789              	.LBB2960:
 8790              	.LBB2952:
 8791              		.loc 23 173 31 view .LVU2131
 8792 007a 30EE28CA 		vadd.f32	s24, s0, s17
 8793              	.LBE2952:
 8794              	.LBE2960:
  69:OmniSeed.cpp  **** 	structr = fmap(hw.adc.GetFloat(pot3), 0.0f, 1.0f);
 8795              		.loc 17 69 13 view .LVU2132
 8796 007e FFF7FEFF 		bl	_ZNK5daisy9AdcHandle8GetFloatEh
 8797              	.LVL488:
  70:OmniSeed.cpp  **** 	attack = fmap(hw.adc.GetFloat(pot5), .01, 2);
 8798              		.loc 17 70 16 view .LVU2133
 8799 0082 0221     		movs	r1, #2
 8800 0084 7548     		ldr	r0, .L145+44
 8801              	.LBB2961:
 8802              	.LBB2962:
 8803              		.loc 23 173 31 view .LVU2134
 8804 0086 70EE28BA 		vadd.f32	s23, s0, s17
 8805              	.LBE2962:
 8806              	.LBE2961:
 8807              	.LBB2975:
 8808              	.LBB2953:
 8809              	.LBB2943:
 8810              	.LBB2944:
 8811              	.LBB2945:
  36:../../DaisySP//Source/Utility/dsp.h **** #else
 8812              		.loc 23 36 5 view .LVU2135
 8813              		.syntax unified
 8814              	@ 36 "../../DaisySP//Source/Utility/dsp.h" 1
 8815 008a 8CFE28CA 		vmaxnm.f32 s24, s24, s17
 8816              	@ 0 "" 2
 8817              		.thumb
 8818              		.syntax unified
 8819              	.LBE2945:
 8820              	.LBE2944:
 8821              	.LBE2943:
 8822              	.LBE2953:
 8823              	.LBE2975:
  70:OmniSeed.cpp  **** 	attack = fmap(hw.adc.GetFloat(pot5), .01, 2);
ARM GAS  /var/folders/hl/qgbwny5j0fd895c2c41bk3tw0000gp/T//cckqgw4a.s 			page 222


 8824              		.loc 17 70 16 view .LVU2136
 8825 008e FFF7FEFF 		bl	_ZNK5daisy9AdcHandle8GetFloatEh
 8826              	.LVL489:
 8827              	.LBB2976:
 8828              	.LBB2977:
 8829              		.loc 23 173 31 view .LVU2137
 8830 0092 70EE28AA 		vadd.f32	s21, s0, s17
 8831              	.LBE2977:
 8832              	.LBE2976:
 8833              	.LBB2990:
 8834              	.LBB2972:
 8835              	.LBB2963:
 8836              	.LBB2964:
 8837              	.LBB2965:
  36:../../DaisySP//Source/Utility/dsp.h **** #else
 8838              		.loc 23 36 5 view .LVU2138
 8839              		.syntax unified
 8840              	@ 36 "../../DaisySP//Source/Utility/dsp.h" 1
 8841 0096 CBFEA8BA 		vmaxnm.f32 s23, s23, s17
 8842              	@ 0 "" 2
 8843              		.thumb
 8844              		.syntax unified
 8845              	.LBE2965:
 8846              	.LBE2964:
 8847              	.LBE2963:
 8848              	.LBE2972:
 8849              	.LBE2990:
 8850              	.LBB2991:
 8851              	.LBB2987:
 8852              	.LBB2978:
 8853              	.LBB2979:
 8854              	.LBB2980:
 8855              		.syntax unified
 8856              	@ 36 "../../DaisySP//Source/Utility/dsp.h" 1
 8857 009a CAFEA8AA 		vmaxnm.f32 s21, s21, s17
 8858              	@ 0 "" 2
 8859              		.thumb
 8860              		.syntax unified
 8861              	.LBE2980:
 8862              	.LBE2979:
 8863              	.LBE2978:
 8864              	.LBE2987:
 8865              	.LBE2991:
 8866              	.LBB2992:
 8867              	.LBB2993:
 8868              		.loc 23 173 31 view .LVU2139
 8869 009e DFED708A 		vldr.32	s17, .L145+48
 8870              	.LBE2993:
 8871              	.LBE2992:
  71:OmniSeed.cpp  **** 	decay  = fmap(hw.adc.GetFloat(pot6), 0.1f, 1.0f);
 8872              		.loc 17 71 15 view .LVU2140
 8873 00a2 0421     		movs	r1, #4
 8874 00a4 6D48     		ldr	r0, .L145+44
 8875 00a6 FFF7FEFF 		bl	_ZNK5daisy9AdcHandle8GetFloatEh
 8876              	.LVL490:
 8877              	.LBB3011:
 8878              	.LBB3007:
ARM GAS  /var/folders/hl/qgbwny5j0fd895c2c41bk3tw0000gp/T//cckqgw4a.s 			page 223


 8879              		.loc 23 173 31 view .LVU2141
 8880 00aa B0EE687A 		vmov.f32	s14, s17
 8881 00ae DFED6D7A 		vldr.32	s15, .L145+52
 8882              	.LBE3007:
 8883              	.LBE3011:
  72:OmniSeed.cpp  **** 	feedback = fmap(hw.adc.GetFloat(pot3), 0.3f, 0.99f);
 8884              		.loc 17 72 15 view .LVU2142
 8885 00b2 0521     		movs	r1, #5
 8886 00b4 6948     		ldr	r0, .L145+44
 8887              	.LBB3012:
 8888              	.LBB3008:
 8889              		.loc 23 173 31 view .LVU2143
 8890 00b6 A0EE277A 		vfma.f32	s14, s0, s15
 8891              	.LBB2994:
 8892              	.LBB2995:
 8893              	.LBB2996:
  47:../../DaisySP//Source/Utility/dsp.h **** #else
 8894              		.loc 23 47 5 view .LVU2144
 8895 00ba F0EE007A 		vmov.f32	s15, #2.0e+0
 8896              	.LBE2996:
 8897              	.LBE2995:
 8898              	.LBB2999:
 8899              	.LBB3000:
  36:../../DaisySP//Source/Utility/dsp.h **** #else
 8900              		.loc 23 36 5 view .LVU2145
 8901              		.syntax unified
 8902              	@ 36 "../../DaisySP//Source/Utility/dsp.h" 1
 8903 00be 87FE287A 		vmaxnm.f32 s14, s14, s17
 8904              	@ 0 "" 2
 8905              		.thumb
 8906              		.syntax unified
 8907              	.LBE3000:
 8908              	.LBE2999:
 8909              	.LBB3002:
 8910              	.LBB2997:
  47:../../DaisySP//Source/Utility/dsp.h **** #else
 8911              		.loc 23 47 5 view .LVU2146
 8912              		.syntax unified
 8913              	@ 47 "../../DaisySP//Source/Utility/dsp.h" 1
 8914 00c2 C7FE678A 		vminnm.f32 s17, s14, s15
 8915              	@ 0 "" 2
 8916              		.thumb
 8917              		.syntax unified
 8918              	.LBE2997:
 8919              	.LBE3002:
 8920              	.LBE2994:
 8921              	.LBE3008:
 8922              	.LBE3012:
  72:OmniSeed.cpp  **** 	feedback = fmap(hw.adc.GetFloat(pot3), 0.3f, 0.99f);
 8923              		.loc 17 72 15 view .LVU2147
 8924 00c6 FFF7FEFF 		bl	_ZNK5daisy9AdcHandle8GetFloatEh
 8925              	.LVL491:
 8926              	.LBB3013:
 8927              	.LBB3014:
 8928              		.loc 23 173 31 view .LVU2148
 8929 00ca F0EE4B7A 		vmov.f32	s15, s22
 8930              	.LBE3014:
ARM GAS  /var/folders/hl/qgbwny5j0fd895c2c41bk3tw0000gp/T//cckqgw4a.s 			page 224


 8931              	.LBE3013:
 8932              	.LBB3027:
 8933              	.LBB2934:
 8934              	.LBB2926:
 8935              	.LBB2921:
 8936              	.LBB2920:
  36:../../DaisySP//Source/Utility/dsp.h **** #else
 8937              		.loc 23 36 5 view .LVU2149
 8938              		.syntax unified
 8939              	@ 36 "../../DaisySP//Source/Utility/dsp.h" 1
 8940 00ce CCFE8BCA 		vmaxnm.f32 s25, s25, s22
 8941              	@ 0 "" 2
 8942              	.LVL492:
  40:../../DaisySP//Source/Utility/dsp.h **** }
 8943              		.loc 23 40 5 is_stmt 1 view .LVU2150
  40:../../DaisySP//Source/Utility/dsp.h **** }
 8944              		.loc 23 40 5 is_stmt 0 view .LVU2151
 8945              		.thumb
 8946              		.syntax unified
 8947              	.LBE2920:
 8948              	.LBE2921:
 8949              	.LBB2922:
 8950              	.LBI2914:
  43:../../DaisySP//Source/Utility/dsp.h **** {
 8951              		.loc 23 43 14 is_stmt 1 view .LVU2152
 8952              	.LBB2916:
  45:../../DaisySP//Source/Utility/dsp.h **** #ifdef __arm__
 8953              		.loc 23 45 5 view .LVU2153
  47:../../DaisySP//Source/Utility/dsp.h **** #else
 8954              		.loc 23 47 5 view .LVU2154
 8955              	.LBE2916:
 8956              	.LBE2922:
 8957              	.LBE2926:
 8958              	.LBE2934:
 8959              	.LBE3027:
  73:OmniSeed.cpp  **** 	cutoff = fmap(hw.adc.GetFloat(pot4), 1000.f, 19000.f, Mapping::LOG);
 8960              		.loc 17 73 17 is_stmt 0 view .LVU2155
 8961 00d2 0221     		movs	r1, #2
 8962 00d4 6148     		ldr	r0, .L145+44
 8963              	.LBB3028:
 8964              	.LBB3024:
 8965              		.loc 23 173 31 view .LVU2156
 8966 00d6 E0EE0A7A 		vfma.f32	s15, s0, s20
 8967              	.LBB3015:
 8968              	.LBB3016:
 8969              	.LBB3017:
  36:../../DaisySP//Source/Utility/dsp.h **** #else
 8970              		.loc 23 36 5 view .LVU2157
 8971              		.syntax unified
 8972              	@ 36 "../../DaisySP//Source/Utility/dsp.h" 1
 8973 00da C7FE8B7A 		vmaxnm.f32 s15, s15, s22
 8974              	@ 0 "" 2
 8975              		.thumb
 8976              		.syntax unified
 8977              	.LBE3017:
 8978              	.LBE3016:
 8979              	.LBE3015:
ARM GAS  /var/folders/hl/qgbwny5j0fd895c2c41bk3tw0000gp/T//cckqgw4a.s 			page 225


 8980              	.LBE3024:
 8981              	.LBE3028:
 8982              	.LBB3029:
 8983              	.LBB3030:
 8984              		.loc 23 173 31 view .LVU2158
 8985 00de 9FED62BA 		vldr.32	s22, .L145+56
 8986              	.LBE3030:
 8987              	.LBE3029:
 8988              	.LBB3044:
 8989              	.LBB2935:
 8990              	.LBB2927:
 8991              	.LBB2923:
 8992              	.LBB2917:
  47:../../DaisySP//Source/Utility/dsp.h **** #else
 8993              		.loc 23 47 5 view .LVU2159
 8994              		.syntax unified
 8995              	@ 47 "../../DaisySP//Source/Utility/dsp.h" 1
 8996 00e2 CCFEC8CA 		vminnm.f32 s25, s25, s16
 8997              	@ 0 "" 2
 8998              	.LVL493:
  51:../../DaisySP//Source/Utility/dsp.h **** }
 8999              		.loc 23 51 5 is_stmt 1 view .LVU2160
  51:../../DaisySP//Source/Utility/dsp.h **** }
 9000              		.loc 23 51 5 is_stmt 0 view .LVU2161
 9001              		.thumb
 9002              		.syntax unified
 9003              	.LBE2917:
 9004              	.LBE2923:
 9005              	.LBE2927:
 9006              	.LBE2935:
 9007              	.LBE3044:
  68:OmniSeed.cpp  **** 	damp = fmap(hw.adc.GetFloat(pot2), 0.0f, 1.0f);
 9008              		.loc 17 68 2 is_stmt 1 view .LVU2162
 9009              	.LBB3045:
 9010              	.LBI2941:
 161:../../DaisySP//Source/Utility/dsp.h **** {
 9011              		.loc 23 161 1 view .LVU2163
 9012              	.LBE3045:
 163:../../DaisySP//Source/Utility/dsp.h ****     {
 9013              		.loc 23 163 5 view .LVU2164
 9014              	.LBB3046:
 9015              	.LBB2954:
 172:../../DaisySP//Source/Utility/dsp.h ****         default: return fclamp(min + in * (max - min), min, max);
 9016              		.loc 23 172 9 view .LVU2165
 9017              		.loc 23 173 9 view .LVU2166
 9018              		.loc 23 173 18 view .LVU2167
 9019              	.LBB2950:
 9020              	.LBI2943:
  56:../../DaisySP//Source/Utility/dsp.h **** {
 9021              		.loc 23 56 14 view .LVU2168
 9022              	.LBE2950:
 9023              	.LBE2954:
 9024              	.LBE3046:
  58:../../DaisySP//Source/Utility/dsp.h **** }
 9025              		.loc 23 58 5 view .LVU2169
 9026              	.LBB3047:
 9027              	.LBB2955:
ARM GAS  /var/folders/hl/qgbwny5j0fd895c2c41bk3tw0000gp/T//cckqgw4a.s 			page 226


 9028              	.LBB2951:
 9029              	.LBB2947:
 9030              	.LBI2944:
  32:../../DaisySP//Source/Utility/dsp.h **** {
 9031              		.loc 23 32 14 view .LVU2170
 9032              	.LBB2946:
  34:../../DaisySP//Source/Utility/dsp.h **** #ifdef __arm__
 9033              		.loc 23 34 5 view .LVU2171
  36:../../DaisySP//Source/Utility/dsp.h **** #else
 9034              		.loc 23 36 5 view .LVU2172
  40:../../DaisySP//Source/Utility/dsp.h **** }
 9035              		.loc 23 40 5 view .LVU2173
  40:../../DaisySP//Source/Utility/dsp.h **** }
 9036              		.loc 23 40 5 is_stmt 0 view .LVU2174
 9037              	.LBE2946:
 9038              	.LBE2947:
 9039              	.LBB2948:
 9040              	.LBI2948:
  43:../../DaisySP//Source/Utility/dsp.h **** {
 9041              		.loc 23 43 14 is_stmt 1 view .LVU2175
 9042              	.LBB2949:
  45:../../DaisySP//Source/Utility/dsp.h **** #ifdef __arm__
 9043              		.loc 23 45 5 view .LVU2176
  47:../../DaisySP//Source/Utility/dsp.h **** #else
 9044              		.loc 23 47 5 view .LVU2177
 9045              		.syntax unified
 9046              	@ 47 "../../DaisySP//Source/Utility/dsp.h" 1
 9047 00e6 8CFE48CA 		vminnm.f32 s24, s24, s16
 9048              	@ 0 "" 2
 9049              	.LVL494:
  51:../../DaisySP//Source/Utility/dsp.h **** }
 9050              		.loc 23 51 5 view .LVU2178
  51:../../DaisySP//Source/Utility/dsp.h **** }
 9051              		.loc 23 51 5 is_stmt 0 view .LVU2179
 9052              		.thumb
 9053              		.syntax unified
 9054              	.LBE2949:
 9055              	.LBE2948:
 9056              	.LBE2951:
 9057              	.LBE2955:
 9058              	.LBE3047:
  69:OmniSeed.cpp  **** 	structr = fmap(hw.adc.GetFloat(pot3), 0.0f, 1.0f);
 9059              		.loc 17 69 2 is_stmt 1 view .LVU2180
 9060              	.LBB3048:
 9061              	.LBI2961:
 161:../../DaisySP//Source/Utility/dsp.h **** {
 9062              		.loc 23 161 1 view .LVU2181
 9063              	.LBE3048:
 163:../../DaisySP//Source/Utility/dsp.h ****     {
 9064              		.loc 23 163 5 view .LVU2182
 9065              	.LBB3049:
 9066              	.LBB2973:
 172:../../DaisySP//Source/Utility/dsp.h ****         default: return fclamp(min + in * (max - min), min, max);
 9067              		.loc 23 172 9 view .LVU2183
 9068              		.loc 23 173 9 view .LVU2184
 9069              		.loc 23 173 18 view .LVU2185
 9070              	.LBB2970:
ARM GAS  /var/folders/hl/qgbwny5j0fd895c2c41bk3tw0000gp/T//cckqgw4a.s 			page 227


 9071              	.LBI2963:
  56:../../DaisySP//Source/Utility/dsp.h **** {
 9072              		.loc 23 56 14 view .LVU2186
 9073              	.LBE2970:
 9074              	.LBE2973:
 9075              	.LBE3049:
  58:../../DaisySP//Source/Utility/dsp.h **** }
 9076              		.loc 23 58 5 view .LVU2187
 9077              	.LBB3050:
 9078              	.LBB2974:
 9079              	.LBB2971:
 9080              	.LBB2967:
 9081              	.LBI2964:
  32:../../DaisySP//Source/Utility/dsp.h **** {
 9082              		.loc 23 32 14 view .LVU2188
 9083              	.LBB2966:
  34:../../DaisySP//Source/Utility/dsp.h **** #ifdef __arm__
 9084              		.loc 23 34 5 view .LVU2189
  36:../../DaisySP//Source/Utility/dsp.h **** #else
 9085              		.loc 23 36 5 view .LVU2190
  40:../../DaisySP//Source/Utility/dsp.h **** }
 9086              		.loc 23 40 5 view .LVU2191
  40:../../DaisySP//Source/Utility/dsp.h **** }
 9087              		.loc 23 40 5 is_stmt 0 view .LVU2192
 9088              	.LBE2966:
 9089              	.LBE2967:
 9090              	.LBB2968:
 9091              	.LBI2968:
  43:../../DaisySP//Source/Utility/dsp.h **** {
 9092              		.loc 23 43 14 is_stmt 1 view .LVU2193
 9093              	.LBB2969:
  45:../../DaisySP//Source/Utility/dsp.h **** #ifdef __arm__
 9094              		.loc 23 45 5 view .LVU2194
  47:../../DaisySP//Source/Utility/dsp.h **** #else
 9095              		.loc 23 47 5 view .LVU2195
 9096              		.syntax unified
 9097              	@ 47 "../../DaisySP//Source/Utility/dsp.h" 1
 9098 00ea CBFEC8BA 		vminnm.f32 s23, s23, s16
 9099              	@ 0 "" 2
 9100              	.LVL495:
  51:../../DaisySP//Source/Utility/dsp.h **** }
 9101              		.loc 23 51 5 view .LVU2196
  51:../../DaisySP//Source/Utility/dsp.h **** }
 9102              		.loc 23 51 5 is_stmt 0 view .LVU2197
 9103              		.thumb
 9104              		.syntax unified
 9105              	.LBE2969:
 9106              	.LBE2968:
 9107              	.LBE2971:
 9108              	.LBE2974:
 9109              	.LBE3050:
  70:OmniSeed.cpp  **** 	attack = fmap(hw.adc.GetFloat(pot5), .01, 2);
 9110              		.loc 17 70 2 is_stmt 1 view .LVU2198
 9111              	.LBB3051:
 9112              	.LBI2976:
 161:../../DaisySP//Source/Utility/dsp.h **** {
 9113              		.loc 23 161 1 view .LVU2199
ARM GAS  /var/folders/hl/qgbwny5j0fd895c2c41bk3tw0000gp/T//cckqgw4a.s 			page 228


 9114              	.LBE3051:
 163:../../DaisySP//Source/Utility/dsp.h ****     {
 9115              		.loc 23 163 5 view .LVU2200
 9116              	.LBB3052:
 9117              	.LBB2988:
 172:../../DaisySP//Source/Utility/dsp.h ****         default: return fclamp(min + in * (max - min), min, max);
 9118              		.loc 23 172 9 view .LVU2201
 9119              		.loc 23 173 9 view .LVU2202
 9120              		.loc 23 173 18 view .LVU2203
 9121              	.LBB2985:
 9122              	.LBI2978:
  56:../../DaisySP//Source/Utility/dsp.h **** {
 9123              		.loc 23 56 14 view .LVU2204
 9124              	.LBE2985:
 9125              	.LBE2988:
 9126              	.LBE3052:
  58:../../DaisySP//Source/Utility/dsp.h **** }
 9127              		.loc 23 58 5 view .LVU2205
 9128              	.LBB3053:
 9129              	.LBB2989:
 9130              	.LBB2986:
 9131              	.LBB2982:
 9132              	.LBI2979:
  32:../../DaisySP//Source/Utility/dsp.h **** {
 9133              		.loc 23 32 14 view .LVU2206
 9134              	.LBB2981:
  34:../../DaisySP//Source/Utility/dsp.h **** #ifdef __arm__
 9135              		.loc 23 34 5 view .LVU2207
  36:../../DaisySP//Source/Utility/dsp.h **** #else
 9136              		.loc 23 36 5 view .LVU2208
  40:../../DaisySP//Source/Utility/dsp.h **** }
 9137              		.loc 23 40 5 view .LVU2209
  40:../../DaisySP//Source/Utility/dsp.h **** }
 9138              		.loc 23 40 5 is_stmt 0 view .LVU2210
 9139              	.LBE2981:
 9140              	.LBE2982:
 9141              	.LBB2983:
 9142              	.LBI2983:
  43:../../DaisySP//Source/Utility/dsp.h **** {
 9143              		.loc 23 43 14 is_stmt 1 view .LVU2211
 9144              	.LBB2984:
  45:../../DaisySP//Source/Utility/dsp.h **** #ifdef __arm__
 9145              		.loc 23 45 5 view .LVU2212
  47:../../DaisySP//Source/Utility/dsp.h **** #else
 9146              		.loc 23 47 5 view .LVU2213
 9147              		.syntax unified
 9148              	@ 47 "../../DaisySP//Source/Utility/dsp.h" 1
 9149 00ee CAFEC8AA 		vminnm.f32 s21, s21, s16
 9150              	@ 0 "" 2
 9151              	.LVL496:
  51:../../DaisySP//Source/Utility/dsp.h **** }
 9152              		.loc 23 51 5 view .LVU2214
  51:../../DaisySP//Source/Utility/dsp.h **** }
 9153              		.loc 23 51 5 is_stmt 0 view .LVU2215
 9154              		.thumb
 9155              		.syntax unified
 9156              	.LBE2984:
ARM GAS  /var/folders/hl/qgbwny5j0fd895c2c41bk3tw0000gp/T//cckqgw4a.s 			page 229


 9157              	.LBE2983:
 9158              	.LBE2986:
 9159              	.LBE2989:
 9160              	.LBE3053:
  71:OmniSeed.cpp  **** 	decay  = fmap(hw.adc.GetFloat(pot6), 0.1f, 1.0f);
 9161              		.loc 17 71 2 is_stmt 1 view .LVU2216
 9162              	.LBB3054:
 9163              	.LBI2992:
 161:../../DaisySP//Source/Utility/dsp.h **** {
 9164              		.loc 23 161 1 view .LVU2217
 9165              	.LBE3054:
 163:../../DaisySP//Source/Utility/dsp.h ****     {
 9166              		.loc 23 163 5 view .LVU2218
 9167              	.LBB3055:
 9168              	.LBB3009:
 172:../../DaisySP//Source/Utility/dsp.h ****         default: return fclamp(min + in * (max - min), min, max);
 9169              		.loc 23 172 9 view .LVU2219
 9170              		.loc 23 173 9 view .LVU2220
 9171              		.loc 23 173 18 view .LVU2221
 9172              	.LBB3005:
 9173              	.LBI2994:
  56:../../DaisySP//Source/Utility/dsp.h **** {
 9174              		.loc 23 56 14 view .LVU2222
 9175              	.LBE3005:
 9176              	.LBE3009:
 9177              	.LBE3055:
  58:../../DaisySP//Source/Utility/dsp.h **** }
 9178              		.loc 23 58 5 view .LVU2223
 9179              	.LBB3056:
 9180              	.LBB3010:
 9181              	.LBB3006:
 9182              	.LBB3003:
 9183              	.LBI2999:
  32:../../DaisySP//Source/Utility/dsp.h **** {
 9184              		.loc 23 32 14 view .LVU2224
 9185              	.LBB3001:
  34:../../DaisySP//Source/Utility/dsp.h **** #ifdef __arm__
 9186              		.loc 23 34 5 view .LVU2225
  36:../../DaisySP//Source/Utility/dsp.h **** #else
 9187              		.loc 23 36 5 view .LVU2226
  40:../../DaisySP//Source/Utility/dsp.h **** }
 9188              		.loc 23 40 5 view .LVU2227
  40:../../DaisySP//Source/Utility/dsp.h **** }
 9189              		.loc 23 40 5 is_stmt 0 view .LVU2228
 9190              	.LBE3001:
 9191              	.LBE3003:
 9192              	.LBB3004:
 9193              	.LBI2995:
  43:../../DaisySP//Source/Utility/dsp.h **** {
 9194              		.loc 23 43 14 is_stmt 1 view .LVU2229
 9195              	.LBB2998:
  45:../../DaisySP//Source/Utility/dsp.h **** #ifdef __arm__
 9196              		.loc 23 45 5 view .LVU2230
  47:../../DaisySP//Source/Utility/dsp.h **** #else
 9197              		.loc 23 47 5 view .LVU2231
  51:../../DaisySP//Source/Utility/dsp.h **** }
 9198              		.loc 23 51 5 view .LVU2232
ARM GAS  /var/folders/hl/qgbwny5j0fd895c2c41bk3tw0000gp/T//cckqgw4a.s 			page 230


  51:../../DaisySP//Source/Utility/dsp.h **** }
 9199              		.loc 23 51 5 is_stmt 0 view .LVU2233
 9200              	.LBE2998:
 9201              	.LBE3004:
 9202              	.LBE3006:
 9203              	.LBE3010:
 9204              	.LBE3056:
  72:OmniSeed.cpp  **** 	feedback = fmap(hw.adc.GetFloat(pot3), 0.3f, 0.99f);
 9205              		.loc 17 72 2 is_stmt 1 view .LVU2234
 9206              	.LBB3057:
 9207              	.LBI3013:
 161:../../DaisySP//Source/Utility/dsp.h **** {
 9208              		.loc 23 161 1 view .LVU2235
 9209              	.LBE3057:
 163:../../DaisySP//Source/Utility/dsp.h ****     {
 9210              		.loc 23 163 5 view .LVU2236
 9211              	.LBB3058:
 9212              	.LBB3025:
 172:../../DaisySP//Source/Utility/dsp.h ****         default: return fclamp(min + in * (max - min), min, max);
 9213              		.loc 23 172 9 view .LVU2237
 9214              		.loc 23 173 9 view .LVU2238
 9215              		.loc 23 173 18 view .LVU2239
 9216              	.LBB3022:
 9217              	.LBI3015:
  56:../../DaisySP//Source/Utility/dsp.h **** {
 9218              		.loc 23 56 14 view .LVU2240
 9219              	.LBE3022:
 9220              	.LBE3025:
 9221              	.LBE3058:
  58:../../DaisySP//Source/Utility/dsp.h **** }
 9222              		.loc 23 58 5 view .LVU2241
 9223              	.LBB3059:
 9224              	.LBB3026:
 9225              	.LBB3023:
 9226              	.LBB3019:
 9227              	.LBI3016:
  32:../../DaisySP//Source/Utility/dsp.h **** {
 9228              		.loc 23 32 14 view .LVU2242
 9229              	.LBB3018:
  34:../../DaisySP//Source/Utility/dsp.h **** #ifdef __arm__
 9230              		.loc 23 34 5 view .LVU2243
  36:../../DaisySP//Source/Utility/dsp.h **** #else
 9231              		.loc 23 36 5 view .LVU2244
  40:../../DaisySP//Source/Utility/dsp.h **** }
 9232              		.loc 23 40 5 view .LVU2245
  40:../../DaisySP//Source/Utility/dsp.h **** }
 9233              		.loc 23 40 5 is_stmt 0 view .LVU2246
 9234              	.LBE3018:
 9235              	.LBE3019:
 9236              	.LBB3020:
 9237              	.LBI3020:
  43:../../DaisySP//Source/Utility/dsp.h **** {
 9238              		.loc 23 43 14 is_stmt 1 view .LVU2247
 9239              	.LBB3021:
  45:../../DaisySP//Source/Utility/dsp.h **** #ifdef __arm__
 9240              		.loc 23 45 5 view .LVU2248
  47:../../DaisySP//Source/Utility/dsp.h **** #else
ARM GAS  /var/folders/hl/qgbwny5j0fd895c2c41bk3tw0000gp/T//cckqgw4a.s 			page 231


 9241              		.loc 23 47 5 view .LVU2249
 9242              		.syntax unified
 9243              	@ 47 "../../DaisySP//Source/Utility/dsp.h" 1
 9244 00f2 87FEC88A 		vminnm.f32 s16, s15, s16
 9245              	@ 0 "" 2
 9246              	.LVL497:
  51:../../DaisySP//Source/Utility/dsp.h **** }
 9247              		.loc 23 51 5 view .LVU2250
  51:../../DaisySP//Source/Utility/dsp.h **** }
 9248              		.loc 23 51 5 is_stmt 0 view .LVU2251
 9249              		.thumb
 9250              		.syntax unified
 9251              	.LBE3021:
 9252              	.LBE3020:
 9253              	.LBE3023:
 9254              	.LBE3026:
 9255              	.LBE3059:
  73:OmniSeed.cpp  **** 	cutoff = fmap(hw.adc.GetFloat(pot4), 1000.f, 19000.f, Mapping::LOG);
 9256              		.loc 17 73 2 is_stmt 1 view .LVU2252
  73:OmniSeed.cpp  **** 	cutoff = fmap(hw.adc.GetFloat(pot4), 1000.f, 19000.f, Mapping::LOG);
 9257              		.loc 17 73 17 is_stmt 0 view .LVU2253
 9258 00f6 FFF7FEFF 		bl	_ZNK5daisy9AdcHandle8GetFloatEh
 9259              	.LVL498:
 9260              	.LBB3060:
 9261              	.LBI3029:
 161:../../DaisySP//Source/Utility/dsp.h **** {
 9262              		.loc 23 161 1 is_stmt 1 view .LVU2254
 9263              	.LBE3060:
 163:../../DaisySP//Source/Utility/dsp.h ****     {
 9264              		.loc 23 163 5 view .LVU2255
 9265              	.LBB3061:
 9266              	.LBB3041:
 172:../../DaisySP//Source/Utility/dsp.h ****         default: return fclamp(min + in * (max - min), min, max);
 9267              		.loc 23 172 9 view .LVU2256
 9268              		.loc 23 173 9 view .LVU2257
 9269              		.loc 23 173 18 view .LVU2258
 9270              		.loc 23 173 31 is_stmt 0 view .LVU2259
 9271 00fa F0EE4B7A 		vmov.f32	s15, s22
 9272 00fe 9FED5B7A 		vldr.32	s14, .L145+60
 9273              	.LBE3041:
 9274              	.LBE3061:
  74:OmniSeed.cpp  **** 
 9275              		.loc 17 74 15 view .LVU2260
 9276 0102 0321     		movs	r1, #3
 9277 0104 5548     		ldr	r0, .L145+44
 9278              	.LBB3062:
 9279              	.LBB3042:
 9280              		.loc 23 173 31 view .LVU2261
 9281 0106 E0EE077A 		vfma.f32	s15, s0, s14
 9282              	.LVL499:
 9283              	.LBB3031:
 9284              	.LBI3031:
  56:../../DaisySP//Source/Utility/dsp.h **** {
 9285              		.loc 23 56 14 is_stmt 1 view .LVU2262
 9286              	.LBE3031:
 9287              	.LBE3042:
 9288              	.LBE3062:
ARM GAS  /var/folders/hl/qgbwny5j0fd895c2c41bk3tw0000gp/T//cckqgw4a.s 			page 232


  58:../../DaisySP//Source/Utility/dsp.h **** }
 9289              		.loc 23 58 5 view .LVU2263
 9290              	.LBB3063:
 9291              	.LBB3043:
 9292              	.LBB3040:
 9293              	.LBB3032:
 9294              	.LBI3032:
  32:../../DaisySP//Source/Utility/dsp.h **** {
 9295              		.loc 23 32 14 view .LVU2264
 9296              	.LBB3033:
  34:../../DaisySP//Source/Utility/dsp.h **** #ifdef __arm__
 9297              		.loc 23 34 5 view .LVU2265
  36:../../DaisySP//Source/Utility/dsp.h **** #else
 9298              		.loc 23 36 5 view .LVU2266
 9299              	.LBE3033:
 9300              	.LBE3032:
 9301              	.LBB3035:
 9302              	.LBB3036:
  47:../../DaisySP//Source/Utility/dsp.h **** #else
 9303              		.loc 23 47 5 is_stmt 0 view .LVU2267
 9304 010a 9FED597A 		vldr.32	s14, .L145+64
 9305              	.LBE3036:
 9306              	.LBE3035:
 9307              	.LBB3038:
 9308              	.LBB3034:
  36:../../DaisySP//Source/Utility/dsp.h **** #else
 9309              		.loc 23 36 5 view .LVU2268
 9310              		.syntax unified
 9311              	@ 36 "../../DaisySP//Source/Utility/dsp.h" 1
 9312 010e C7FE8B7A 		vmaxnm.f32 s15, s15, s22
 9313              	@ 0 "" 2
 9314              	.LVL500:
  40:../../DaisySP//Source/Utility/dsp.h **** }
 9315              		.loc 23 40 5 is_stmt 1 view .LVU2269
  40:../../DaisySP//Source/Utility/dsp.h **** }
 9316              		.loc 23 40 5 is_stmt 0 view .LVU2270
 9317              		.thumb
 9318              		.syntax unified
 9319              	.LBE3034:
 9320              	.LBE3038:
 9321              	.LBB3039:
 9322              	.LBI3035:
  43:../../DaisySP//Source/Utility/dsp.h **** {
 9323              		.loc 23 43 14 is_stmt 1 view .LVU2271
 9324              	.LBB3037:
  45:../../DaisySP//Source/Utility/dsp.h **** #ifdef __arm__
 9325              		.loc 23 45 5 view .LVU2272
  47:../../DaisySP//Source/Utility/dsp.h **** #else
 9326              		.loc 23 47 5 view .LVU2273
 9327              		.syntax unified
 9328              	@ 47 "../../DaisySP//Source/Utility/dsp.h" 1
 9329 0112 87FEC7BA 		vminnm.f32 s22, s15, s14
 9330              	@ 0 "" 2
 9331              	.LVL501:
  51:../../DaisySP//Source/Utility/dsp.h **** }
 9332              		.loc 23 51 5 view .LVU2274
  51:../../DaisySP//Source/Utility/dsp.h **** }
ARM GAS  /var/folders/hl/qgbwny5j0fd895c2c41bk3tw0000gp/T//cckqgw4a.s 			page 233


 9333              		.loc 23 51 5 is_stmt 0 view .LVU2275
 9334              		.thumb
 9335              		.syntax unified
 9336              	.LBE3037:
 9337              	.LBE3039:
 9338              	.LBE3040:
 9339              	.LBE3043:
 9340              	.LBE3063:
  74:OmniSeed.cpp  **** 
 9341              		.loc 17 74 2 is_stmt 1 view .LVU2276
  74:OmniSeed.cpp  **** 
 9342              		.loc 17 74 15 is_stmt 0 view .LVU2277
 9343 0116 FFF7FEFF 		bl	_ZNK5daisy9AdcHandle8GetFloatEh
 9344              	.LVL502:
 9345              	.LBB3064:
 9346              	.LBI3064:
 161:../../DaisySP//Source/Utility/dsp.h **** {
 9347              		.loc 23 161 1 is_stmt 1 view .LVU2278
 9348              	.LBE3064:
 163:../../DaisySP//Source/Utility/dsp.h ****     {
 9349              		.loc 23 163 5 view .LVU2279
 9350              	.LBB3088:
 9351              	.LBB3065:
 9352              	.LBI3065:
 161:../../DaisySP//Source/Utility/dsp.h **** {
 9353              		.loc 23 161 1 view .LVU2280
 161:../../DaisySP//Source/Utility/dsp.h **** {
 9354              		.loc 23 161 1 is_stmt 0 view .LVU2281
 9355              	.LBE3065:
 9356              	.LBE3088:
 167:../../DaisySP//Source/Utility/dsp.h ****         {
 9357              		.loc 23 167 9 is_stmt 1 view .LVU2282
 168:../../DaisySP//Source/Utility/dsp.h ****             const float a = 1.f / log10f(max / min);
 9358              		.loc 23 168 9 view .LVU2283
 9359              	.LBB3089:
 9360              	.LBB3084:
 9361              	.LBB3066:
 169:../../DaisySP//Source/Utility/dsp.h ****             return fclamp(min * powf(10, in / a), min, max);
 9362              		.loc 23 169 13 view .LVU2284
 170:../../DaisySP//Source/Utility/dsp.h ****         }
 9363              		.loc 23 170 13 view .LVU2285
 170:../../DaisySP//Source/Utility/dsp.h ****         }
 9364              		.loc 23 170 37 is_stmt 0 view .LVU2286
 9365 011a DFED560A 		vldr.32	s1, .L145+68
 9366 011e C0EE200A 		vdiv.f32	s1, s0, s1
 9367 0122 B2EE040A 		vmov.f32	s0, #1.0e+1
 9368              	.LVL503:
 170:../../DaisySP//Source/Utility/dsp.h ****         }
 9369              		.loc 23 170 37 view .LVU2287
 9370 0126 FFF7FEFF 		bl	powf
 9371              	.LVL504:
 9372 012a B0EE40AA 		vmov.f32	s20, s0
 9373              	.LVL505:
 9374              	.LBB3067:
 9375              	.LBI3067:
  56:../../DaisySP//Source/Utility/dsp.h **** {
 9376              		.loc 23 56 14 is_stmt 1 view .LVU2288
ARM GAS  /var/folders/hl/qgbwny5j0fd895c2c41bk3tw0000gp/T//cckqgw4a.s 			page 234


 9377              	.LBE3067:
 9378              	.LBE3066:
 9379              	.LBE3084:
 9380              	.LBE3089:
  58:../../DaisySP//Source/Utility/dsp.h **** }
 9381              		.loc 23 58 5 view .LVU2289
 9382              	.LBB3090:
 9383              	.LBB3085:
 9384              	.LBB3081:
 9385              	.LBB3078:
 9386              	.LBB3068:
 9387              	.LBI3068:
  32:../../DaisySP//Source/Utility/dsp.h **** {
 9388              		.loc 23 32 14 view .LVU2290
 9389              	.LBB3069:
  34:../../DaisySP//Source/Utility/dsp.h **** #ifdef __arm__
 9390              		.loc 23 34 5 view .LVU2291
  36:../../DaisySP//Source/Utility/dsp.h **** #else
 9391              		.loc 23 36 5 view .LVU2292
 9392              	.LBE3069:
 9393              	.LBE3068:
 9394              	.LBE3078:
 170:../../DaisySP//Source/Utility/dsp.h ****         }
 9395              		.loc 23 170 26 is_stmt 0 view .LVU2293
 9396 012e DFED527A 		vldr.32	s15, .L145+72
 9397              	.LBE3081:
 9398              	.LBE3085:
 9399              	.LBE3090:
  79:OmniSeed.cpp  **** 	res.SetDamping(damp);
 9400              		.loc 17 79 19 view .LVU2294
 9401 0132 B0EE4C0A 		vmov.f32	s0, s24
 9402              	.LVL506:
 9403              	.LBB3091:
 9404              	.LBB3092:
  79:PolyPluck_p.h ****     }
  80:PolyPluck_p.h **** 
  81:PolyPluck_p.h ****     /** Sets the decay coefficients of the pluck voices. 
  82:PolyPluck_p.h ****         \param p expects 0.0-1.0 input.
  83:PolyPluck_p.h ****     */
  84:PolyPluck_p.h ****     void SetDecay(float p) { p_decay_ = p; }
 9405              		.loc 9 84 39 view .LVU2295
 9406 0136 514B     		ldr	r3, .L145+76
 9407              	.LBE3092:
 9408              	.LBE3091:
  79:OmniSeed.cpp  **** 	res.SetDamping(damp);
 9409              		.loc 17 79 19 view .LVU2296
 9410 0138 5148     		ldr	r0, .L145+80
 9411              	.LBB3094:
 9412              	.LBB3086:
 9413              	.LBB3082:
 170:../../DaisySP//Source/Utility/dsp.h ****         }
 9414              		.loc 23 170 26 view .LVU2297
 9415 013a 2AEE27AA 		vmul.f32	s20, s20, s15
 9416              	.LVL507:
 9417              	.LBB3079:
 9418              	.LBB3071:
 9419              	.LBB3072:
ARM GAS  /var/folders/hl/qgbwny5j0fd895c2c41bk3tw0000gp/T//cckqgw4a.s 			page 235


  47:../../DaisySP//Source/Utility/dsp.h **** #else
 9420              		.loc 23 47 5 view .LVU2298
 9421 013e 9FED517A 		vldr.32	s14, .L145+84
 9422              	.LBE3072:
 9423              	.LBE3071:
 9424              	.LBB3075:
 9425              	.LBB3070:
  36:../../DaisySP//Source/Utility/dsp.h **** #else
 9426              		.loc 23 36 5 view .LVU2299
 9427              		.syntax unified
 9428              	@ 36 "../../DaisySP//Source/Utility/dsp.h" 1
 9429 0142 8AFE27AA 		vmaxnm.f32 s20, s20, s15
 9430              	@ 0 "" 2
 9431              	.LVL508:
  40:../../DaisySP//Source/Utility/dsp.h **** }
 9432              		.loc 23 40 5 is_stmt 1 view .LVU2300
  40:../../DaisySP//Source/Utility/dsp.h **** }
 9433              		.loc 23 40 5 is_stmt 0 view .LVU2301
 9434              		.thumb
 9435              		.syntax unified
 9436              	.LBE3070:
 9437              	.LBE3075:
 9438              	.LBB3076:
 9439              	.LBI3071:
  43:../../DaisySP//Source/Utility/dsp.h **** {
 9440              		.loc 23 43 14 is_stmt 1 view .LVU2302
 9441              	.LBB3073:
  45:../../DaisySP//Source/Utility/dsp.h **** #ifdef __arm__
 9442              		.loc 23 45 5 view .LVU2303
  47:../../DaisySP//Source/Utility/dsp.h **** #else
 9443              		.loc 23 47 5 view .LVU2304
 9444              	.LBE3073:
 9445              	.LBE3076:
 9446              	.LBE3079:
 9447              	.LBE3082:
 9448              	.LBE3086:
 9449              	.LBE3094:
 9450              	.LBB3095:
 9451              	.LBB3093:
 9452              		.loc 9 84 39 is_stmt 0 view .LVU2305
 9453 0146 C3ED00CA 		vstr.32	s25, [r3]
 9454              	.LBE3093:
 9455              	.LBE3095:
 9456              	.LBB3096:
 9457              	.LBB3087:
 9458              	.LBB3083:
 9459              	.LBB3080:
 9460              	.LBB3077:
 9461              	.LBB3074:
  47:../../DaisySP//Source/Utility/dsp.h **** #else
 9462              		.loc 23 47 5 view .LVU2306
 9463              		.syntax unified
 9464              	@ 47 "../../DaisySP//Source/Utility/dsp.h" 1
 9465 014a 8AFE47AA 		vminnm.f32 s20, s20, s14
 9466              	@ 0 "" 2
 9467              	.LVL509:
  51:../../DaisySP//Source/Utility/dsp.h **** }
ARM GAS  /var/folders/hl/qgbwny5j0fd895c2c41bk3tw0000gp/T//cckqgw4a.s 			page 236


 9468              		.loc 23 51 5 is_stmt 1 view .LVU2307
  51:../../DaisySP//Source/Utility/dsp.h **** }
 9469              		.loc 23 51 5 is_stmt 0 view .LVU2308
 9470              		.thumb
 9471              		.syntax unified
 9472              	.LBE3074:
 9473              	.LBE3077:
 9474              	.LBE3080:
 9475              	.LBE3083:
 9476              	.LBE3087:
 9477              	.LBE3096:
  78:OmniSeed.cpp  **** 	res.SetBrightness(bright);
 9478              		.loc 17 78 2 is_stmt 1 view .LVU2309
 9479              	.LBB3097:
 9480              	.LBI3091:
 9481              		.loc 9 84 10 view .LVU2310
 9482              		.loc 9 84 10 is_stmt 0 view .LVU2311
 9483              	.LBE3097:
  79:OmniSeed.cpp  **** 	res.SetDamping(damp);
 9484              		.loc 17 79 2 is_stmt 1 view .LVU2312
  79:OmniSeed.cpp  **** 	res.SetDamping(damp);
 9485              		.loc 17 79 19 is_stmt 0 view .LVU2313
 9486 014e FFF7FEFF 		bl	_ZN7daisysp9Resonator13SetBrightnessEf
 9487              	.LVL510:
  80:OmniSeed.cpp  **** 	res.SetStructure(structr);
 9488              		.loc 17 80 2 is_stmt 1 view .LVU2314
  80:OmniSeed.cpp  **** 	res.SetStructure(structr);
 9489              		.loc 17 80 16 is_stmt 0 view .LVU2315
 9490 0152 B0EE6B0A 		vmov.f32	s0, s23
 9491 0156 4A48     		ldr	r0, .L145+80
 9492 0158 FFF7FEFF 		bl	_ZN7daisysp9Resonator10SetDampingEf
 9493              	.LVL511:
  81:OmniSeed.cpp  **** 	posc.SetAttack(attack);
 9494              		.loc 17 81 2 is_stmt 1 view .LVU2316
  81:OmniSeed.cpp  **** 	posc.SetAttack(attack);
 9495              		.loc 17 81 18 is_stmt 0 view .LVU2317
 9496 015c 4848     		ldr	r0, .L145+80
 9497 015e B0EE6A0A 		vmov.f32	s0, s21
 9498 0162 FFF7FEFF 		bl	_ZN7daisysp9Resonator12SetStructureEf
 9499              	.LVL512:
  82:OmniSeed.cpp  **** 	posc.SetDecay(decay);
 9500              		.loc 17 82 2 is_stmt 1 view .LVU2318
 9501              	.LBB3098:
 9502              	.LBI3098:
  54:PolyOsc.h     ****     {
 9503              		.loc 11 54 10 view .LVU2319
 9504              	.LBB3099:
  56:PolyOsc.h     ****         {
 9505              		.loc 11 56 26 view .LVU2320
 9506 0166 484B     		ldr	r3, .L145+88
 9507 0168 03F52872 		add	r2, r3, #672
 9508              	.LBE3099:
 9509              	.LBE3098:
  81:OmniSeed.cpp  **** 	posc.SetAttack(attack);
 9510              		.loc 17 81 18 is_stmt 0 view .LVU2321
 9511 016c 1846     		mov	r0, r3
 9512              	.LVL513:
ARM GAS  /var/folders/hl/qgbwny5j0fd895c2c41bk3tw0000gp/T//cckqgw4a.s 			page 237


 9513              	.L126:
 9514              	.LBB3103:
 9515              	.LBB3102:
  58:PolyOsc.h     ****         }
 9516              		.loc 11 58 13 is_stmt 1 view .LVU2322
 9517              	.LBB3100:
 9518              	.LBI3100:
 9519              		.loc 22 58 17 view .LVU2323
 9520              	.LBB3101:
 9521              		.loc 22 58 52 view .LVU2324
 9522              		.loc 22 58 71 is_stmt 0 view .LVU2325
 9523 016e C0ED928A 		vstr.32	s17, [r0, #584]
 9524              	.LVL514:
 9525              		.loc 22 58 71 view .LVU2326
 9526              	.LBE3101:
 9527              	.LBE3100:
  56:PolyOsc.h     ****         {
 9528              		.loc 11 56 9 is_stmt 1 view .LVU2327
  56:PolyOsc.h     ****         {
 9529              		.loc 11 56 26 view .LVU2328
 9530 0172 3830     		adds	r0, r0, #56
 9531 0174 9042     		cmp	r0, r2
 9532 0176 FAD1     		bne	.L126
 9533              	.LVL515:
 9534              	.L127:
  56:PolyOsc.h     ****         {
 9535              		.loc 11 56 26 is_stmt 0 view .LVU2329
 9536              	.LBE3102:
 9537              	.LBE3103:
 9538              	.LBB3104:
 9539              	.LBB3105:
  66:PolyOsc.h     ****         }
 9540              		.loc 11 66 13 is_stmt 1 view .LVU2330
 9541              	.LBB3106:
 9542              	.LBI3106:
 9543              		.loc 22 58 17 view .LVU2331
 9544              	.LBB3107:
 9545              		.loc 22 58 52 view .LVU2332
 9546              		.loc 22 58 71 is_stmt 0 view .LVU2333
 9547 0178 83ED938A 		vstr.32	s16, [r3, #588]
 9548              	.LVL516:
 9549              		.loc 22 58 71 view .LVU2334
 9550              	.LBE3107:
 9551              	.LBE3106:
  64:PolyOsc.h     ****         {
 9552              		.loc 11 64 9 is_stmt 1 view .LVU2335
  64:PolyOsc.h     ****         {
 9553              		.loc 11 64 26 view .LVU2336
 9554 017c 3833     		adds	r3, r3, #56
 9555 017e 9342     		cmp	r3, r2
 9556 0180 FAD1     		bne	.L127
  64:PolyOsc.h     ****         {
 9557              		.loc 11 64 26 is_stmt 0 view .LVU2337
 9558              	.LBE3105:
 9559              	.LBE3104:
  84:OmniSeed.cpp  **** 	posc.SetFeedback(feedback);
 9560              		.loc 17 84 2 is_stmt 1 view .LVU2338
ARM GAS  /var/folders/hl/qgbwny5j0fd895c2c41bk3tw0000gp/T//cckqgw4a.s 			page 238


 9561              	.LVL517:
 9562              	.LBB3108:
 9563              	.LBI3108:
  70:PolyOsc.h     ****     {
 9564              		.loc 11 70 10 view .LVU2339
 9565              	.LBE3108:
  72:PolyOsc.h     ****     }
 9566              		.loc 11 72 9 view .LVU2340
 9567              	.LBB3111:
 9568              	.LBB3109:
 9569              	.LBI3109:
 9570              		.loc 12 58 17 view .LVU2341
 9571              	.LBB3110:
 9572              		.loc 12 58 48 view .LVU2342
 9573              		.loc 12 58 56 is_stmt 0 view .LVU2343
 9574 0182 424B     		ldr	r3, .L145+92
 9575 0184 83ED00AA 		vstr.32	s20, [r3]
 9576              	.LVL518:
 9577              		.loc 12 58 56 view .LVU2344
 9578              	.LBE3110:
 9579              	.LBE3109:
 9580              	.LBE3111:
  85:OmniSeed.cpp  **** 
 9581              		.loc 17 85 2 is_stmt 1 view .LVU2345
 9582              	.LBB3112:
 9583              	.LBI3112:
  75:PolyOsc.h     ****     {
 9584              		.loc 11 75 10 view .LVU2346
 9585              	.LBE3112:
  77:PolyOsc.h     ****     }
 9586              		.loc 11 77 9 view .LVU2347
 9587              	.LBB3115:
 9588              	.LBB3113:
 9589              	.LBI3113:
  54:../../DaisySP//Source/Effects/reverbsc.h ****     /** controls the internal dampening filter's cutoff frequency.
 9590              		.loc 12 54 17 view .LVU2348
 9591              	.LBB3114:
  54:../../DaisySP//Source/Effects/reverbsc.h ****     /** controls the internal dampening filter's cutoff frequency.
 9592              		.loc 12 54 48 view .LVU2349
  54:../../DaisySP//Source/Effects/reverbsc.h ****     /** controls the internal dampening filter's cutoff frequency.
 9593              		.loc 12 54 58 is_stmt 0 view .LVU2350
 9594 0188 03ED01BA 		vstr.32	s22, [r3, #-4]
 9595              	.LVL519:
  54:../../DaisySP//Source/Effects/reverbsc.h ****     /** controls the internal dampening filter's cutoff frequency.
 9596              		.loc 12 54 58 view .LVU2351
 9597              	.LBE3114:
 9598              	.LBE3113:
 9599              	.LBE3115:
  87:OmniSeed.cpp  **** 	{
 9600              		.loc 17 87 2 is_stmt 1 view .LVU2352
 9601              	.LBB3116:
  87:OmniSeed.cpp  **** 	{
 9602              		.loc 17 87 23 view .LVU2353
 9603 018c 9DB1     		cbz	r5, .L128
  87:OmniSeed.cpp  **** 	{
 9604              		.loc 17 87 14 is_stmt 0 view .LVU2354
 9605 018e 0024     		movs	r4, #0
ARM GAS  /var/folders/hl/qgbwny5j0fd895c2c41bk3tw0000gp/T//cckqgw4a.s 			page 239


 9606              	.LVL520:
 9607              	.L129:
 9608              	.LBB3117:
  89:OmniSeed.cpp  **** 
 9609              		.loc 17 89 3 is_stmt 1 discriminator 2 view .LVU2355
  91:OmniSeed.cpp  **** 		
 9610              		.loc 17 91 3 discriminator 2 view .LVU2356
  91:OmniSeed.cpp  **** 		
 9611              		.loc 17 91 23 is_stmt 0 discriminator 2 view .LVU2357
 9612 0190 F0EE690A 		vmov.f32	s1, s19
 9613 0194 B0EE490A 		vmov.f32	s0, s18
 9614 0198 FFF7FEFF 		bl	_Z11voiceSelectff
 9615              	.LVL521:
  94:OmniSeed.cpp  **** 	}
 9616              		.loc 17 94 13 discriminator 2 view .LVU2358
 9617 019c D7E90003 		ldrd	r0, r3, [r7]
 9618              	.LVL522:
  93:OmniSeed.cpp  **** 		out[1][i] = output;
 9619              		.loc 17 93 3 is_stmt 1 discriminator 2 view .LVU2359
  93:OmniSeed.cpp  **** 		out[1][i] = output;
 9620              		.loc 17 93 13 is_stmt 0 discriminator 2 view .LVU2360
 9621 01a0 00EB8400 		add	r0, r0, r4, lsl #2
  94:OmniSeed.cpp  **** 	}
 9622              		.loc 17 94 13 discriminator 2 view .LVU2361
 9623 01a4 03EB8403 		add	r3, r3, r4, lsl #2
 9624              	.LBE3117:
  87:OmniSeed.cpp  **** 	{
 9625              		.loc 17 87 2 discriminator 2 view .LVU2362
 9626 01a8 0134     		adds	r4, r4, #1
 9627              	.LVL523:
 9628              	.LBB3118:
  93:OmniSeed.cpp  **** 		out[1][i] = output;
 9629              		.loc 17 93 13 discriminator 2 view .LVU2363
 9630 01aa 80ED000A 		vstr.32	s0, [r0]
  94:OmniSeed.cpp  **** 	}
 9631              		.loc 17 94 3 is_stmt 1 discriminator 2 view .LVU2364
 9632              	.LBE3118:
  87:OmniSeed.cpp  **** 	{
 9633              		.loc 17 87 23 is_stmt 0 discriminator 2 view .LVU2365
 9634 01ae A542     		cmp	r5, r4
 9635              	.LBB3119:
  94:OmniSeed.cpp  **** 	}
 9636              		.loc 17 94 13 discriminator 2 view .LVU2366
 9637 01b0 83ED000A 		vstr.32	s0, [r3]
 9638              	.LBE3119:
  87:OmniSeed.cpp  **** 	{
 9639              		.loc 17 87 2 is_stmt 1 discriminator 2 view .LVU2367
 9640              	.LVL524:
  87:OmniSeed.cpp  **** 	{
 9641              		.loc 17 87 23 discriminator 2 view .LVU2368
 9642 01b4 ECD1     		bne	.L129
 9643              	.LVL525:
 9644              	.L128:
  87:OmniSeed.cpp  **** 	{
 9645              		.loc 17 87 23 is_stmt 0 discriminator 2 view .LVU2369
 9646              	.LBE3116:
  97:OmniSeed.cpp  **** }
ARM GAS  /var/folders/hl/qgbwny5j0fd895c2c41bk3tw0000gp/T//cckqgw4a.s 			page 240


 9647              		.loc 17 97 2 is_stmt 1 view .LVU2370
 9648              	.LBB3120:
 9649              	.LBI3120:
  52:../../libDaisy//src/util/CpuLoadMeter.h ****     {
 9650              		.loc 18 52 10 view .LVU2371
 9651              	.LBB3121:
  54:../../libDaisy//src/util/CpuLoadMeter.h ****         const auto ticksPassed = end - currentBlockStartTicks_;
 9652              		.loc 18 54 9 view .LVU2372
  54:../../libDaisy//src/util/CpuLoadMeter.h ****         const auto ticksPassed = end - currentBlockStartTicks_;
 9653              		.loc 18 54 49 is_stmt 0 view .LVU2373
 9654 01b6 FFF7FEFF 		bl	_ZN5daisy6System7GetTickEv
 9655              	.LVL526:
  55:../../libDaisy//src/util/CpuLoadMeter.h ****         const auto currentBlockLoad
 9656              		.loc 18 55 9 is_stmt 1 view .LVU2374
  56:../../libDaisy//src/util/CpuLoadMeter.h ****             = float(ticksPassed) * ticksPerBlockInv_; // usPassed / usPerBlock
 9657              		.loc 18 56 9 view .LVU2375
  55:../../libDaisy//src/util/CpuLoadMeter.h ****         const auto currentBlockLoad
 9658              		.loc 18 55 20 is_stmt 0 view .LVU2376
 9659 01ba B268     		ldr	r2, [r6, #8]
  56:../../libDaisy//src/util/CpuLoadMeter.h ****             = float(ticksPassed) * ticksPerBlockInv_; // usPassed / usPerBlock
 9660              		.loc 18 56 20 view .LVU2377
 9661 01bc 96ED017A 		vldr.32	s14, [r6, #4]
  55:../../libDaisy//src/util/CpuLoadMeter.h ****         const auto currentBlockLoad
 9662              		.loc 18 55 20 view .LVU2378
 9663 01c0 821A     		subs	r2, r0, r2
 9664              	.LVL527:
  59:../../libDaisy//src/util/CpuLoadMeter.h ****         {
 9665              		.loc 18 59 9 view .LVU2379
 9666 01c2 3378     		ldrb	r3, [r6]	@ zero_extendqisi2
  55:../../libDaisy//src/util/CpuLoadMeter.h ****         const auto currentBlockLoad
 9667              		.loc 18 55 20 view .LVU2380
 9668 01c4 07EE902A 		vmov	s15, r2	@ int
  57:../../libDaisy//src/util/CpuLoadMeter.h **** 
 9669              		.loc 18 57 15 view .LVU2381
 9670 01c8 F8EE677A 		vcvt.f32.u32	s15, s15
  56:../../libDaisy//src/util/CpuLoadMeter.h ****             = float(ticksPassed) * ticksPerBlockInv_; // usPassed / usPerBlock
 9671              		.loc 18 56 20 view .LVU2382
 9672 01cc 67EE877A 		vmul.f32	s15, s15, s14
 9673              	.LVL528:
  59:../../libDaisy//src/util/CpuLoadMeter.h ****         {
 9674              		.loc 18 59 9 is_stmt 1 view .LVU2383
 9675 01d0 53B1     		cbz	r3, .L130
  61:../../libDaisy//src/util/CpuLoadMeter.h ****             firstCycle_        = false;
 9676              		.loc 18 61 13 view .LVU2384
  62:../../libDaisy//src/util/CpuLoadMeter.h ****         }
 9677              		.loc 18 62 32 is_stmt 0 view .LVU2385
 9678 01d2 0023     		movs	r3, #0
  61:../../libDaisy//src/util/CpuLoadMeter.h ****             firstCycle_        = false;
 9679              		.loc 18 61 32 view .LVU2386
 9680 01d4 C6ED057A 		vstr.32	s15, [r6, #20]
  61:../../libDaisy//src/util/CpuLoadMeter.h ****             firstCycle_        = false;
 9681              		.loc 18 61 25 view .LVU2387
 9682 01d8 C6ED037A 		vstr.32	s15, [r6, #12]
  61:../../libDaisy//src/util/CpuLoadMeter.h ****             firstCycle_        = false;
 9683              		.loc 18 61 18 view .LVU2388
 9684 01dc C6ED047A 		vstr.32	s15, [r6, #16]
  62:../../libDaisy//src/util/CpuLoadMeter.h ****         }
ARM GAS  /var/folders/hl/qgbwny5j0fd895c2c41bk3tw0000gp/T//cckqgw4a.s 			page 241


 9685              		.loc 18 62 13 is_stmt 1 view .LVU2389
  62:../../libDaisy//src/util/CpuLoadMeter.h ****         }
 9686              		.loc 18 62 32 is_stmt 0 view .LVU2390
 9687 01e0 3370     		strb	r3, [r6]
 9688              	.LBE3121:
 9689              	.LBE3120:
  98:OmniSeed.cpp  **** 
 9690              		.loc 17 98 1 view .LVU2391
 9691 01e2 BDEC0A8B 		vldm	sp!, {d8-d12}
 9692              		.cfi_remember_state
 9693              		.cfi_restore 88
 9694              		.cfi_restore 89
 9695              		.cfi_restore 86
 9696              		.cfi_restore 87
 9697              		.cfi_restore 84
 9698              		.cfi_restore 85
 9699              		.cfi_restore 82
 9700              		.cfi_restore 83
 9701              		.cfi_restore 80
 9702              		.cfi_restore 81
 9703              		.cfi_def_cfa_offset 24
 9704              	.LVL529:
  98:OmniSeed.cpp  **** 
 9705              		.loc 17 98 1 view .LVU2392
 9706 01e6 F8BD     		pop	{r3, r4, r5, r6, r7, pc}
 9707              	.LVL530:
 9708              	.L130:
 9709              		.cfi_restore_state
 9710              	.LBB3124:
 9711              	.LBB3122:
  66:../../libDaisy//src/util/CpuLoadMeter.h ****                 max_ = currentBlockLoad;
 9712              		.loc 18 66 13 is_stmt 1 view .LVU2393
 9713 01e8 96ED047A 		vldr.32	s14, [r6, #16]
  71:../../libDaisy//src/util/CpuLoadMeter.h ****                    + (1.0f - smoothingConstant_) * avg_;
 9714              		.loc 18 71 20 is_stmt 0 view .LVU2394
 9715 01ec D6ED066A 		vldr.32	s13, [r6, #24]
  66:../../libDaisy//src/util/CpuLoadMeter.h ****                 max_ = currentBlockLoad;
 9716              		.loc 18 66 13 view .LVU2395
 9717 01f0 F4EEC77A 		vcmpe.f32	s15, s14
  68:../../libDaisy//src/util/CpuLoadMeter.h ****                 min_ = currentBlockLoad;
 9718              		.loc 18 68 13 view .LVU2396
 9719 01f4 96ED037A 		vldr.32	s14, [r6, #12]
  72:../../libDaisy//src/util/CpuLoadMeter.h ****         }
 9720              		.loc 18 72 50 view .LVU2397
 9721 01f8 96ED056A 		vldr.32	s12, [r6, #20]
  66:../../libDaisy//src/util/CpuLoadMeter.h ****                 max_ = currentBlockLoad;
 9722              		.loc 18 66 13 view .LVU2398
 9723 01fc F1EE10FA 		vmrs	APSR_nzcv, FPSCR
  67:../../libDaisy//src/util/CpuLoadMeter.h ****             if(currentBlockLoad < min_)
 9724              		.loc 18 67 17 is_stmt 1 view .LVU2399
  68:../../libDaisy//src/util/CpuLoadMeter.h ****                 min_ = currentBlockLoad;
 9725              		.loc 18 68 13 is_stmt 0 view .LVU2400
 9726 0200 F4EEC77A 		vcmpe.f32	s15, s14
  72:../../libDaisy//src/util/CpuLoadMeter.h ****         }
 9727              		.loc 18 72 28 view .LVU2401
 9728 0204 B7EE007A 		vmov.f32	s14, #1.0e+0
  67:../../libDaisy//src/util/CpuLoadMeter.h ****             if(currentBlockLoad < min_)
ARM GAS  /var/folders/hl/qgbwny5j0fd895c2c41bk3tw0000gp/T//cckqgw4a.s 			page 242


 9729              		.loc 18 67 22 view .LVU2402
 9730 0208 C8BF     		it	gt
 9731 020a C6ED047A 		vstrgt.32	s15, [r6, #16]
  68:../../libDaisy//src/util/CpuLoadMeter.h ****                 min_ = currentBlockLoad;
 9732              		.loc 18 68 13 is_stmt 1 view .LVU2403
 9733 020e F1EE10FA 		vmrs	APSR_nzcv, FPSCR
  69:../../libDaisy//src/util/CpuLoadMeter.h **** 
 9734              		.loc 18 69 17 view .LVU2404
  72:../../libDaisy//src/util/CpuLoadMeter.h ****         }
 9735              		.loc 18 72 28 is_stmt 0 view .LVU2405
 9736 0212 37EE667A 		vsub.f32	s14, s14, s13
 9737              	.LBE3122:
 9738              	.LBE3124:
  98:OmniSeed.cpp  **** 
 9739              		.loc 17 98 1 view .LVU2406
 9740 0216 BDEC0A8B 		vldm	sp!, {d8-d12}
 9741              		.cfi_restore 88
 9742              		.cfi_restore 89
 9743              		.cfi_restore 86
 9744              		.cfi_restore 87
 9745              		.cfi_restore 84
 9746              		.cfi_restore 85
 9747              		.cfi_restore 82
 9748              		.cfi_restore 83
 9749              		.cfi_restore 80
 9750              		.cfi_restore 81
 9751              		.cfi_def_cfa_offset 24
 9752              	.LVL531:
 9753              	.LBB3125:
 9754              	.LBB3123:
  72:../../libDaisy//src/util/CpuLoadMeter.h ****         }
 9755              		.loc 18 72 50 view .LVU2407
 9756 021a 27EE067A 		vmul.f32	s14, s14, s12
  69:../../libDaisy//src/util/CpuLoadMeter.h **** 
 9757              		.loc 18 69 22 view .LVU2408
 9758 021e 48BF     		it	mi
 9759 0220 C6ED037A 		vstrmi.32	s15, [r6, #12]
  71:../../libDaisy//src/util/CpuLoadMeter.h ****                    + (1.0f - smoothingConstant_) * avg_;
 9760              		.loc 18 71 13 is_stmt 1 view .LVU2409
  72:../../libDaisy//src/util/CpuLoadMeter.h ****         }
 9761              		.loc 18 72 20 is_stmt 0 view .LVU2410
 9762 0224 A7EEA67A 		vfma.f32	s14, s15, s13
  71:../../libDaisy//src/util/CpuLoadMeter.h ****                    + (1.0f - smoothingConstant_) * avg_;
 9763              		.loc 18 71 18 view .LVU2411
 9764 0228 86ED057A 		vstr.32	s14, [r6, #20]
 9765              	.LVL532:
  71:../../libDaisy//src/util/CpuLoadMeter.h ****                    + (1.0f - smoothingConstant_) * avg_;
 9766              		.loc 18 71 18 view .LVU2412
 9767              	.LBE3123:
 9768              	.LBE3125:
  98:OmniSeed.cpp  **** 
 9769              		.loc 17 98 1 view .LVU2413
 9770 022c F8BD     		pop	{r3, r4, r5, r6, r7, pc}
 9771              	.LVL533:
 9772              	.L146:
  98:OmniSeed.cpp  **** 
 9773              		.loc 17 98 1 view .LVU2414
ARM GAS  /var/folders/hl/qgbwny5j0fd895c2c41bk3tw0000gp/T//cckqgw4a.s 			page 243


 9774 022e 00BF     		.align	2
 9775              	.L145:
 9776 0230 00000000 		.word	.LANCHOR12
 9777 0234 00000000 		.word	.LANCHOR18
 9778 0238 00000000 		.word	.LANCHOR19
 9779 023c 00000000 		.word	.LANCHOR14
 9780 0240 00000000 		.word	.LANCHOR6
 9781 0244 00000000 		.word	.LANCHOR13
 9782 0248 CDCCCC3D 		.word	1036831949
 9783 024c 00000000 		.word	.LANCHOR8
 9784 0250 6666663F 		.word	1063675494
 9785 0254 00000000 		.word	0
 9786 0258 00000000 		.word	.LANCHOR9
 9787 025c 18000000 		.word	.LANCHOR3+24
 9788 0260 0AD7233C 		.word	1008981770
 9789 0264 52B8FE3F 		.word	1073657938
 9790 0268 9A99993E 		.word	1050253722
 9791 026c D7A3303F 		.word	1060152279
 9792 0270 A4707D3F 		.word	1065185444
 9793 0274 E731483F 		.word	1061695975
 9794 0278 00007A44 		.word	1148846080
 9795 027c F0640000 		.word	pluck+25840
 9796 0280 00000000 		.word	.LANCHOR11
 9797 0284 00709446 		.word	1184133120
 9798 0288 00000000 		.word	posc
 9799 028c E4040000 		.word	posc+1252
 9800              		.cfi_endproc
 9801              	.LFE4814:
 9803              		.section	.text._Z13buttonHandlerv,"ax",%progbits
 9804              		.align	1
 9805              		.p2align 2,,3
 9806              		.global	_Z13buttonHandlerv
 9807              		.syntax unified
 9808              		.thumb
 9809              		.thumb_func
 9810              		.fpu fpv5-d16
 9812              	_Z13buttonHandlerv:
 9813              	.LFB4825:
 221:OmniSeed.cpp  **** 	float octave;
 9814              		.loc 17 221 22 is_stmt 1 view -0
 9815              		.cfi_startproc
 9816              		@ args = 0, pretend = 0, frame = 0
 9817              		@ frame_needed = 0, uses_anonymous_args = 0
 9818              		@ link register save eliminated.
 222:OmniSeed.cpp  **** 	if(oct1.Pressed()){
 9819              		.loc 17 222 2 view .LVU2416
 223:OmniSeed.cpp  **** 		octave = 12;
 9820              		.loc 17 223 2 view .LVU2417
 9821              	.LVL534:
 9822              	.LBB3134:
 9823              	.LBI3134:
 9824              		.loc 1 79 17 view .LVU2418
 9825              	.LBB3135:
 9826              		.loc 1 79 35 view .LVU2419
 9827              		.loc 1 79 42 is_stmt 0 view .LVU2420
 9828 0000 084B     		ldr	r3, .L151
 9829              	.LBE3135:
ARM GAS  /var/folders/hl/qgbwny5j0fd895c2c41bk3tw0000gp/T//cckqgw4a.s 			page 244


 9830              	.LBE3134:
 223:OmniSeed.cpp  **** 		octave = 12;
 9831              		.loc 17 223 2 view .LVU2421
 9832 0002 9B7A     		ldrb	r3, [r3, #10]	@ zero_extendqisi2
 9833 0004 FF2B     		cmp	r3, #255
 9834 0006 09D0     		beq	.L149
 9835              	.LBB3136:
 9836              	.LBI3136:
 221:OmniSeed.cpp  **** 	float octave;
 9837              		.loc 17 221 7 is_stmt 1 view .LVU2422
 9838              	.LBB3137:
 225:OmniSeed.cpp  **** 		octave = -12;
 9839              		.loc 17 225 9 view .LVU2423
 9840              	.LVL535:
 9841              	.LBB3138:
 9842              	.LBI3138:
 9843              		.loc 1 79 17 view .LVU2424
 9844              	.LBB3139:
 9845              		.loc 1 79 35 view .LVU2425
 9846              		.loc 1 79 42 is_stmt 0 view .LVU2426
 9847 0008 074B     		ldr	r3, .L151+4
 9848              	.LBE3139:
 9849              	.LBE3138:
 227:OmniSeed.cpp  **** 
 9850              		.loc 17 227 18 view .LVU2427
 9851 000a BAEE080A 		vmov.f32	s0, #-1.2e+1
 9852 000e DFED077A 		vldr.32	s15, .L151+8
 225:OmniSeed.cpp  **** 		octave = -12;
 9853              		.loc 17 225 9 view .LVU2428
 9854 0012 9B7A     		ldrb	r3, [r3, #10]	@ zero_extendqisi2
 227:OmniSeed.cpp  **** 
 9855              		.loc 17 227 18 view .LVU2429
 9856 0014 FF2B     		cmp	r3, #255
 9857 0016 00FE270A 		vseleq.f32	s0, s0, s15
 9858 001a 7047     		bx	lr
 9859              	.L149:
 9860              	.LBE3137:
 9861              	.LBE3136:
 224:OmniSeed.cpp  **** 	} else if(oct2.Pressed()){
 9862              		.loc 17 224 10 view .LVU2430
 9863 001c B2EE080A 		vmov.f32	s0, #1.2e+1
 230:OmniSeed.cpp  **** 
 9864              		.loc 17 230 1 view .LVU2431
 9865 0020 7047     		bx	lr
 9866              	.L152:
 9867 0022 00BF     		.align	2
 9868              	.L151:
 9869 0024 00000000 		.word	.LANCHOR8
 9870 0028 00000000 		.word	.LANCHOR9
 9871 002c 00000000 		.word	0
 9872              		.cfi_endproc
 9873              	.LFE4825:
 9875              		.section	.text._Z11systemResetv,"ax",%progbits
 9876              		.align	1
 9877              		.p2align 2,,3
 9878              		.global	_Z11systemResetv
 9879              		.syntax unified
ARM GAS  /var/folders/hl/qgbwny5j0fd895c2c41bk3tw0000gp/T//cckqgw4a.s 			page 245


 9880              		.thumb
 9881              		.thumb_func
 9882              		.fpu fpv5-d16
 9884              	_Z11systemResetv:
 9885              	.LFB4826:
 232:OmniSeed.cpp  **** 	reset.Debounce();
 9886              		.loc 17 232 19 is_stmt 1 view -0
 9887              		.cfi_startproc
 9888              		@ args = 0, pretend = 0, frame = 0
 9889              		@ frame_needed = 0, uses_anonymous_args = 0
 233:OmniSeed.cpp  **** 	if(reset.Pressed()){
 9890              		.loc 17 233 2 view .LVU2433
 232:OmniSeed.cpp  **** 	reset.Debounce();
 9891              		.loc 17 232 19 is_stmt 0 view .LVU2434
 9892 0000 10B5     		push	{r4, lr}
 9893              		.cfi_def_cfa_offset 8
 9894              		.cfi_offset 4, -8
 9895              		.cfi_offset 14, -4
 233:OmniSeed.cpp  **** 	if(reset.Pressed()){
 9896              		.loc 17 233 16 view .LVU2435
 9897 0002 064C     		ldr	r4, .L157
 9898 0004 2046     		mov	r0, r4
 9899 0006 FFF7FEFF 		bl	_ZN5daisy6Switch8DebounceEv
 9900              	.LVL536:
 234:OmniSeed.cpp  **** 		System::ResetToBootloader();
 9901              		.loc 17 234 2 is_stmt 1 view .LVU2436
 9902              	.LBB3140:
 9903              	.LBI3140:
 9904              		.loc 1 79 17 view .LVU2437
 9905              	.LBB3141:
 9906              		.loc 1 79 35 view .LVU2438
 9907              		.loc 1 79 35 is_stmt 0 view .LVU2439
 9908              	.LBE3141:
 9909              	.LBE3140:
 234:OmniSeed.cpp  **** 		System::ResetToBootloader();
 9910              		.loc 17 234 2 view .LVU2440
 9911 000a A37A     		ldrb	r3, [r4, #10]	@ zero_extendqisi2
 9912 000c FF2B     		cmp	r3, #255
 9913 000e 00D0     		beq	.L156
 236:OmniSeed.cpp  **** 	}
 237:OmniSeed.cpp  **** }...
 9914              		.loc 17 237 1 view .LVU2441
 9915 0010 10BD     		pop	{r4, pc}
 9916              	.L156:
 235:OmniSeed.cpp  **** 		System::ResetToBootloader();
 9917              		.loc 17 235 3 is_stmt 1 view .LVU2442
 9918              		.loc 17 237 1 is_stmt 0 view .LVU2443
 9919 0012 BDE81040 		pop	{r4, lr}
 9920              		.cfi_restore 14
 9921              		.cfi_restore 4
 9922              		.cfi_def_cfa_offset 0
 235:OmniSeed.cpp  **** 		System::ResetToBootloader();
 9923              		.loc 17 235 28 view .LVU2444
 9924 0016 FFF7FEBF 		b	_ZN5daisy6System17ResetToBootloaderEv
 9925              	.LVL537:
 9926              	.L158:
 9927 001a 00BF     		.align	2
ARM GAS  /var/folders/hl/qgbwny5j0fd895c2c41bk3tw0000gp/T//cckqgw4a.s 			page 246


 9928              	.L157:
 9929 001c 00000000 		.word	.LANCHOR10
 9930              		.cfi_endproc
 9931              	.LFE4826:
 9933              		.section	.text.startup._GLOBAL__sub_I_touch1,"ax",%progbits
 9934              		.align	1
 9935              		.p2align 2,,3
 9936              		.syntax unified
 9937              		.thumb
 9938              		.thumb_func
 9939              		.fpu fpv5-d16
 9941              	_GLOBAL__sub_I_touch1:
 9942              	.LFB5413:
 9943              		.loc 17 237 1 is_stmt 1 view -0
 9944              		.cfi_startproc
 9945              		@ args = 0, pretend = 0, frame = 0
 9946              		@ frame_needed = 0, uses_anonymous_args = 0
 9947              	.LBB3212:
 9948              	.LBI3212:
 9949              		.loc 17 237 1 view .LVU2446
 9950              	.LVL538:
 9951              	.LBB3213:
 9952              	.LBB3214:
 9953              	.LBI3214:
  90:../../libDaisy//src/dev/mpr121.h ****     ~Mpr121() {}
 9954              		.loc 13 90 5 view .LVU2447
 9955              	.LBB3215:
 9956              	.LBB3216:
 9957              	.LBI3216:
  99:../../libDaisy//src/dev/mpr121.h ****         {
 9958              		.loc 13 99 9 view .LVU2448
 9959              	.LBB3217:
 9960              	.LBB3218:
 9961              	.LBI3218:
  34:../../libDaisy//src/dev/mpr121.h ****         {
 9962              		.loc 13 34 9 view .LVU2449
 9963              	.LBB3219:
 9964              	.LBB3220:
 9965              	.LBB3221:
 9966              	.LBI3221:
 272:../../libDaisy//src/daisy_core.h **** 
 9967              		.loc 15 272 15 view .LVU2450
 272:../../libDaisy//src/daisy_core.h **** 
 9968              		.loc 15 272 15 is_stmt 0 view .LVU2451
 9969              	.LBE3221:
 9970              	.LBB3222:
 9971              	.LBI3222:
 272:../../libDaisy//src/daisy_core.h **** 
 9972              		.loc 15 272 15 is_stmt 1 view .LVU2452
 272:../../libDaisy//src/daisy_core.h **** 
 9973              		.loc 15 272 15 is_stmt 0 view .LVU2453
 9974              	.LBE3222:
  36:../../libDaisy//src/dev/mpr121.h ****             speed  = I2CHandle::Config::Speed::I2C_400KHZ;
 9975              		.loc 13 36 13 is_stmt 1 view .LVU2454
  37:../../libDaisy//src/dev/mpr121.h **** 
 9976              		.loc 13 37 13 view .LVU2455
  39:../../libDaisy//src/dev/mpr121.h ****             sda = Pin(PORTB, 9);
ARM GAS  /var/folders/hl/qgbwny5j0fd895c2c41bk3tw0000gp/T//cckqgw4a.s 			page 247


 9977              		.loc 13 39 13 view .LVU2456
 9978              	.LBB3223:
 9979              	.LBI3223:
 269:../../libDaisy//src/daisy_core.h **** 
 9980              		.loc 15 269 15 view .LVU2457
 269:../../libDaisy//src/daisy_core.h **** 
 9981              		.loc 15 269 15 is_stmt 0 view .LVU2458
 9982              	.LBE3223:
  40:../../libDaisy//src/dev/mpr121.h **** 
 9983              		.loc 13 40 13 is_stmt 1 view .LVU2459
 9984              	.LBB3224:
 9985              	.LBI3224:
 269:../../libDaisy//src/daisy_core.h **** 
 9986              		.loc 15 269 15 view .LVU2460
 269:../../libDaisy//src/daisy_core.h **** 
 9987              		.loc 15 269 15 is_stmt 0 view .LVU2461
 9988              	.LBE3224:
  42:../../libDaisy//src/dev/mpr121.h ****         }
 9989              		.loc 13 42 13 is_stmt 1 view .LVU2462
  42:../../libDaisy//src/dev/mpr121.h ****         }
 9990              		.loc 13 42 13 is_stmt 0 view .LVU2463
 9991              	.LBE3220:
 9992              	.LBE3219:
 9993              	.LBE3218:
 9994              	.LBE3217:
 9995              	.LBE3216:
 9996              	.LBB3237:
 9997              	.LBI3237:
  20:../../libDaisy//src/dev/mpr121.h ****     ~Mpr121I2CTransport() {}
 9998              		.loc 13 20 5 is_stmt 1 view .LVU2464
 9999              	.LBB3238:
 10000              	.LBB3239:
 10001              	.LBI3239:
  29:../../libDaisy//src/per/i2c.h ****     {
  30:../../libDaisy//src/per/i2c.h ****         /** Specifies whether the interface will operate in master or slave mode. */
  31:../../libDaisy//src/per/i2c.h ****         enum class Mode
  32:../../libDaisy//src/per/i2c.h ****         {
  33:../../libDaisy//src/per/i2c.h ****             I2C_MASTER,
  34:../../libDaisy//src/per/i2c.h ****             I2C_SLAVE,
  35:../../libDaisy//src/per/i2c.h ****         };
  36:../../libDaisy//src/per/i2c.h **** 
  37:../../libDaisy//src/per/i2c.h ****         /** Specifices the internal peripheral to use (these are mapped to different pins on the ha
  38:../../libDaisy//src/per/i2c.h ****         enum class Peripheral
  39:../../libDaisy//src/per/i2c.h ****         {
  40:../../libDaisy//src/per/i2c.h ****             I2C_1 = 0, /**< & */
  41:../../libDaisy//src/per/i2c.h ****             I2C_2,     /**< & */
  42:../../libDaisy//src/per/i2c.h ****             I2C_3,     /**< & */
  43:../../libDaisy//src/per/i2c.h ****             I2C_4,     /**< & */
  44:../../libDaisy//src/per/i2c.h ****         };
  45:../../libDaisy//src/per/i2c.h **** 
  46:../../libDaisy//src/per/i2c.h ****         /** Rate at which the clock/data will be sent/received. The device being used will have max
  47:../../libDaisy//src/per/i2c.h ****          *  1MHZ Mode is currently 886kHz
  48:../../libDaisy//src/per/i2c.h ****          */
  49:../../libDaisy//src/per/i2c.h ****         enum class Speed
  50:../../libDaisy//src/per/i2c.h ****         {
  51:../../libDaisy//src/per/i2c.h ****             I2C_100KHZ, /**< & */
  52:../../libDaisy//src/per/i2c.h ****             I2C_400KHZ, /**< & */
ARM GAS  /var/folders/hl/qgbwny5j0fd895c2c41bk3tw0000gp/T//cckqgw4a.s 			page 248


  53:../../libDaisy//src/per/i2c.h ****             I2C_1MHZ,   /**< & */
  54:../../libDaisy//src/per/i2c.h ****         };
  55:../../libDaisy//src/per/i2c.h **** 
  56:../../libDaisy//src/per/i2c.h ****         Peripheral periph; /**< & */
  57:../../libDaisy//src/per/i2c.h ****         struct
  58:../../libDaisy//src/per/i2c.h ****         {
  59:../../libDaisy//src/per/i2c.h ****             dsy_gpio_pin scl; /**< & */
  60:../../libDaisy//src/per/i2c.h ****             dsy_gpio_pin sda; /**< & */
  61:../../libDaisy//src/per/i2c.h ****         } pin_config;         /**< & */
  62:../../libDaisy//src/per/i2c.h **** 
  63:../../libDaisy//src/per/i2c.h ****         Speed speed; /**< & */
  64:../../libDaisy//src/per/i2c.h ****         Mode  mode;  /**< & */
  65:../../libDaisy//src/per/i2c.h ****         // 0x10 is chosen as a default to avoid conflicts with reserved addresses
  66:../../libDaisy//src/per/i2c.h ****         uint8_t address = 0x10; /**< & */
  67:../../libDaisy//src/per/i2c.h ****     };
  68:../../libDaisy//src/per/i2c.h **** 
  69:../../libDaisy//src/per/i2c.h ****     /** Return values for I2C functions. */
  70:../../libDaisy//src/per/i2c.h ****     enum class Result
  71:../../libDaisy//src/per/i2c.h ****     {
  72:../../libDaisy//src/per/i2c.h ****         OK, /**< & */
  73:../../libDaisy//src/per/i2c.h ****         ERR /**< & */
  74:../../libDaisy//src/per/i2c.h ****     };
  75:../../libDaisy//src/per/i2c.h **** 
  76:../../libDaisy//src/per/i2c.h ****     enum class Direction
  77:../../libDaisy//src/per/i2c.h ****     {
  78:../../libDaisy//src/per/i2c.h ****         TRANSMIT, /**< & */
  79:../../libDaisy//src/per/i2c.h ****         RECEIVE,  /**< & */
  80:../../libDaisy//src/per/i2c.h ****     };
  81:../../libDaisy//src/per/i2c.h **** 
  82:../../libDaisy//src/per/i2c.h ****     I2CHandle() : pimpl_(nullptr) {}
 10002              		.loc 16 82 5 view .LVU2465
 10003              		.loc 16 82 5 is_stmt 0 view .LVU2466
 10004              	.LBE3239:
 10005              	.LBB3240:
 10006              	.LBI3240:
  34:../../libDaisy//src/dev/mpr121.h ****         {
 10007              		.loc 13 34 9 is_stmt 1 view .LVU2467
 10008              	.LBB3241:
 10009              	.LBB3242:
 10010              	.LBB3243:
 10011              	.LBI3243:
 272:../../libDaisy//src/daisy_core.h **** 
 10012              		.loc 15 272 15 view .LVU2468
 272:../../libDaisy//src/daisy_core.h **** 
 10013              		.loc 15 272 15 is_stmt 0 view .LVU2469
 10014              	.LBE3243:
 10015              	.LBB3244:
 10016              	.LBI3244:
 272:../../libDaisy//src/daisy_core.h **** 
 10017              		.loc 15 272 15 is_stmt 1 view .LVU2470
 272:../../libDaisy//src/daisy_core.h **** 
 10018              		.loc 15 272 15 is_stmt 0 view .LVU2471
 10019              	.LBE3244:
  36:../../libDaisy//src/dev/mpr121.h ****             speed  = I2CHandle::Config::Speed::I2C_400KHZ;
 10020              		.loc 13 36 13 is_stmt 1 view .LVU2472
  37:../../libDaisy//src/dev/mpr121.h **** 
 10021              		.loc 13 37 13 view .LVU2473
ARM GAS  /var/folders/hl/qgbwny5j0fd895c2c41bk3tw0000gp/T//cckqgw4a.s 			page 249


  39:../../libDaisy//src/dev/mpr121.h ****             sda = Pin(PORTB, 9);
 10022              		.loc 13 39 13 view .LVU2474
 10023              	.LBB3245:
 10024              	.LBI3245:
 269:../../libDaisy//src/daisy_core.h **** 
 10025              		.loc 15 269 15 view .LVU2475
 269:../../libDaisy//src/daisy_core.h **** 
 10026              		.loc 15 269 15 is_stmt 0 view .LVU2476
 10027              	.LBE3245:
  40:../../libDaisy//src/dev/mpr121.h **** 
 10028              		.loc 13 40 13 is_stmt 1 view .LVU2477
 10029              	.LBB3246:
 10030              	.LBI3246:
 269:../../libDaisy//src/daisy_core.h **** 
 10031              		.loc 15 269 15 view .LVU2478
 269:../../libDaisy//src/daisy_core.h **** 
 10032              		.loc 15 269 15 is_stmt 0 view .LVU2479
 10033              	.LBE3246:
  42:../../libDaisy//src/dev/mpr121.h ****         }
 10034              		.loc 13 42 13 is_stmt 1 view .LVU2480
 10035              	.LBE3242:
 10036              	.LBE3241:
 10037              	.LBE3240:
 10038              	.LBE3238:
 10039              	.LBE3237:
 10040              	.LBE3215:
 10041              	.LBE3214:
 10042              	.LBE3213:
 10043              	.LBE3212:
 10044              		.loc 17 237 1 is_stmt 0 view .LVU2481
 10045 0000 F8B5     		push	{r3, r4, r5, r6, r7, lr}
 10046              		.cfi_def_cfa_offset 24
 10047              		.cfi_offset 3, -24
 10048              		.cfi_offset 4, -20
 10049              		.cfi_offset 5, -16
 10050              		.cfi_offset 6, -12
 10051              		.cfi_offset 7, -8
 10052              		.cfi_offset 14, -4
 10053              	.LBB3311:
 10054              	.LBB3306:
 10055              	.LBB3263:
 10056              	.LBB3260:
 10057              	.LBB3255:
 10058              	.LBB3234:
 10059              	.LBB3231:
 10060              	.LBB3228:
 10061              	.LBB3225:
  36:../../libDaisy//src/dev/mpr121.h ****             speed  = I2CHandle::Config::Speed::I2C_400KHZ;
 10062              		.loc 13 36 20 view .LVU2482
 10063 0002 3B48     		ldr	r0, .L161
 10064              	.LBE3225:
 10065              	.LBE3228:
 10066              	.LBE3231:
 10067              	.LBE3234:
 10068              	.LBE3255:
  90:../../libDaisy//src/dev/mpr121.h ****     ~Mpr121() {}
 10069              		.loc 13 90 5 view .LVU2483
ARM GAS  /var/folders/hl/qgbwny5j0fd895c2c41bk3tw0000gp/T//cckqgw4a.s 			page 250


 10070 0004 5A23     		movs	r3, #90
 10071              	.LBE3260:
 10072              	.LBE3263:
  11:touchEvent.h  **** 
 10073              		.loc 14 11 11 view .LVU2484
 10074 0006 3B4D     		ldr	r5, .L161+4
 10075              	.LBB3264:
 10076              	.LBB3261:
 10077              	.LBB3256:
 10078              	.LBB3235:
 10079              	.LBB3232:
 10080              	.LBB3229:
 10081              	.LBB3226:
  36:../../libDaisy//src/dev/mpr121.h ****             speed  = I2CHandle::Config::Speed::I2C_400KHZ;
 10082              		.loc 13 36 20 view .LVU2485
 10083 0008 0024     		movs	r4, #0
  37:../../libDaisy//src/dev/mpr121.h **** 
 10084              		.loc 13 37 20 view .LVU2486
 10085 000a 0121     		movs	r1, #1
 10086              	.LBE3226:
 10087              	.LBE3229:
 10088              	.LBE3232:
 10089              	.LBE3235:
 10090              	.LBE3256:
  90:../../libDaisy//src/dev/mpr121.h ****     ~Mpr121() {}
 10091              		.loc 13 90 5 view .LVU2487
 10092 000c 3A4A     		ldr	r2, .L161+8
 10093 000e 0361     		str	r3, [r0, #16]
 10094 0010 C362     		str	r3, [r0, #44]
 10095              	.LVL539:
  90:../../libDaisy//src/dev/mpr121.h ****     ~Mpr121() {}
 10096              		.loc 13 90 5 view .LVU2488
 10097 0012 40F20C63 		movw	r3, #1548
 10098              	.LBB3257:
 10099              	.LBB3253:
 10100              	.LBB3251:
 10101              	.LBB3249:
 10102              	.LBB3247:
  37:../../libDaisy//src/dev/mpr121.h **** 
 10103              		.loc 13 37 20 view .LVU2489
 10104 0016 0162     		str	r1, [r0, #32]
 10105              	.LBE3247:
 10106              	.LBE3249:
 10107              	.LBE3251:
 10108              	.LBE3253:
 10109              	.LBE3257:
  90:../../libDaisy//src/dev/mpr121.h ****     ~Mpr121() {}
 10110              		.loc 13 90 5 view .LVU2490
 10111 0018 4361     		str	r3, [r0, #20]
 10112 001a 8260     		str	r2, [r0, #8]
 10113 001c 4262     		str	r2, [r0, #36]
 10114              	.LBE3261:
 10115              	.LBE3264:
  11:touchEvent.h  **** 
 10116              		.loc 14 11 11 view .LVU2491
 10117 001e 2A46     		mov	r2, r5
 10118              	.LBB3265:
ARM GAS  /var/folders/hl/qgbwny5j0fd895c2c41bk3tw0000gp/T//cckqgw4a.s 			page 251


 10119              	.LBB3266:
 10120              	.LBB3267:
 10121              		.file 24 "keypad.h"
   1:keypad.h      **** #pragma once
   2:keypad.h      **** 
   3:keypad.h      **** #include "daisy_seed.h"
   4:keypad.h      **** #include <utility>
   5:keypad.h      **** 
   6:keypad.h      **** using namespace daisy;
   7:keypad.h      **** using namespace seed;
   8:keypad.h      **** extern daisy::DaisySeed hw;
   9:keypad.h      **** 
  10:keypad.h      **** class KeyboardMatrix {
  11:keypad.h      **** public:
  12:keypad.h      ****     KeyboardMatrix(){};
 10122              		.loc 24 12 21 view .LVU2492
 10123 0020 364E     		ldr	r6, .L161+12
 10124              	.LBE3267:
 10125              	.LBE3266:
 10126              	.LBE3265:
  18:OmniSeed.cpp  **** Switch 			oct1,oct2,reset;
 10127              		.loc 17 18 11 view .LVU2493
 10128 0022 374F     		ldr	r7, .L161+16
 10129              	.LBB3273:
 10130              	.LBB3262:
 10131              	.LBB3258:
 10132              	.LBB3236:
 10133              	.LBB3233:
 10134              	.LBB3230:
 10135              	.LBB3227:
  37:../../libDaisy//src/dev/mpr121.h **** 
 10136              		.loc 13 37 20 view .LVU2494
 10137 0024 C0E90041 		strd	r4, r1, [r0]
 10138              	.LBE3227:
 10139              	.LBE3230:
 10140              	.LBE3233:
 10141              	.LBE3236:
 10142              	.LBE3258:
 10143              	.LBB3259:
 10144              	.LBB3254:
 10145              	.LBB3252:
 10146              	.LBB3250:
 10147              	.LBB3248:
  36:../../libDaisy//src/dev/mpr121.h ****             speed  = I2CHandle::Config::Speed::I2C_400KHZ;
 10148              		.loc 13 36 20 view .LVU2495
 10149 0028 C0E90644 		strd	r4, r4, [r0, #24]
 10150              	.LBE3248:
 10151              	.LBE3250:
 10152              	.LBE3252:
 10153              	.LBE3254:
 10154              	.LBE3259:
 10155              	.LBE3262:
 10156              	.LBE3273:
  11:touchEvent.h  **** 
 10157              		.loc 14 11 11 view .LVU2496
 10158 002c 3549     		ldr	r1, .L161+20
 10159 002e FFF7FEFF 		bl	__aeabi_atexit
ARM GAS  /var/folders/hl/qgbwny5j0fd895c2c41bk3tw0000gp/T//cckqgw4a.s 			page 252


 10160              	.LVL540:
 10161              	.LBB3274:
 10162              	.LBI3274:
  21:../../libDaisy//src/daisy_seed.h ****     ~DaisySeed() {}
 10163              		.loc 3 21 5 is_stmt 1 view .LVU2497
 10164              	.LBB3275:
 10165              	.LBB3276:
 10166              	.LBI3276:
 10167              		.file 25 "../../libDaisy//src/per/qspi.h"
   1:../../libDaisy//src/per/qspi.h **** #ifndef DSY_QSPI
   2:../../libDaisy//src/per/qspi.h **** #define DSY_QSPI /**< Macro */
   3:../../libDaisy//src/per/qspi.h **** 
   4:../../libDaisy//src/per/qspi.h **** #ifndef UNIT_TEST // for unit tests, a dummy implementation
   5:../../libDaisy//src/per/qspi.h **** 
   6:../../libDaisy//src/per/qspi.h **** #include <cstdint>
   7:../../libDaisy//src/per/qspi.h **** #include "daisy_core.h" // Added for dsy_gpio_pin typedef
   8:../../libDaisy//src/per/qspi.h **** 
   9:../../libDaisy//src/per/qspi.h **** #define DSY_QSPI_TEXT       \
  10:../../libDaisy//src/per/qspi.h ****     __attribute__((section( \
  11:../../libDaisy//src/per/qspi.h ****         ".qspiflash_text"))) /**< used for reading memory in memory_mapped mode. */
  12:../../libDaisy//src/per/qspi.h **** #define DSY_QSPI_DATA       \
  13:../../libDaisy//src/per/qspi.h ****     __attribute__((section( \
  14:../../libDaisy//src/per/qspi.h ****         ".qspiflash_data"))) /**< used for reading memory in memory_mapped mode. */
  15:../../libDaisy//src/per/qspi.h **** #define DSY_QSPI_BSS        \
  16:../../libDaisy//src/per/qspi.h ****     __attribute__((section( \
  17:../../libDaisy//src/per/qspi.h ****         ".qspiflash_bss"))) /**< used for reading memory in memory_mapped mode. */
  18:../../libDaisy//src/per/qspi.h **** 
  19:../../libDaisy//src/per/qspi.h **** namespace daisy
  20:../../libDaisy//src/per/qspi.h **** {
  21:../../libDaisy//src/per/qspi.h **** /** @addtogroup serial
  22:../../libDaisy//src/per/qspi.h **** @{
  23:../../libDaisy//src/per/qspi.h **** */
  24:../../libDaisy//src/per/qspi.h **** 
  25:../../libDaisy//src/per/qspi.h **** /** 
  26:../../libDaisy//src/per/qspi.h ****  Driver for QSPI peripheral to interface with external flash memory. \n 
  27:../../libDaisy//src/per/qspi.h ****     Currently supported QSPI Devices: \n 
  28:../../libDaisy//src/per/qspi.h ****     * IS25LP080D
  29:../../libDaisy//src/per/qspi.h **** */
  30:../../libDaisy//src/per/qspi.h **** class QSPIHandle
  31:../../libDaisy//src/per/qspi.h **** {
  32:../../libDaisy//src/per/qspi.h ****   public:
  33:../../libDaisy//src/per/qspi.h ****     enum Result
  34:../../libDaisy//src/per/qspi.h ****     {
  35:../../libDaisy//src/per/qspi.h ****         OK = 0,
  36:../../libDaisy//src/per/qspi.h ****         ERR
  37:../../libDaisy//src/per/qspi.h ****     };
  38:../../libDaisy//src/per/qspi.h **** 
  39:../../libDaisy//src/per/qspi.h ****     /** Indicates the current status of the module. 
  40:../../libDaisy//src/per/qspi.h ****          *  Warnings are indicated by a leading W.
  41:../../libDaisy//src/per/qspi.h ****          *  Errors are indicated by a leading E and cause an immediate exit.
  42:../../libDaisy//src/per/qspi.h ****          * 
  43:../../libDaisy//src/per/qspi.h ****          *  \param GOOD - No errors have been reported.
  44:../../libDaisy//src/per/qspi.h ****          *  \param E_HAL_ERROR - HAL code did not return HAL_OK.
  45:../../libDaisy//src/per/qspi.h ****          *  \param E_SWITCHING_MODES - An error was encountered while switching QSPI peripheral mod
  46:../../libDaisy//src/per/qspi.h ****          *  \param E_INVALID_MODE - QSPI should not be written to while the program is executing fr
  47:../../libDaisy//src/per/qspi.h ****          */
  48:../../libDaisy//src/per/qspi.h ****     enum Status
ARM GAS  /var/folders/hl/qgbwny5j0fd895c2c41bk3tw0000gp/T//cckqgw4a.s 			page 253


  49:../../libDaisy//src/per/qspi.h ****     {
  50:../../libDaisy//src/per/qspi.h ****         GOOD = 0,
  51:../../libDaisy//src/per/qspi.h ****         E_HAL_ERROR,
  52:../../libDaisy//src/per/qspi.h ****         E_SWITCHING_MODES,
  53:../../libDaisy//src/per/qspi.h ****         E_INVALID_MODE,
  54:../../libDaisy//src/per/qspi.h ****     };
  55:../../libDaisy//src/per/qspi.h **** 
  56:../../libDaisy//src/per/qspi.h ****     /** Configuration structure for interfacing with QSPI Driver */
  57:../../libDaisy//src/per/qspi.h ****     struct Config
  58:../../libDaisy//src/per/qspi.h ****     {
  59:../../libDaisy//src/per/qspi.h ****         /** Flash Devices supported. (Both of these are more-or-less the same, just different sizes
  60:../../libDaisy//src/per/qspi.h ****         enum Device
  61:../../libDaisy//src/per/qspi.h ****         {
  62:../../libDaisy//src/per/qspi.h ****             IS25LP080D,  /**< & */
  63:../../libDaisy//src/per/qspi.h ****             IS25LP064A,  /**< & */
  64:../../libDaisy//src/per/qspi.h ****             DEVICE_LAST, /**< & */
  65:../../libDaisy//src/per/qspi.h ****         };
  66:../../libDaisy//src/per/qspi.h **** 
  67:../../libDaisy//src/per/qspi.h ****         /** 
  68:../../libDaisy//src/per/qspi.h ****         Modes of operation.
  69:../../libDaisy//src/per/qspi.h ****         Memory Mapped mode: QSPI configured so that the QSPI can be
  70:../../libDaisy//src/per/qspi.h ****         read from starting address 0x90000000. Writing is not
  71:../../libDaisy//src/per/qspi.h ****         possible in this mode. \n 
  72:../../libDaisy//src/per/qspi.h ****         Indirect Polling mode: Device driver enabled. 
  73:../../libDaisy//src/per/qspi.h ****         */
  74:../../libDaisy//src/per/qspi.h ****         enum Mode
  75:../../libDaisy//src/per/qspi.h ****         {
  76:../../libDaisy//src/per/qspi.h ****             MEMORY_MAPPED,    /**< & */
  77:../../libDaisy//src/per/qspi.h ****             INDIRECT_POLLING, /**< & */
  78:../../libDaisy//src/per/qspi.h ****             MODE_LAST,
  79:../../libDaisy//src/per/qspi.h ****         };
  80:../../libDaisy//src/per/qspi.h **** 
  81:../../libDaisy//src/per/qspi.h ****         //SCK,  CE# (active low)
  82:../../libDaisy//src/per/qspi.h ****         struct
  83:../../libDaisy//src/per/qspi.h ****         {
  84:../../libDaisy//src/per/qspi.h ****             dsy_gpio_pin io0; /**< & */
  85:../../libDaisy//src/per/qspi.h ****             dsy_gpio_pin io1; /**< & */
  86:../../libDaisy//src/per/qspi.h ****             dsy_gpio_pin io2; /**< & */
  87:../../libDaisy//src/per/qspi.h ****             dsy_gpio_pin io3; /**< & */
  88:../../libDaisy//src/per/qspi.h ****             dsy_gpio_pin clk; /**< & */
  89:../../libDaisy//src/per/qspi.h ****             dsy_gpio_pin ncs; /**< & */
  90:../../libDaisy//src/per/qspi.h ****         } pin_config;
  91:../../libDaisy//src/per/qspi.h **** 
  92:../../libDaisy//src/per/qspi.h ****         Device device;
  93:../../libDaisy//src/per/qspi.h ****         Mode   mode;
  94:../../libDaisy//src/per/qspi.h ****     };
  95:../../libDaisy//src/per/qspi.h **** 
  96:../../libDaisy//src/per/qspi.h ****     /** 
  97:../../libDaisy//src/per/qspi.h ****         Initializes QSPI peripheral, and Resets, and prepares memory for access.
  98:../../libDaisy//src/per/qspi.h ****         \param config should be populated with the mode, device and pin_config before calling this 
  99:../../libDaisy//src/per/qspi.h ****         \return Result::OK or Result::ERR
 100:../../libDaisy//src/per/qspi.h ****         */
 101:../../libDaisy//src/per/qspi.h ****     Result Init(const Config& config);
 102:../../libDaisy//src/per/qspi.h **** 
 103:../../libDaisy//src/per/qspi.h ****     /** Returns the current config. */
 104:../../libDaisy//src/per/qspi.h ****     const Config& GetConfig() const;
 105:../../libDaisy//src/per/qspi.h **** 
ARM GAS  /var/folders/hl/qgbwny5j0fd895c2c41bk3tw0000gp/T//cckqgw4a.s 			page 254


 106:../../libDaisy//src/per/qspi.h ****     // Couldn't this just be called before anything else in init? That
 107:../../libDaisy//src/per/qspi.h ****     // would make manually calling it unnecessary.
 108:../../libDaisy//src/per/qspi.h ****     /** 
 109:../../libDaisy//src/per/qspi.h ****         Deinitializes the peripheral
 110:../../libDaisy//src/per/qspi.h ****         This should be called before reinitializing QSPI in a different mode.
 111:../../libDaisy//src/per/qspi.h ****         \return Result::OK or Result::ERR
 112:../../libDaisy//src/per/qspi.h ****         */
 113:../../libDaisy//src/per/qspi.h ****     Result DeInit();
 114:../../libDaisy//src/per/qspi.h **** 
 115:../../libDaisy//src/per/qspi.h ****     /** 
 116:../../libDaisy//src/per/qspi.h ****         Writes a single page to to the specified address on the QSPI chip.
 117:../../libDaisy//src/per/qspi.h ****         For IS25LP*, page size is 256 bytes.
 118:../../libDaisy//src/per/qspi.h ****         \param address Address to write to
 119:../../libDaisy//src/per/qspi.h ****         \param size Buffer size
 120:../../libDaisy//src/per/qspi.h ****         \param buffer Buffer to write
 121:../../libDaisy//src/per/qspi.h ****         \return Result::OK or Result::ERR
 122:../../libDaisy//src/per/qspi.h ****         */
 123:../../libDaisy//src/per/qspi.h ****     Result WritePage(uint32_t address, uint32_t size, uint8_t* buffer);
 124:../../libDaisy//src/per/qspi.h **** 
 125:../../libDaisy//src/per/qspi.h ****     /** 
 126:../../libDaisy//src/per/qspi.h ****         Writes data in buffer to to the QSPI. Starting at address to address+size 
 127:../../libDaisy//src/per/qspi.h ****         \param address Address to write to
 128:../../libDaisy//src/per/qspi.h ****         \param size Buffer size
 129:../../libDaisy//src/per/qspi.h ****         \param buffer Buffer to write
 130:../../libDaisy//src/per/qspi.h ****         \return Result::OK or Result::ERR
 131:../../libDaisy//src/per/qspi.h ****         */
 132:../../libDaisy//src/per/qspi.h ****     Result Write(uint32_t address, uint32_t size, uint8_t* buffer);
 133:../../libDaisy//src/per/qspi.h **** 
 134:../../libDaisy//src/per/qspi.h ****     /** 
 135:../../libDaisy//src/per/qspi.h ****         Erases the area specified on the chip.
 136:../../libDaisy//src/per/qspi.h ****         Erasures will happen by 4K, 32K or 64K increments.
 137:../../libDaisy//src/per/qspi.h ****         Smallest erase possible is 4kB at a time. (on IS25LP*)
 138:../../libDaisy//src/per/qspi.h ****         \param start_addr Address to begin erasing from
 139:../../libDaisy//src/per/qspi.h ****         \param end_addr  Address to stop erasing at
 140:../../libDaisy//src/per/qspi.h ****         \return Result::OK or Result::ERR
 141:../../libDaisy//src/per/qspi.h ****         */
 142:../../libDaisy//src/per/qspi.h ****     Result Erase(uint32_t start_addr, uint32_t end_addr);
 143:../../libDaisy//src/per/qspi.h **** 
 144:../../libDaisy//src/per/qspi.h ****     /**  
 145:../../libDaisy//src/per/qspi.h ****          Erases a single sector of the chip.  
 146:../../libDaisy//src/per/qspi.h ****         TODO: Document the size of this function. 
 147:../../libDaisy//src/per/qspi.h ****         \param address Address of sector to erase
 148:../../libDaisy//src/per/qspi.h ****         \return Result::OK or Result::ERR
 149:../../libDaisy//src/per/qspi.h ****         */
 150:../../libDaisy//src/per/qspi.h ****     Result EraseSector(uint32_t address);
 151:../../libDaisy//src/per/qspi.h **** 
 152:../../libDaisy//src/per/qspi.h ****     /** Returns the current class status. Useful for debugging.
 153:../../libDaisy//src/per/qspi.h ****      *  \returns Status
 154:../../libDaisy//src/per/qspi.h ****      */
 155:../../libDaisy//src/per/qspi.h ****     Status GetStatus();
 156:../../libDaisy//src/per/qspi.h **** 
 157:../../libDaisy//src/per/qspi.h ****     /** Returns a pointer to the actual memory used 
 158:../../libDaisy//src/per/qspi.h ****      *  The memory at this address is read-only
 159:../../libDaisy//src/per/qspi.h ****      *  to write to it use the Write function.
 160:../../libDaisy//src/per/qspi.h ****      * 
 161:../../libDaisy//src/per/qspi.h ****      *  \param offset returns the pointer starting this 
 162:../../libDaisy//src/per/qspi.h ****      *                many bytes into the memory
ARM GAS  /var/folders/hl/qgbwny5j0fd895c2c41bk3tw0000gp/T//cckqgw4a.s 			page 255


 163:../../libDaisy//src/per/qspi.h ****     */
 164:../../libDaisy//src/per/qspi.h ****     void* GetData(uint32_t offset = 0);
 165:../../libDaisy//src/per/qspi.h **** 
 166:../../libDaisy//src/per/qspi.h ****     QSPIHandle() : pimpl_(nullptr) {}
 10168              		.loc 25 166 5 view .LVU2498
 10169              	.LBB3277:
 10170              	.LBB3278:
 10171              		.loc 25 166 34 is_stmt 0 view .LVU2499
 10172 0032 3548     		ldr	r0, .L161+24
 10173              	.LBE3278:
 10174              	.LBE3277:
 10175              	.LBE3276:
 10176              	.LBE3275:
 10177              	.LBE3274:
  16:OmniSeed.cpp  **** DaisySeed 		hw;
 10178              		.loc 17 16 13 view .LVU2500
 10179 0034 2A46     		mov	r2, r5
 10180 0036 3549     		ldr	r1, .L161+28
 10181              	.LBB3292:
 10182              	.LBB3291:
 10183              	.LBB3281:
 10184              	.LBB3280:
 10185              	.LBB3279:
 10186              		.loc 25 166 34 view .LVU2501
 10187 0038 0460     		str	r4, [r0]
 10188              	.LVL541:
 10189              		.loc 25 166 34 view .LVU2502
 10190              	.LBE3279:
 10191              	.LBE3280:
 10192              	.LBE3281:
 10193              	.LBB3282:
 10194              	.LBI3282:
  95:../../libDaisy//src/hid/audio.h ****     ~AudioHandle() {}
 10195              		.loc 7 95 5 is_stmt 1 view .LVU2503
 10196              	.LBB3283:
 10197              	.LBB3284:
  95:../../libDaisy//src/hid/audio.h ****     ~AudioHandle() {}
 10198              		.loc 7 95 35 is_stmt 0 view .LVU2504
 10199 003a 4461     		str	r4, [r0, #20]
 10200              	.LVL542:
  95:../../libDaisy//src/hid/audio.h ****     ~AudioHandle() {}
 10201              		.loc 7 95 35 view .LVU2505
 10202              	.LBE3284:
 10203              	.LBE3283:
 10204              	.LBE3282:
 10205              	.LBB3285:
 10206              	.LBI3285:
  92:../../libDaisy//src/per/adc.h ****     ~AdcHandle() {}
 10207              		.loc 6 92 5 is_stmt 1 view .LVU2506
  92:../../libDaisy//src/per/adc.h ****     ~AdcHandle() {}
 10208              		.loc 6 92 5 is_stmt 0 view .LVU2507
 10209              	.LBE3285:
 10210              	.LBB3286:
 10211              	.LBI3286:
 10212              		.file 26 "../../libDaisy//src/per/dac.h"
   1:../../libDaisy//src/per/dac.h **** #pragma once
   2:../../libDaisy//src/per/dac.h **** #ifndef DSY_DAC_H
ARM GAS  /var/folders/hl/qgbwny5j0fd895c2c41bk3tw0000gp/T//cckqgw4a.s 			page 256


   3:../../libDaisy//src/per/dac.h **** #define DSY_DAC_H
   4:../../libDaisy//src/per/dac.h **** 
   5:../../libDaisy//src/per/dac.h **** #include "daisy_core.h"
   6:../../libDaisy//src/per/dac.h **** 
   7:../../libDaisy//src/per/dac.h **** namespace daisy
   8:../../libDaisy//src/per/dac.h **** {
   9:../../libDaisy//src/per/dac.h **** /** @brief DAC handle for Built-in DAC Peripheral 
  10:../../libDaisy//src/per/dac.h ****  *  @ingroup per_analog
  11:../../libDaisy//src/per/dac.h ****  ** 
  12:../../libDaisy//src/per/dac.h ****  ** For now only Normal Mode is supported,
  13:../../libDaisy//src/per/dac.h ****  ** Sample and hold mode provides reduced power consumption, but requires a bit more setup.
  14:../../libDaisy//src/per/dac.h ****  **
  15:../../libDaisy//src/per/dac.h ****  ** For now connecting the DAC through other internal peripherals is also not supported.
  16:../../libDaisy//src/per/dac.h ****  **
  17:../../libDaisy//src/per/dac.h ****  ** Since the DAC channels have dedicated pins we don't need to pass in a pin config like with
  18:../../libDaisy//src/per/dac.h ****  ** other modules. However, it is still important to not try to use the DAC pins for anything else.
  19:../../libDaisy//src/per/dac.h ****  ** DAC Channel 1 is on PA4, and DAC Channel 2 is on PA5
  20:../../libDaisy//src/per/dac.h ****  ***/
  21:../../libDaisy//src/per/dac.h **** class DacHandle
  22:../../libDaisy//src/per/dac.h **** {
  23:../../libDaisy//src/per/dac.h ****   public:
  24:../../libDaisy//src/per/dac.h ****     /** Return Values for the DacHandle class */
  25:../../libDaisy//src/per/dac.h ****     enum class Result
  26:../../libDaisy//src/per/dac.h ****     {
  27:../../libDaisy//src/per/dac.h ****         OK,
  28:../../libDaisy//src/per/dac.h ****         ERR,
  29:../../libDaisy//src/per/dac.h ****     };
  30:../../libDaisy//src/per/dac.h **** 
  31:../../libDaisy//src/per/dac.h ****     /** Selects which channel(s) will be configured for use. */
  32:../../libDaisy//src/per/dac.h ****     enum class Channel
  33:../../libDaisy//src/per/dac.h ****     {
  34:../../libDaisy//src/per/dac.h ****         ONE,
  35:../../libDaisy//src/per/dac.h ****         TWO,
  36:../../libDaisy//src/per/dac.h ****         BOTH,
  37:../../libDaisy//src/per/dac.h ****     };
  38:../../libDaisy//src/per/dac.h **** 
  39:../../libDaisy//src/per/dac.h ****     /** Sets the Mode for the DAC channels.
  40:../../libDaisy//src/per/dac.h ****      **
  41:../../libDaisy//src/per/dac.h ****      ** Polling mode uses the blocking mode to transmit a single value at a time.
  42:../../libDaisy//src/per/dac.h ****      **
  43:../../libDaisy//src/per/dac.h ****      ** DMA mode uses a buffer, and periodically transmits it triggering a 
  44:../../libDaisy//src/per/dac.h ****      ** callback to fill the buffer when it is ready for more samples.
  45:../../libDaisy//src/per/dac.h ****      ***/
  46:../../libDaisy//src/per/dac.h ****     enum class Mode
  47:../../libDaisy//src/per/dac.h ****     {
  48:../../libDaisy//src/per/dac.h ****         POLLING,
  49:../../libDaisy//src/per/dac.h ****         DMA,
  50:../../libDaisy//src/per/dac.h ****     };
  51:../../libDaisy//src/per/dac.h **** 
  52:../../libDaisy//src/per/dac.h ****     /** Sets the number of bits per sample transmitted out of the DAC.
  53:../../libDaisy//src/per/dac.h ****      ** The output range will be: 0V - VDDA
  54:../../libDaisy//src/per/dac.h ****      ** The resolution will be roughly: bitdepth / (VDDA - 0V) 
  55:../../libDaisy//src/per/dac.h ****      ***/
  56:../../libDaisy//src/per/dac.h ****     enum class BitDepth
  57:../../libDaisy//src/per/dac.h ****     {
  58:../../libDaisy//src/per/dac.h ****         BITS_8,
  59:../../libDaisy//src/per/dac.h ****         BITS_12
ARM GAS  /var/folders/hl/qgbwny5j0fd895c2c41bk3tw0000gp/T//cckqgw4a.s 			page 257


  60:../../libDaisy//src/per/dac.h ****     };
  61:../../libDaisy//src/per/dac.h **** 
  62:../../libDaisy//src/per/dac.h ****     /** Sets whether the DAC output is buffered for higher drive ability. */
  63:../../libDaisy//src/per/dac.h ****     enum class BufferState
  64:../../libDaisy//src/per/dac.h ****     {
  65:../../libDaisy//src/per/dac.h ****         ENABLED,
  66:../../libDaisy//src/per/dac.h ****         DISABLED,
  67:../../libDaisy//src/per/dac.h ****     };
  68:../../libDaisy//src/per/dac.h **** 
  69:../../libDaisy//src/per/dac.h ****     /** Configuration structure for initializing the DAC structure. */
  70:../../libDaisy//src/per/dac.h ****     struct Config
  71:../../libDaisy//src/per/dac.h ****     {
  72:../../libDaisy//src/per/dac.h ****         /** Target Samplerate in Hz used to configure the internal 
  73:../../libDaisy//src/per/dac.h ****          ** timebase for DMA mode. Does nothing in POLLING mode.
  74:../../libDaisy//src/per/dac.h ****          ** If the value is 0 at Init time this will default to 48000Hz 
  75:../../libDaisy//src/per/dac.h ****          ** otherwise the driver will attempt meet the target.*/
  76:../../libDaisy//src/per/dac.h ****         uint32_t target_samplerate;
  77:../../libDaisy//src/per/dac.h **** 
  78:../../libDaisy//src/per/dac.h ****         Channel     chn;
  79:../../libDaisy//src/per/dac.h ****         Mode        mode;
  80:../../libDaisy//src/per/dac.h ****         BitDepth    bitdepth;
  81:../../libDaisy//src/per/dac.h ****         BufferState buff_state;
  82:../../libDaisy//src/per/dac.h ****     };
  83:../../libDaisy//src/per/dac.h **** 
  84:../../libDaisy//src/per/dac.h ****     DacHandle() : pimpl_(nullptr) {}
 10213              		.loc 26 84 5 is_stmt 1 view .LVU2508
 10214              	.LBB3287:
 10215              	.LBB3288:
 10216              		.loc 26 84 33 is_stmt 0 view .LVU2509
 10217 003c 0462     		str	r4, [r0, #32]
 10218              	.LVL543:
 10219              		.loc 26 84 33 view .LVU2510
 10220              	.LBE3288:
 10221              	.LBE3287:
 10222              	.LBE3286:
 10223              	.LBB3289:
 10224              	.LBI3289:
  40:../../libDaisy//src/hid/usb.h **** 
 10225              		.loc 5 40 5 is_stmt 1 view .LVU2511
  40:../../libDaisy//src/hid/usb.h **** 
 10226              		.loc 5 40 5 is_stmt 0 view .LVU2512
 10227              	.LBE3289:
 10228              	.LBB3290:
 10229              	.LBI3290:
  77:../../libDaisy//src/sys/system.h ****     ~System() {}
 10230              		.loc 4 77 5 is_stmt 1 view .LVU2513
  77:../../libDaisy//src/sys/system.h ****     ~System() {}
 10231              		.loc 4 77 5 is_stmt 0 view .LVU2514
 10232              	.LBE3290:
 10233              	.LBE3291:
 10234              	.LBE3292:
 10235              	.LBB3293:
 10236              	.LBB3271:
 10237              		.loc 24 12 21 view .LVU2515
 10238 003e 344C     		ldr	r4, .L161+32
 10239              	.LBE3271:
 10240              	.LBE3293:
ARM GAS  /var/folders/hl/qgbwny5j0fd895c2c41bk3tw0000gp/T//cckqgw4a.s 			page 258


  16:OmniSeed.cpp  **** DaisySeed 		hw;
 10241              		.loc 17 16 13 view .LVU2516
 10242 0040 FFF7FEFF 		bl	__aeabi_atexit
 10243              	.LVL544:
 10244              	.LBB3294:
 10245              	.LBI3265:
 10246              		.loc 24 12 5 is_stmt 1 view .LVU2517
 10247              	.LBB3272:
 10248              	.LBB3268:
 10249              		.loc 24 12 21 is_stmt 0 view .LVU2518
 10250 0044 B189     		ldrh	r1, [r6, #12]	@ unaligned
 10251              	.LBE3268:
 10252 0046 40F60313 		movw	r3, #2307
 10253 004a 2246     		mov	r2, r4
 10254              	.LBB3269:
 10255 004c 06F1100C 		add	ip, r6, #16
 10256 0050 A4F80B10 		strh	r1, [r4, #11]	@ unaligned
 10257              	.LBE3269:
 10258 0054 42F8023B 		str	r3, [r2], #2
 10259              	.LBB3270:
 10260 0058 3346     		mov	r3, r6
 10261 005a B17B     		ldrb	r1, [r6, #14]	@ zero_extendqisi2
 10262 005c 6173     		strb	r1, [r4, #13]
 10263 005e 03CB     		ldmia	r3!, {r0, r1}
 10264 0060 1B78     		ldrb	r3, [r3]	@ zero_extendqisi2
 10265 0062 C4F80200 		str	r0, [r4, #2]	@ unaligned
 10266 0066 5160     		str	r1, [r2, #4]	@ unaligned
 10267 0068 1372     		strb	r3, [r2, #8]
 10268 006a BCE80F00 		ldmia	ip!, {r0, r1, r2, r3}
 10269 006e C4F80E00 		str	r0, [r4, #14]	@ unaligned
 10270 0072 C4F81210 		str	r1, [r4, #18]	@ unaligned
 10271 0076 C4F81A30 		str	r3, [r4, #26]	@ unaligned
 10272 007a C4F81620 		str	r2, [r4, #22]	@ unaligned
 10273 007e 6C22     		movs	r2, #108
 10274 0080 BCE80300 		ldmia	ip!, {r0, r1}
 10275 0084 BCF80030 		ldrh	r3, [ip]	@ unaligned
 10276 0088 C4F81E00 		str	r0, [r4, #30]	@ unaligned
 10277 008c 04F12C00 		add	r0, r4, #44
 10278 0090 E384     		strh	r3, [r4, #38]	@ unaligned
 10279 0092 9CF80230 		ldrb	r3, [ip, #2]	@ zero_extendqisi2
 10280 0096 C4F82210 		str	r1, [r4, #34]	@ unaligned
 10281 009a 06F12C01 		add	r1, r6, #44
 10282 009e 84F82830 		strb	r3, [r4, #40]
 10283 00a2 FFF7FEFF 		bl	memcpy
 10284              	.LVL545:
 10285              		.loc 24 12 21 view .LVU2519
 10286              	.LBE3270:
 10287              	.LBE3272:
 10288              	.LBE3294:
 10289              	.LBB3295:
 10290              	.LBI3295:
  41:../../libDaisy//src/hid/switch.h ****     ~Switch() {}
 10291              		.loc 1 41 5 is_stmt 1 view .LVU2520
  41:../../libDaisy//src/hid/switch.h ****     ~Switch() {}
 10292              		.loc 1 41 5 is_stmt 0 view .LVU2521
 10293              	.LBE3295:
  18:OmniSeed.cpp  **** Switch 			oct1,oct2,reset;
ARM GAS  /var/folders/hl/qgbwny5j0fd895c2c41bk3tw0000gp/T//cckqgw4a.s 			page 259


 10294              		.loc 17 18 11 view .LVU2522
 10295 00a6 2A46     		mov	r2, r5
 10296 00a8 3946     		mov	r1, r7
 10297 00aa 1A48     		ldr	r0, .L161+36
 10298 00ac FFF7FEFF 		bl	__aeabi_atexit
 10299              	.LVL546:
 10300              	.LBB3296:
 10301              	.LBI3296:
  41:../../libDaisy//src/hid/switch.h ****     ~Switch() {}
 10302              		.loc 1 41 5 is_stmt 1 view .LVU2523
  41:../../libDaisy//src/hid/switch.h ****     ~Switch() {}
 10303              		.loc 1 41 5 is_stmt 0 view .LVU2524
 10304              	.LBE3296:
  18:OmniSeed.cpp  **** Switch 			oct1,oct2,reset;
 10305              		.loc 17 18 16 view .LVU2525
 10306 00b0 2A46     		mov	r2, r5
 10307 00b2 3946     		mov	r1, r7
 10308 00b4 1848     		ldr	r0, .L161+40
 10309 00b6 FFF7FEFF 		bl	__aeabi_atexit
 10310              	.LVL547:
 10311              	.LBB3297:
 10312              	.LBI3297:
  41:../../libDaisy//src/hid/switch.h ****     ~Switch() {}
 10313              		.loc 1 41 5 is_stmt 1 view .LVU2526
  41:../../libDaisy//src/hid/switch.h ****     ~Switch() {}
 10314              		.loc 1 41 5 is_stmt 0 view .LVU2527
 10315              	.LBE3297:
  18:OmniSeed.cpp  **** Switch 			oct1,oct2,reset;
 10316              		.loc 17 18 21 view .LVU2528
 10317 00ba 2A46     		mov	r2, r5
 10318 00bc 3946     		mov	r1, r7
 10319 00be 1748     		ldr	r0, .L161+44
 10320 00c0 FFF7FEFF 		bl	__aeabi_atexit
 10321              	.LVL548:
 10322              	.LBB3298:
 10323              	.LBI3298:
  21:../../libDaisy//src/util/CpuLoadMeter.h **** 
 10324              		.loc 18 21 5 is_stmt 1 view .LVU2529
  21:../../libDaisy//src/util/CpuLoadMeter.h **** 
 10325              		.loc 18 21 5 is_stmt 0 view .LVU2530
 10326              	.LBE3298:
 10327              	.LBB3299:
 10328              	.LBI3299:
  29:PolyPluck_p.h **** {
 10329              		.loc 9 29 7 is_stmt 1 view .LVU2531
 10330              	.LBB3300:
 10331              	.LBI3300:
  14:../../DaisySP//Source/Utility/dcblock.h ****     ~DcBlock(){};
 10332              		.loc 10 14 5 view .LVU2532
  14:../../DaisySP//Source/Utility/dcblock.h ****     ~DcBlock(){};
 10333              		.loc 10 14 5 is_stmt 0 view .LVU2533
 10334              	.LBE3300:
 10335              	.LBE3299:
 10336              	.LBE3306:
 10337              	.LBE3311:
  29:PolyPluck_p.h **** {
 10338              		.loc 9 29 7 is_stmt 1 view .LVU2534
ARM GAS  /var/folders/hl/qgbwny5j0fd895c2c41bk3tw0000gp/T//cckqgw4a.s 			page 260


 10339              	.LBB3312:
 10340              	.LBB3307:
  49:OmniSeed.cpp  **** PolyPluck_p<NUM_VOICES>			pluck; 
 10341              		.loc 17 49 27 is_stmt 0 view .LVU2535
 10342 00c4 2A46     		mov	r2, r5
 10343 00c6 1649     		ldr	r1, .L161+48
 10344 00c8 1648     		ldr	r0, .L161+52
 10345 00ca FFF7FEFF 		bl	__aeabi_atexit
 10346              	.LVL549:
 10347              	.LBB3301:
 10348              	.LBI3301:
 128:../../DaisySP//Source/PhysicalModeling/resonator.h ****     ~Resonator() {}
 10349              		.loc 8 128 5 is_stmt 1 view .LVU2536
 10350              	.LBE3301:
 10351              	.LBE3307:
 10352              	.LBE3312:
 128:../../DaisySP//Source/PhysicalModeling/resonator.h ****     ~Resonator() {}
 10353              		.loc 8 128 17 view .LVU2537
 10354              	.LBB3313:
 10355              	.LBB3308:
  50:OmniSeed.cpp  **** Resonator						res;
 10356              		.loc 17 50 16 is_stmt 0 view .LVU2538
 10357 00ce 2A46     		mov	r2, r5
 10358 00d0 1549     		ldr	r1, .L161+56
 10359 00d2 1648     		ldr	r0, .L161+60
 10360 00d4 FFF7FEFF 		bl	__aeabi_atexit
 10361              	.LVL550:
 10362              	.LBB3302:
 10363              	.LBI3302:
  13:PolyOsc.h     **** {
 10364              		.loc 11 13 7 is_stmt 1 view .LVU2539
 10365              	.LBE3302:
 10366              	.LBE3308:
 10367              	.LBE3313:
  13:PolyOsc.h     **** {
 10368              		.loc 11 13 7 view .LVU2540
  13:PolyOsc.h     **** {
 10369              		.loc 11 13 7 view .LVU2541
 10370              	.LBB3314:
 10371              	.LBB3309:
 10372              	.LBB3304:
 10373              	.LBB3303:
 10374              	.LBI3303:
  40:../../DaisySP//Source/Effects/reverbsc.h ****     ~ReverbSc() {}
 10375              		.loc 12 40 5 view .LVU2542
  40:../../DaisySP//Source/Effects/reverbsc.h ****     ~ReverbSc() {}
 10376              		.loc 12 40 5 is_stmt 0 view .LVU2543
 10377              	.LBE3303:
 10378              	.LBE3304:
  51:OmniSeed.cpp  **** PolyOscillator DSY_SDRAM_BSS	posc;
 10379              		.loc 17 51 30 view .LVU2544
 10380 00d8 2A46     		mov	r2, r5
 10381 00da 1549     		ldr	r1, .L161+64
 10382 00dc 1548     		ldr	r0, .L161+68
 10383 00de FFF7FEFF 		bl	__aeabi_atexit
 10384              	.LVL551:
 10385              	.LBB3305:
ARM GAS  /var/folders/hl/qgbwny5j0fd895c2c41bk3tw0000gp/T//cckqgw4a.s 			page 261


 10386              	.LBI3305:
  23:../../libDaisy//src/util/WaveTableLoader.h ****     ~WaveTableLoader() {}
 10387              		.loc 2 23 5 is_stmt 1 view .LVU2545
  23:../../libDaisy//src/util/WaveTableLoader.h ****     ~WaveTableLoader() {}
 10388              		.loc 2 23 5 is_stmt 0 view .LVU2546
 10389              	.LBE3305:
  52:OmniSeed.cpp  **** WaveTableLoader					wtl;
 10390              		.loc 17 52 21 view .LVU2547
 10391 00e2 2A46     		mov	r2, r5
 10392 00e4 1449     		ldr	r1, .L161+72
 10393 00e6 1548     		ldr	r0, .L161+76
 10394              	.LBE3309:
 10395              	.LBE3314:
 10396              		.loc 17 237 1 view .LVU2548
 10397 00e8 BDE8F840 		pop	{r3, r4, r5, r6, r7, lr}
 10398              		.cfi_restore 14
 10399              		.cfi_restore 7
 10400              		.cfi_restore 6
 10401              		.cfi_restore 5
 10402              		.cfi_restore 4
 10403              		.cfi_restore 3
 10404              		.cfi_def_cfa_offset 0
 10405              	.LBB3315:
 10406              	.LBB3310:
  52:OmniSeed.cpp  **** WaveTableLoader					wtl;
 10407              		.loc 17 52 21 view .LVU2549
 10408 00ec FFF7FEBF 		b	__aeabi_atexit
 10409              	.LVL552:
 10410              	.L162:
 10411              		.align	2
 10412              	.L161:
 10413 00f0 00000000 		.word	.LANCHOR0
 10414 00f4 00000000 		.word	__dso_handle
 10415 00f8 01080109 		.word	151062529
 10416 00fc 00000000 		.word	.LANCHOR20
 10417 0100 00000000 		.word	_ZN5daisy6SwitchD1Ev
 10418 0104 00000000 		.word	_ZN5daisy6Mpr121INS_18Mpr121I2CTransportEED1Ev
 10419 0108 00000000 		.word	.LANCHOR3
 10420 010c 00000000 		.word	_ZN5daisy9DaisySeedD1Ev
 10421 0110 00000000 		.word	.LANCHOR7
 10422 0114 00000000 		.word	.LANCHOR8
 10423 0118 00000000 		.word	.LANCHOR9
 10424 011c 00000000 		.word	.LANCHOR10
 10425 0120 00000000 		.word	_ZN7daisysp11PolyPluck_pILj24EED1Ev
 10426 0124 00000000 		.word	pluck
 10427 0128 00000000 		.word	_ZN7daisysp9ResonatorD1Ev
 10428 012c 00000000 		.word	.LANCHOR11
 10429 0130 00000000 		.word	_ZN7daisysp14PolyOscillatorD1Ev
 10430 0134 00000000 		.word	posc
 10431 0138 00000000 		.word	_ZN5daisy15WaveTableLoaderD1Ev
 10432 013c 00000000 		.word	wtl
 10433              	.LBE3310:
 10434              	.LBE3315:
 10435              		.cfi_endproc
 10436              	.LFE5413:
 10438              		.section	.init_array,"aw",%init_array
 10439              		.align	2
ARM GAS  /var/folders/hl/qgbwny5j0fd895c2c41bk3tw0000gp/T//cckqgw4a.s 			page 262


 10440 0000 00000000 		.word	_GLOBAL__sub_I_touch1(target1)
 10441              		.global	wtl
 10442              		.global	posc
 10443              		.global	res
 10444              		.global	pluck
 10445              		.global	change_wave
 10446              		.global	voice
 10447              		.global	test
 10448              		.global	sus
 10449              		.global	trig
 10450              		.global	touchedPad
 10451              		.global	metaScale
 10452              		.global	metaKey
 10453              		.global	loadMeter
 10454              		.global	reset
 10455              		.global	oct2
 10456              		.global	oct1
 10457              		.global	kb
 10458              		.global	hw
 10459              		.global	chordNote
 10460              		.global	scale
 10461              		.global	noteArray
 10462              		.global	hasTriggered
 10463              		.global	pad
 10464              		.global	currtouched
 10465              		.global	lasttouched
 10466              		.global	touch1
 10467              		.section	.rodata
 10468              		.align	2
 10469              		.set	.LANCHOR20,. + 0
 10470              	.LC0:
 10471 0000 04       		.byte	4
 10472 0001 05       		.byte	5
 10473 0002 06       		.byte	6
 10474 0003 07       		.byte	7
 10475 0004 08       		.byte	8
 10476 0005 09       		.byte	9
 10477 0006 0A       		.byte	10
 10478 0007 0D       		.byte	13
 10479 0008 0E       		.byte	14
 10480 0009 000000   		.space	3
 10481              	.LC1:
 10482 000c 01       		.byte	1
 10483 000d 02       		.byte	2
 10484 000e 03       		.byte	3
 10485 000f 00       		.space	1
 10486              	.LC2:
 10487 0010 61       		.byte	97
 10488 0011 62       		.byte	98
 10489 0012 63       		.byte	99
 10490 0013 64       		.byte	100
 10491 0014 65       		.byte	101
 10492 0015 66       		.byte	102
 10493 0016 67       		.byte	103
 10494 0017 68       		.byte	104
 10495 0018 69       		.byte	105
 10496 0019 6A       		.byte	106
ARM GAS  /var/folders/hl/qgbwny5j0fd895c2c41bk3tw0000gp/T//cckqgw4a.s 			page 263


 10497 001a 6B       		.byte	107
 10498 001b 6C       		.byte	108
 10499 001c 6D       		.byte	109
 10500 001d 6E       		.byte	110
 10501 001e 6F       		.byte	111
 10502 001f 70       		.byte	112
 10503 0020 71       		.byte	113
 10504 0021 72       		.byte	114
 10505 0022 73       		.byte	115
 10506 0023 74       		.byte	116
 10507 0024 75       		.byte	117
 10508 0025 76       		.byte	118
 10509 0026 77       		.byte	119
 10510 0027 78       		.byte	120
 10511 0028 79       		.byte	121
 10512 0029 7A       		.byte	122
 10513 002a 31       		.byte	49
 10514 002b 00       		.space	1
 10515              	.LC3:
 10516 002c 01000000 		.word	1
 10517 0030 02000000 		.word	2
 10518 0034 03000000 		.word	3
 10519 0038 04000000 		.word	4
 10520 003c 05000000 		.word	5
 10521 0040 06000000 		.word	6
 10522 0044 07000000 		.word	7
 10523 0048 08000000 		.word	8
 10524 004c 09000000 		.word	9
 10525 0050 0A000000 		.word	10
 10526 0054 0B000000 		.word	11
 10527 0058 0C000000 		.word	12
 10528 005c 0D000000 		.word	13
 10529 0060 0E000000 		.word	14
 10530 0064 0F000000 		.word	15
 10531 0068 10000000 		.word	16
 10532 006c 11000000 		.word	17
 10533 0070 12000000 		.word	18
 10534 0074 13000000 		.word	19
 10535 0078 14000000 		.word	20
 10536 007c 15000000 		.word	21
 10537 0080 16000000 		.word	22
 10538 0084 17000000 		.word	23
 10539 0088 18000000 		.word	24
 10540 008c 19000000 		.word	25
 10541 0090 1A000000 		.word	26
 10542 0094 1B000000 		.word	27
 10543              		.section	.bss.change_wave,"aw",%nobits
 10546              	change_wave:
 10547 0000 00       		.space	1
 10548              		.section	.bss.currtouched,"aw",%nobits
 10549              		.align	1
 10550              		.set	.LANCHOR1,. + 0
 10553              	currtouched:
 10554 0000 0000     		.space	2
 10555              		.section	.bss.hasTriggered,"aw",%nobits
 10556              		.set	.LANCHOR5,. + 0
 10559              	hasTriggered:
ARM GAS  /var/folders/hl/qgbwny5j0fd895c2c41bk3tw0000gp/T//cckqgw4a.s 			page 264


 10560 0000 00       		.space	1
 10561              		.section	.bss.hw,"aw",%nobits
 10562              		.align	2
 10563              		.set	.LANCHOR3,. + 0
 10566              	hw:
 10567 0000 00000000 		.space	60
 10567      00000000 
 10567      00000000 
 10567      00000000 
 10567      00000000 
 10568              		.section	.bss.kb,"aw",%nobits
 10569              		.align	2
 10570              		.set	.LANCHOR7,. + 0
 10573              	kb:
 10574 0000 00000000 		.space	200
 10574      00000000 
 10574      00000000 
 10574      00000000 
 10574      00000000 
 10575              		.section	.bss.lasttouched,"aw",%nobits
 10576              		.align	1
 10577              		.set	.LANCHOR2,. + 0
 10580              	lasttouched:
 10581 0000 0000     		.space	2
 10582              		.section	.bss.loadMeter,"aw",%nobits
 10583              		.align	2
 10584              		.set	.LANCHOR6,. + 0
 10587              	loadMeter:
 10588 0000 00000000 		.space	28
 10588      00000000 
 10588      00000000 
 10588      00000000 
 10588      00000000 
 10589              		.section	.bss.metaKey,"aw",%nobits
 10590              		.align	2
 10591              		.set	.LANCHOR12,. + 0
 10594              	metaKey:
 10595 0000 00000000 		.space	4
 10596              		.section	.bss.metaScale,"aw",%nobits
 10597              		.align	2
 10598              		.set	.LANCHOR13,. + 0
 10601              	metaScale:
 10602 0000 00000000 		.space	4
 10603              		.section	.bss.oct1,"aw",%nobits
 10604              		.align	2
 10605              		.set	.LANCHOR8,. + 0
 10608              	oct1:
 10609 0000 00000000 		.space	16
 10609      00000000 
 10609      00000000 
 10609      00000000 
 10610              		.section	.bss.oct2,"aw",%nobits
 10611              		.align	2
 10612              		.set	.LANCHOR9,. + 0
 10615              	oct2:
 10616 0000 00000000 		.space	16
 10616      00000000 
ARM GAS  /var/folders/hl/qgbwny5j0fd895c2c41bk3tw0000gp/T//cckqgw4a.s 			page 265


 10616      00000000 
 10616      00000000 
 10617              		.section	.bss.pad,"aw",%nobits
 10618              		.align	2
 10619              		.set	.LANCHOR4,. + 0
 10622              	pad:
 10623 0000 00000000 		.space	4
 10624              		.section	.bss.pluck,"aw",%nobits
 10625              		.align	2
 10628              	pluck:
 10629 0000 00000000 		.space	25848
 10629      00000000 
 10629      00000000 
 10629      00000000 
 10629      00000000 
 10630              		.section	.bss.res,"aw",%nobits
 10631              		.align	2
 10632              		.set	.LANCHOR11,. + 0
 10635              	res:
 10636 0000 00000000 		.space	312
 10636      00000000 
 10636      00000000 
 10636      00000000 
 10636      00000000 
 10637              		.section	.bss.reset,"aw",%nobits
 10638              		.align	2
 10639              		.set	.LANCHOR10,. + 0
 10642              	reset:
 10643 0000 00000000 		.space	16
 10643      00000000 
 10643      00000000 
 10643      00000000 
 10644              		.section	.bss.sus,"aw",%nobits
 10647              	sus:
 10648 0000 00       		.space	1
 10649              		.section	.bss.test,"aw",%nobits
 10650              		.set	.LANCHOR16,. + 0
 10653              	test:
 10654 0000 00       		.space	1
 10655              		.section	.bss.touch1,"aw",%nobits
 10656              		.align	2
 10657              		.set	.LANCHOR0,. + 0
 10660              	touch1:
 10661 0000 00000000 		.space	52
 10661      00000000 
 10661      00000000 
 10661      00000000 
 10661      00000000 
 10662              		.section	.bss.touchedPad,"aw",%nobits
 10663              		.align	2
 10664              		.set	.LANCHOR14,. + 0
 10667              	touchedPad:
 10668 0000 00000000 		.space	4
 10669              		.section	.bss.trig,"aw",%nobits
 10670              		.align	2
 10671              		.set	.LANCHOR15,. + 0
 10674              	trig:
ARM GAS  /var/folders/hl/qgbwny5j0fd895c2c41bk3tw0000gp/T//cckqgw4a.s 			page 266


 10675 0000 00000000 		.space	4
 10676              		.section	.bss.voice,"aw",%nobits
 10677              		.align	2
 10678              		.set	.LANCHOR17,. + 0
 10681              	voice:
 10682 0000 00000000 		.space	4
 10683              		.section	.bss.wtl,"aw",%nobits
 10684              		.align	2
 10687              	wtl:
 10688 0000 00000000 		.space	4712
 10688      00000000 
 10688      00000000 
 10688      00000000 
 10688      00000000 
 10689              		.section	.data.chordNote,"aw"
 10690              		.align	2
 10691              		.set	.LANCHOR19,. + 0
 10694              	chordNote:
 10695 0000 00000000 		.word	0
 10696 0004 04000000 		.word	4
 10697 0008 07000000 		.word	7
 10698 000c 0C000000 		.word	12
 10699 0010 10000000 		.word	16
 10700 0014 13000000 		.word	19
 10701 0018 18000000 		.word	24
 10702 001c 1C000000 		.word	28
 10703 0020 1F000000 		.word	31
 10704 0024 24000000 		.word	36
 10705 0028 28000000 		.word	40
 10706 002c 2B000000 		.word	43
 10707 0030 00000000 		.word	0
 10708 0034 03000000 		.word	3
 10709 0038 07000000 		.word	7
 10710 003c 0C000000 		.word	12
 10711 0040 0F000000 		.word	15
 10712 0044 13000000 		.word	19
 10713 0048 18000000 		.word	24
 10714 004c 1B000000 		.word	27
 10715 0050 1F000000 		.word	31
 10716 0054 24000000 		.word	36
 10717 0058 27000000 		.word	39
 10718 005c 2B000000 		.word	43
 10719 0060 00000000 		.word	0
 10720 0064 04000000 		.word	4
 10721 0068 07000000 		.word	7
 10722 006c 0A000000 		.word	10
 10723 0070 0C000000 		.word	12
 10724 0074 10000000 		.word	16
 10725 0078 13000000 		.word	19
 10726 007c 16000000 		.word	22
 10727 0080 18000000 		.word	24
 10728 0084 1C000000 		.word	28
 10729 0088 1F000000 		.word	31
 10730 008c 22000000 		.word	34
 10731              		.section	.data.noteArray,"aw"
 10732              		.align	2
 10733              		.set	.LANCHOR18,. + 0
ARM GAS  /var/folders/hl/qgbwny5j0fd895c2c41bk3tw0000gp/T//cckqgw4a.s 			page 267


 10736              	noteArray:
 10737 0000 33000000 		.word	51
 10738 0004 3A000000 		.word	58
 10739 0008 35000000 		.word	53
 10740 000c 30000000 		.word	48
 10741 0010 37000000 		.word	55
 10742 0014 32000000 		.word	50
 10743 0018 39000000 		.word	57
 10744 001c 34000000 		.word	52
 10745 0020 3B000000 		.word	59
 10746              		.section	.data.scale,"aw"
 10747              		.align	2
 10750              	scale:
 10751 0000 4D6D37   		.ascii	"Mm7"
 10752              		.section	.sdram_bss,"aw"
 10753              		.align	2
 10756              	posc:
 10757 0000 00000000 		.space	397380
 10757      00000000 
 10757      00000000 
 10757      00000000 
 10757      00000000 
 10758              		.text
 10759              	.Letext0:
 10760              		.file 27 "/opt/homebrew/Cellar/arm-none-eabi-gcc/10.3-2021.07/gcc/arm-none-eabi/include/machine/_d
 10761              		.file 28 "/opt/homebrew/Cellar/arm-none-eabi-gcc/10.3-2021.07/gcc/arm-none-eabi/include/sys/_stdin
 10762              		.file 29 "/opt/homebrew/Cellar/arm-none-eabi-gcc/10.3-2021.07/gcc/arm-none-eabi/include/stdint.h"
 10763              		.file 30 "/opt/homebrew/Cellar/arm-none-eabi-gcc/10.3-2021.07/gcc/lib/gcc/arm-none-eabi/10.3.1/inc
 10764              		.file 31 "/opt/homebrew/Cellar/arm-none-eabi-gcc/10.3-2021.07/gcc/arm-none-eabi/include/c++/10.3.1
 10765              		.file 32 "/opt/homebrew/Cellar/arm-none-eabi-gcc/10.3-2021.07/gcc/arm-none-eabi/include/c++/10.3.1
 10766              		.file 33 "/opt/homebrew/Cellar/arm-none-eabi-gcc/10.3-2021.07/gcc/arm-none-eabi/include/c++/10.3.1
 10767              		.file 34 "/opt/homebrew/Cellar/arm-none-eabi-gcc/10.3-2021.07/gcc/arm-none-eabi/include/c++/10.3.1
 10768              		.file 35 "/opt/homebrew/Cellar/arm-none-eabi-gcc/10.3-2021.07/gcc/arm-none-eabi/include/c++/10.3.1
 10769              		.file 36 "/opt/homebrew/Cellar/arm-none-eabi-gcc/10.3-2021.07/gcc/arm-none-eabi/include/c++/10.3.1
 10770              		.file 37 "/opt/homebrew/Cellar/arm-none-eabi-gcc/10.3-2021.07/gcc/arm-none-eabi/include/c++/10.3.1
 10771              		.file 38 "/opt/homebrew/Cellar/arm-none-eabi-gcc/10.3-2021.07/gcc/arm-none-eabi/include/c++/10.3.1
 10772              		.file 39 "/opt/homebrew/Cellar/arm-none-eabi-gcc/10.3-2021.07/gcc/arm-none-eabi/include/c++/10.3.1
 10773              		.file 40 "/opt/homebrew/Cellar/arm-none-eabi-gcc/10.3-2021.07/gcc/arm-none-eabi/include/c++/10.3.1
 10774              		.file 41 "/opt/homebrew/Cellar/arm-none-eabi-gcc/10.3-2021.07/gcc/arm-none-eabi/include/c++/10.3.1
 10775              		.file 42 "/opt/homebrew/Cellar/arm-none-eabi-gcc/10.3-2021.07/gcc/arm-none-eabi/include/c++/10.3.1
 10776              		.file 43 "/opt/homebrew/Cellar/arm-none-eabi-gcc/10.3-2021.07/gcc/arm-none-eabi/include/c++/10.3.1
 10777              		.file 44 "/opt/homebrew/Cellar/arm-none-eabi-gcc/10.3-2021.07/gcc/arm-none-eabi/include/c++/10.3.1
 10778              		.file 45 "/opt/homebrew/Cellar/arm-none-eabi-gcc/10.3-2021.07/gcc/arm-none-eabi/include/c++/10.3.1
 10779              		.file 46 "/opt/homebrew/Cellar/arm-none-eabi-gcc/10.3-2021.07/gcc/arm-none-eabi/include/c++/10.3.1
 10780              		.file 47 "/opt/homebrew/Cellar/arm-none-eabi-gcc/10.3-2021.07/gcc/arm-none-eabi/include/c++/10.3.1
 10781              		.file 48 "/opt/homebrew/Cellar/arm-none-eabi-gcc/10.3-2021.07/gcc/arm-none-eabi/include/sys/_types
 10782              		.file 49 "<built-in>"
 10783              		.file 50 "/opt/homebrew/Cellar/arm-none-eabi-gcc/10.3-2021.07/gcc/arm-none-eabi/include/sys/reent.
 10784              		.file 51 "/opt/homebrew/Cellar/arm-none-eabi-gcc/10.3-2021.07/gcc/arm-none-eabi/include/sys/lock.h
 10785              		.file 52 "/opt/homebrew/Cellar/arm-none-eabi-gcc/10.3-2021.07/gcc/arm-none-eabi/include/math.h"
 10786              		.file 53 "/opt/homebrew/Cellar/arm-none-eabi-gcc/10.3-2021.07/gcc/arm-none-eabi/include/stdlib.h"
 10787              		.file 54 "/opt/homebrew/Cellar/arm-none-eabi-gcc/10.3-2021.07/gcc/arm-none-eabi/include/c++/10.3.1
 10788              		.file 55 "/opt/homebrew/Cellar/arm-none-eabi-gcc/10.3-2021.07/gcc/arm-none-eabi/include/c++/10.3.1
 10789              		.file 56 "../../libDaisy//src/per/tim.h"
 10790              		.file 57 "../../libDaisy//src/per/sai.h"
 10791              		.file 58 "../../libDaisy//src/hid/logger_impl.h"
 10792              		.file 59 "../../libDaisy//src/util/wav_format.h"
ARM GAS  /var/folders/hl/qgbwny5j0fd895c2c41bk3tw0000gp/T//cckqgw4a.s 			page 268


 10793              		.file 60 "../../libDaisy//src/dev/max11300.h"
 10794              		.file 61 "../../libDaisy//src/hid/logger.h"
 10795              		.file 62 "../../libDaisy//src/per/gpio.h"
 10796              		.file 63 "../../libDaisy//src/dev/sdram.h"
 10797              		.file 64 "/opt/homebrew/Cellar/arm-none-eabi-gcc/10.3-2021.07/gcc/lib/gcc/arm-none-eabi/10.3.1/inc
 10798              		.file 65 "/opt/homebrew/Cellar/arm-none-eabi-gcc/10.3-2021.07/gcc/arm-none-eabi/include/stdio.h"
 10799              		.file 66 "../../libDaisy//Middlewares/Third_Party/FatFs/src/integer.h"
 10800              		.file 67 "../../libDaisy//Middlewares/Third_Party/FatFs/src/ff.h"
 10801              		.file 68 "/opt/homebrew/Cellar/arm-none-eabi-gcc/10.3-2021.07/gcc/arm-none-eabi/include/string.h"
 10802              		.file 69 "../../DaisySP//Source/Control/adsr.h"
 10803              		.file 70 "/opt/homebrew/Cellar/arm-none-eabi-gcc/10.3-2021.07/gcc/arm-none-eabi/include/wchar.h"
 10804              		.file 71 "/opt/homebrew/Cellar/arm-none-eabi-gcc/10.3-2021.07/gcc/arm-none-eabi/include/locale.h"
 10805              		.file 72 "notes.h"
 10806              		.file 73 "../../libDaisy//src/dev/sr_595.h"
ARM GAS  /var/folders/hl/qgbwny5j0fd895c2c41bk3tw0000gp/T//cckqgw4a.s 			page 269


DEFINED SYMBOLS
                            *ABS*:0000000000000000 OmniSeed.cpp
/var/folders/hl/qgbwny5j0fd895c2c41bk3tw0000gp/T//cckqgw4a.s:17     .text._ZN5daisy6SwitchD2Ev:0000000000000000 $t
/var/folders/hl/qgbwny5j0fd895c2c41bk3tw0000gp/T//cckqgw4a.s:26     .text._ZN5daisy6SwitchD2Ev:0000000000000000 _ZN5daisy6SwitchD2Ev
/var/folders/hl/qgbwny5j0fd895c2c41bk3tw0000gp/T//cckqgw4a.s:26     .text._ZN5daisy6SwitchD2Ev:0000000000000000 _ZN5daisy6SwitchD1Ev
/var/folders/hl/qgbwny5j0fd895c2c41bk3tw0000gp/T//cckqgw4a.s:43     .text._ZN5daisy15WaveTableLoaderD2Ev:0000000000000000 $t
/var/folders/hl/qgbwny5j0fd895c2c41bk3tw0000gp/T//cckqgw4a.s:51     .text._ZN5daisy15WaveTableLoaderD2Ev:0000000000000000 _ZN5daisy15WaveTableLoaderD2Ev
/var/folders/hl/qgbwny5j0fd895c2c41bk3tw0000gp/T//cckqgw4a.s:51     .text._ZN5daisy15WaveTableLoaderD2Ev:0000000000000000 _ZN5daisy15WaveTableLoaderD1Ev
/var/folders/hl/qgbwny5j0fd895c2c41bk3tw0000gp/T//cckqgw4a.s:68     .text._ZN5daisy9DaisySeedD2Ev:0000000000000000 $t
/var/folders/hl/qgbwny5j0fd895c2c41bk3tw0000gp/T//cckqgw4a.s:76     .text._ZN5daisy9DaisySeedD2Ev:0000000000000000 _ZN5daisy9DaisySeedD2Ev
/var/folders/hl/qgbwny5j0fd895c2c41bk3tw0000gp/T//cckqgw4a.s:76     .text._ZN5daisy9DaisySeedD2Ev:0000000000000000 _ZN5daisy9DaisySeedD1Ev
/var/folders/hl/qgbwny5j0fd895c2c41bk3tw0000gp/T//cckqgw4a.s:117    .text._ZN7daisysp9ResonatorD2Ev:0000000000000000 $t
/var/folders/hl/qgbwny5j0fd895c2c41bk3tw0000gp/T//cckqgw4a.s:125    .text._ZN7daisysp9ResonatorD2Ev:0000000000000000 _ZN7daisysp9ResonatorD2Ev
/var/folders/hl/qgbwny5j0fd895c2c41bk3tw0000gp/T//cckqgw4a.s:125    .text._ZN7daisysp9ResonatorD2Ev:0000000000000000 _ZN7daisysp9ResonatorD1Ev
/var/folders/hl/qgbwny5j0fd895c2c41bk3tw0000gp/T//cckqgw4a.s:142    .text._ZN7daisysp11PolyPluck_pILj24EED2Ev:0000000000000000 $t
/var/folders/hl/qgbwny5j0fd895c2c41bk3tw0000gp/T//cckqgw4a.s:150    .text._ZN7daisysp11PolyPluck_pILj24EED2Ev:0000000000000000 _ZN7daisysp11PolyPluck_pILj24EED2Ev
/var/folders/hl/qgbwny5j0fd895c2c41bk3tw0000gp/T//cckqgw4a.s:150    .text._ZN7daisysp11PolyPluck_pILj24EED2Ev:0000000000000000 _ZN7daisysp11PolyPluck_pILj24EED1Ev
/var/folders/hl/qgbwny5j0fd895c2c41bk3tw0000gp/T//cckqgw4a.s:173    .text._ZN7daisysp14PolyOscillatorD2Ev:0000000000000000 $t
/var/folders/hl/qgbwny5j0fd895c2c41bk3tw0000gp/T//cckqgw4a.s:181    .text._ZN7daisysp14PolyOscillatorD2Ev:0000000000000000 _ZN7daisysp14PolyOscillatorD2Ev
/var/folders/hl/qgbwny5j0fd895c2c41bk3tw0000gp/T//cckqgw4a.s:181    .text._ZN7daisysp14PolyOscillatorD2Ev:0000000000000000 _ZN7daisysp14PolyOscillatorD1Ev
/var/folders/hl/qgbwny5j0fd895c2c41bk3tw0000gp/T//cckqgw4a.s:204    .text._ZN5daisy6Mpr121INS_18Mpr121I2CTransportEED2Ev:0000000000000000 $t
/var/folders/hl/qgbwny5j0fd895c2c41bk3tw0000gp/T//cckqgw4a.s:212    .text._ZN5daisy6Mpr121INS_18Mpr121I2CTransportEED2Ev:0000000000000000 _ZN5daisy6Mpr121INS_18Mpr121I2CTransportEED2Ev
/var/folders/hl/qgbwny5j0fd895c2c41bk3tw0000gp/T//cckqgw4a.s:212    .text._ZN5daisy6Mpr121INS_18Mpr121I2CTransportEED2Ev:0000000000000000 _ZN5daisy6Mpr121INS_18Mpr121I2CTransportEED1Ev
/var/folders/hl/qgbwny5j0fd895c2c41bk3tw0000gp/T//cckqgw4a.s:234    .text._Z7Init121v:0000000000000000 $t
/var/folders/hl/qgbwny5j0fd895c2c41bk3tw0000gp/T//cckqgw4a.s:242    .text._Z7Init121v:0000000000000000 _Z7Init121v
/var/folders/hl/qgbwny5j0fd895c2c41bk3tw0000gp/T//cckqgw4a.s:1539   .text._Z7Init121v:000000000000032c $d
/var/folders/hl/qgbwny5j0fd895c2c41bk3tw0000gp/T//cckqgw4a.s:1546   .text._Z7Init121v:0000000000000338 $t
/var/folders/hl/qgbwny5j0fd895c2c41bk3tw0000gp/T//cckqgw4a.s:2768   .text._Z7Init121v:0000000000000640 $d
/var/folders/hl/qgbwny5j0fd895c2c41bk3tw0000gp/T//cckqgw4a.s:2775   .text._Z7Init121v:0000000000000644 $t
/var/folders/hl/qgbwny5j0fd895c2c41bk3tw0000gp/T//cckqgw4a.s:4095   .text._Z7Init121v:0000000000000974 $d
/var/folders/hl/qgbwny5j0fd895c2c41bk3tw0000gp/T//cckqgw4a.s:4097   .text._Z7Init121v:0000000000000978 $t
/var/folders/hl/qgbwny5j0fd895c2c41bk3tw0000gp/T//cckqgw4a.s:5389   .text._Z7Init121v:0000000000000c9c $d
/var/folders/hl/qgbwny5j0fd895c2c41bk3tw0000gp/T//cckqgw4a.s:5400   .text._Z7Init121v:0000000000000ca0 $t
/var/folders/hl/qgbwny5j0fd895c2c41bk3tw0000gp/T//cckqgw4a.s:6091   .text._Z7Init121v:0000000000000e54 $d
/var/folders/hl/qgbwny5j0fd895c2c41bk3tw0000gp/T//cckqgw4a.s:6096   .text._Z10touchEventv:0000000000000000 $t
/var/folders/hl/qgbwny5j0fd895c2c41bk3tw0000gp/T//cckqgw4a.s:6104   .text._Z10touchEventv:0000000000000000 _Z10touchEventv
/var/folders/hl/qgbwny5j0fd895c2c41bk3tw0000gp/T//cckqgw4a.s:6395   .text._Z10touchEventv:00000000000000c8 $d
/var/folders/hl/qgbwny5j0fd895c2c41bk3tw0000gp/T//cckqgw4a.s:6406   .text._Z11TouchedNotev:0000000000000000 $t
/var/folders/hl/qgbwny5j0fd895c2c41bk3tw0000gp/T//cckqgw4a.s:6414   .text._Z11TouchedNotev:0000000000000000 _Z11TouchedNotev
/var/folders/hl/qgbwny5j0fd895c2c41bk3tw0000gp/T//cckqgw4a.s:6430   .text._Z11TouchedNotev:0000000000000008 $d
/var/folders/hl/qgbwny5j0fd895c2c41bk3tw0000gp/T//cckqgw4a.s:6435   .rodata._Z7logInitv.str1.4:0000000000000000 $d
/var/folders/hl/qgbwny5j0fd895c2c41bk3tw0000gp/T//cckqgw4a.s:6439   .text._Z7logInitv:0000000000000000 $t
/var/folders/hl/qgbwny5j0fd895c2c41bk3tw0000gp/T//cckqgw4a.s:6447   .text._Z7logInitv:0000000000000000 _Z7logInitv
/var/folders/hl/qgbwny5j0fd895c2c41bk3tw0000gp/T//cckqgw4a.s:6500   .text._Z7logInitv:0000000000000014 $d
/var/folders/hl/qgbwny5j0fd895c2c41bk3tw0000gp/T//cckqgw4a.s:6507   .rodata._Z6syslogv.str1.4:0000000000000000 $d
/var/folders/hl/qgbwny5j0fd895c2c41bk3tw0000gp/T//cckqgw4a.s:6520   .text._Z6syslogv:0000000000000000 $t
/var/folders/hl/qgbwny5j0fd895c2c41bk3tw0000gp/T//cckqgw4a.s:6528   .text._Z6syslogv:0000000000000000 _Z6syslogv
/var/folders/hl/qgbwny5j0fd895c2c41bk3tw0000gp/T//cckqgw4a.s:6840   .text._Z6syslogv:00000000000000e8 $d
/var/folders/hl/qgbwny5j0fd895c2c41bk3tw0000gp/T//cckqgw4a.s:6855   .text.startup.main:0000000000000000 $t
/var/folders/hl/qgbwny5j0fd895c2c41bk3tw0000gp/T//cckqgw4a.s:6863   .text.startup.main:0000000000000000 main
/var/folders/hl/qgbwny5j0fd895c2c41bk3tw0000gp/T//cckqgw4a.s:7777   .text.startup.main:00000000000002f0 $d
/var/folders/hl/qgbwny5j0fd895c2c41bk3tw0000gp/T//cckqgw4a.s:10628  .bss.pluck:0000000000000000 pluck
/var/folders/hl/qgbwny5j0fd895c2c41bk3tw0000gp/T//cckqgw4a.s:10756  .sdram_bss:0000000000000000 posc
/var/folders/hl/qgbwny5j0fd895c2c41bk3tw0000gp/T//cckqgw4a.s:8595   .text._Z13AudioCallbackPKPKfPPfj:0000000000000000 _Z13AudioCallbackPKPKfPPfj
/var/folders/hl/qgbwny5j0fd895c2c41bk3tw0000gp/T//cckqgw4a.s:7818   .text._Z11voiceSelectff:0000000000000000 $t
/var/folders/hl/qgbwny5j0fd895c2c41bk3tw0000gp/T//cckqgw4a.s:7826   .text._Z11voiceSelectff:0000000000000000 _Z11voiceSelectff
/var/folders/hl/qgbwny5j0fd895c2c41bk3tw0000gp/T//cckqgw4a.s:8560   .text._Z11voiceSelectff:0000000000000274 $d
ARM GAS  /var/folders/hl/qgbwny5j0fd895c2c41bk3tw0000gp/T//cckqgw4a.s 			page 270


/var/folders/hl/qgbwny5j0fd895c2c41bk3tw0000gp/T//cckqgw4a.s:8587   .text._Z13AudioCallbackPKPKfPPfj:0000000000000000 $t
/var/folders/hl/qgbwny5j0fd895c2c41bk3tw0000gp/T//cckqgw4a.s:9776   .text._Z13AudioCallbackPKPKfPPfj:0000000000000230 $d
/var/folders/hl/qgbwny5j0fd895c2c41bk3tw0000gp/T//cckqgw4a.s:9804   .text._Z13buttonHandlerv:0000000000000000 $t
/var/folders/hl/qgbwny5j0fd895c2c41bk3tw0000gp/T//cckqgw4a.s:9812   .text._Z13buttonHandlerv:0000000000000000 _Z13buttonHandlerv
/var/folders/hl/qgbwny5j0fd895c2c41bk3tw0000gp/T//cckqgw4a.s:9869   .text._Z13buttonHandlerv:0000000000000024 $d
/var/folders/hl/qgbwny5j0fd895c2c41bk3tw0000gp/T//cckqgw4a.s:9876   .text._Z11systemResetv:0000000000000000 $t
/var/folders/hl/qgbwny5j0fd895c2c41bk3tw0000gp/T//cckqgw4a.s:9884   .text._Z11systemResetv:0000000000000000 _Z11systemResetv
/var/folders/hl/qgbwny5j0fd895c2c41bk3tw0000gp/T//cckqgw4a.s:9929   .text._Z11systemResetv:000000000000001c $d
/var/folders/hl/qgbwny5j0fd895c2c41bk3tw0000gp/T//cckqgw4a.s:9934   .text.startup._GLOBAL__sub_I_touch1:0000000000000000 $t
/var/folders/hl/qgbwny5j0fd895c2c41bk3tw0000gp/T//cckqgw4a.s:9941   .text.startup._GLOBAL__sub_I_touch1:0000000000000000 _GLOBAL__sub_I_touch1
/var/folders/hl/qgbwny5j0fd895c2c41bk3tw0000gp/T//cckqgw4a.s:10413  .text.startup._GLOBAL__sub_I_touch1:00000000000000f0 $d
/var/folders/hl/qgbwny5j0fd895c2c41bk3tw0000gp/T//cckqgw4a.s:10687  .bss.wtl:0000000000000000 wtl
/var/folders/hl/qgbwny5j0fd895c2c41bk3tw0000gp/T//cckqgw4a.s:10439  .init_array:0000000000000000 $d
/var/folders/hl/qgbwny5j0fd895c2c41bk3tw0000gp/T//cckqgw4a.s:10635  .bss.res:0000000000000000 res
/var/folders/hl/qgbwny5j0fd895c2c41bk3tw0000gp/T//cckqgw4a.s:10546  .bss.change_wave:0000000000000000 change_wave
/var/folders/hl/qgbwny5j0fd895c2c41bk3tw0000gp/T//cckqgw4a.s:10681  .bss.voice:0000000000000000 voice
/var/folders/hl/qgbwny5j0fd895c2c41bk3tw0000gp/T//cckqgw4a.s:10653  .bss.test:0000000000000000 test
/var/folders/hl/qgbwny5j0fd895c2c41bk3tw0000gp/T//cckqgw4a.s:10647  .bss.sus:0000000000000000 sus
/var/folders/hl/qgbwny5j0fd895c2c41bk3tw0000gp/T//cckqgw4a.s:10674  .bss.trig:0000000000000000 trig
/var/folders/hl/qgbwny5j0fd895c2c41bk3tw0000gp/T//cckqgw4a.s:10667  .bss.touchedPad:0000000000000000 touchedPad
/var/folders/hl/qgbwny5j0fd895c2c41bk3tw0000gp/T//cckqgw4a.s:10601  .bss.metaScale:0000000000000000 metaScale
/var/folders/hl/qgbwny5j0fd895c2c41bk3tw0000gp/T//cckqgw4a.s:10594  .bss.metaKey:0000000000000000 metaKey
/var/folders/hl/qgbwny5j0fd895c2c41bk3tw0000gp/T//cckqgw4a.s:10587  .bss.loadMeter:0000000000000000 loadMeter
/var/folders/hl/qgbwny5j0fd895c2c41bk3tw0000gp/T//cckqgw4a.s:10642  .bss.reset:0000000000000000 reset
/var/folders/hl/qgbwny5j0fd895c2c41bk3tw0000gp/T//cckqgw4a.s:10615  .bss.oct2:0000000000000000 oct2
/var/folders/hl/qgbwny5j0fd895c2c41bk3tw0000gp/T//cckqgw4a.s:10608  .bss.oct1:0000000000000000 oct1
/var/folders/hl/qgbwny5j0fd895c2c41bk3tw0000gp/T//cckqgw4a.s:10573  .bss.kb:0000000000000000 kb
/var/folders/hl/qgbwny5j0fd895c2c41bk3tw0000gp/T//cckqgw4a.s:10566  .bss.hw:0000000000000000 hw
/var/folders/hl/qgbwny5j0fd895c2c41bk3tw0000gp/T//cckqgw4a.s:10694  .data.chordNote:0000000000000000 chordNote
/var/folders/hl/qgbwny5j0fd895c2c41bk3tw0000gp/T//cckqgw4a.s:10750  .data.scale:0000000000000000 scale
/var/folders/hl/qgbwny5j0fd895c2c41bk3tw0000gp/T//cckqgw4a.s:10736  .data.noteArray:0000000000000000 noteArray
/var/folders/hl/qgbwny5j0fd895c2c41bk3tw0000gp/T//cckqgw4a.s:10559  .bss.hasTriggered:0000000000000000 hasTriggered
/var/folders/hl/qgbwny5j0fd895c2c41bk3tw0000gp/T//cckqgw4a.s:10622  .bss.pad:0000000000000000 pad
/var/folders/hl/qgbwny5j0fd895c2c41bk3tw0000gp/T//cckqgw4a.s:10553  .bss.currtouched:0000000000000000 currtouched
/var/folders/hl/qgbwny5j0fd895c2c41bk3tw0000gp/T//cckqgw4a.s:10580  .bss.lasttouched:0000000000000000 lasttouched
/var/folders/hl/qgbwny5j0fd895c2c41bk3tw0000gp/T//cckqgw4a.s:10660  .bss.touch1:0000000000000000 touch1
/var/folders/hl/qgbwny5j0fd895c2c41bk3tw0000gp/T//cckqgw4a.s:10468  .rodata:0000000000000000 $d
/var/folders/hl/qgbwny5j0fd895c2c41bk3tw0000gp/T//cckqgw4a.s:10547  .bss.change_wave:0000000000000000 $d
/var/folders/hl/qgbwny5j0fd895c2c41bk3tw0000gp/T//cckqgw4a.s:10549  .bss.currtouched:0000000000000000 $d
/var/folders/hl/qgbwny5j0fd895c2c41bk3tw0000gp/T//cckqgw4a.s:10560  .bss.hasTriggered:0000000000000000 $d
/var/folders/hl/qgbwny5j0fd895c2c41bk3tw0000gp/T//cckqgw4a.s:10562  .bss.hw:0000000000000000 $d
/var/folders/hl/qgbwny5j0fd895c2c41bk3tw0000gp/T//cckqgw4a.s:10569  .bss.kb:0000000000000000 $d
/var/folders/hl/qgbwny5j0fd895c2c41bk3tw0000gp/T//cckqgw4a.s:10576  .bss.lasttouched:0000000000000000 $d
/var/folders/hl/qgbwny5j0fd895c2c41bk3tw0000gp/T//cckqgw4a.s:10583  .bss.loadMeter:0000000000000000 $d
/var/folders/hl/qgbwny5j0fd895c2c41bk3tw0000gp/T//cckqgw4a.s:10590  .bss.metaKey:0000000000000000 $d
/var/folders/hl/qgbwny5j0fd895c2c41bk3tw0000gp/T//cckqgw4a.s:10597  .bss.metaScale:0000000000000000 $d
/var/folders/hl/qgbwny5j0fd895c2c41bk3tw0000gp/T//cckqgw4a.s:10604  .bss.oct1:0000000000000000 $d
/var/folders/hl/qgbwny5j0fd895c2c41bk3tw0000gp/T//cckqgw4a.s:10611  .bss.oct2:0000000000000000 $d
/var/folders/hl/qgbwny5j0fd895c2c41bk3tw0000gp/T//cckqgw4a.s:10618  .bss.pad:0000000000000000 $d
/var/folders/hl/qgbwny5j0fd895c2c41bk3tw0000gp/T//cckqgw4a.s:10625  .bss.pluck:0000000000000000 $d
/var/folders/hl/qgbwny5j0fd895c2c41bk3tw0000gp/T//cckqgw4a.s:10631  .bss.res:0000000000000000 $d
/var/folders/hl/qgbwny5j0fd895c2c41bk3tw0000gp/T//cckqgw4a.s:10638  .bss.reset:0000000000000000 $d
/var/folders/hl/qgbwny5j0fd895c2c41bk3tw0000gp/T//cckqgw4a.s:10648  .bss.sus:0000000000000000 $d
/var/folders/hl/qgbwny5j0fd895c2c41bk3tw0000gp/T//cckqgw4a.s:10654  .bss.test:0000000000000000 $d
/var/folders/hl/qgbwny5j0fd895c2c41bk3tw0000gp/T//cckqgw4a.s:10656  .bss.touch1:0000000000000000 $d
/var/folders/hl/qgbwny5j0fd895c2c41bk3tw0000gp/T//cckqgw4a.s:10663  .bss.touchedPad:0000000000000000 $d
/var/folders/hl/qgbwny5j0fd895c2c41bk3tw0000gp/T//cckqgw4a.s:10670  .bss.trig:0000000000000000 $d
ARM GAS  /var/folders/hl/qgbwny5j0fd895c2c41bk3tw0000gp/T//cckqgw4a.s 			page 271


/var/folders/hl/qgbwny5j0fd895c2c41bk3tw0000gp/T//cckqgw4a.s:10677  .bss.voice:0000000000000000 $d
/var/folders/hl/qgbwny5j0fd895c2c41bk3tw0000gp/T//cckqgw4a.s:10684  .bss.wtl:0000000000000000 $d
/var/folders/hl/qgbwny5j0fd895c2c41bk3tw0000gp/T//cckqgw4a.s:10690  .data.chordNote:0000000000000000 $d
/var/folders/hl/qgbwny5j0fd895c2c41bk3tw0000gp/T//cckqgw4a.s:10732  .data.noteArray:0000000000000000 $d
/var/folders/hl/qgbwny5j0fd895c2c41bk3tw0000gp/T//cckqgw4a.s:10747  .data.scale:0000000000000000 $d
/var/folders/hl/qgbwny5j0fd895c2c41bk3tw0000gp/T//cckqgw4a.s:10753  .sdram_bss:0000000000000000 $d
                           .group:0000000000000000 _ZN5daisy6SwitchD5Ev
                           .group:0000000000000000 _ZN5daisy15WaveTableLoaderD5Ev
                           .group:0000000000000000 _ZN5daisy9DaisySeedD5Ev
                           .group:0000000000000000 _ZN7daisysp9ResonatorD5Ev
                           .group:0000000000000000 _ZN7daisysp11PolyPluck_pILj24EED5Ev
                           .group:0000000000000000 _ZN7daisysp14PolyOscillatorD5Ev
                           .group:0000000000000000 _ZN5daisy6Mpr121INS_18Mpr121I2CTransportEED5Ev

UNDEFINED SYMBOLS
_ZN5daisy9I2CHandle4InitERKNS0_6ConfigE
_ZN5daisy9I2CHandle16TransmitBlockingEtPhtm
_ZN5daisy9I2CHandle15ReceiveBlockingEtPhtm
_ZN5daisy6System5DelayEm
_ZN5daisy9DaisySeed6SetLedEb
_ZN5daisy6LoggerILNS_17LoggerDestinationE1EE8StartLogEb
_ZN5daisy6LoggerILNS_17LoggerDestinationE1EE9PrintLineEPKcz
_ZN5daisy9DaisySeed4InitEb
_ZN5daisy9DaisySeed17SetAudioBlockSizeEj
_ZN5daisy9DaisySeed18SetAudioSampleRateENS_9SaiHandle6Config10SampleRateE
_ZN5daisy9DaisySeed15AudioSampleRateEv
_ZN5daisy16AdcChannelConfig10InitSingleE12dsy_gpio_pin
_ZN5daisy9AdcHandle4InitEPNS_16AdcChannelConfigEjNS0_12OverSamplingE
_ZN5daisy9AdcHandle5StartEv
_ZN5daisy9DaisySeed14AudioBlockSizeEv
_ZN5daisy6System11GetTickFreqEv
_ZN14KeyboardMatrix4initEv
_ZN5daisy6Switch4InitE12dsy_gpio_pinf
_ZN7daisysp5Pluck4InitEfPfll
_ZN7daisysp7DcBlock4InitEf
_ZN7daisysp9Resonator4InitEfif
_ZN7daisysp10Oscillator12CalcPhaseIncEf
_ZN7daisysp5AdEnv4InitEf
_ZN7daisysp8ReverbSc4InitEf
_ZN5daisy9DaisySeed10StartAudioEPFvPKPKfPPfjE
_ZN5daisy6Switch8DebounceEv
_ZN14KeyboardMatrix8iReadKeyEv
_ZN5daisy6System17ResetToBootloaderEv
_ZNK5daisy9AdcHandle3GetEh
powf
_ZN7daisysp9Resonator7SetFreqEf
_ZN7daisysp9Resonator7ProcessEf
_ZN7daisysp5Pluck7ProcessERf
_ZN7daisysp7DcBlock7ProcessEf
_ZN7daisysp5AdEnv7ProcessEv
_ZN7daisysp10Oscillator7ProcessEv
_ZN7daisysp8ReverbSc7ProcessERKfS2_PfS3_
_ZN5daisy6System7GetTickEv
_ZNK5daisy9AdcHandle8GetFloatEh
_ZN7daisysp9Resonator13SetBrightnessEf
_ZN7daisysp9Resonator10SetDampingEf
_ZN7daisysp9Resonator12SetStructureEf
ARM GAS  /var/folders/hl/qgbwny5j0fd895c2c41bk3tw0000gp/T//cckqgw4a.s 			page 272


__aeabi_atexit
memcpy
__dso_handle
